ARM GAS  C:\Users\SHOZO\AppData\Local\Temp\ccih3v6m.s 			page 1


   1              		.syntax unified
   2              		.cpu cortex-m0
   3              		.fpu softvfp
   4              		.eabi_attribute 20, 1
   5              		.eabi_attribute 21, 1
   6              		.eabi_attribute 23, 3
   7              		.eabi_attribute 24, 1
   8              		.eabi_attribute 25, 1
   9              		.eabi_attribute 26, 1
  10              		.eabi_attribute 30, 1
  11              		.eabi_attribute 34, 0
  12              		.eabi_attribute 18, 4
  13              		.thumb
  14              		.syntax unified
  15              		.file	"CapSense_1_Structure.c"
  16              		.text
  17              	.Ltext0:
  18              		.cfi_sections	.debug_frame
  19              		.section	.text.DsParseParamId,"ax",%progbits
  20              		.align	2
  21              		.code	16
  22              		.thumb_func
  23              		.type	DsParseParamId, %function
  24              	DsParseParamId:
  25              	.LFB1:
  26              		.file 1 "Generated_Source\\PSoC4\\CapSense_1_Structure.c"
   1:Generated_Source\PSoC4/CapSense_1_Structure.c **** /***************************************************************************//**
   2:Generated_Source\PSoC4/CapSense_1_Structure.c **** * \file CapSense_1_Structure.c
   3:Generated_Source\PSoC4/CapSense_1_Structure.c **** * \version 7.0
   4:Generated_Source\PSoC4/CapSense_1_Structure.c **** *
   5:Generated_Source\PSoC4/CapSense_1_Structure.c **** * \brief
   6:Generated_Source\PSoC4/CapSense_1_Structure.c **** *   This file defines the data structure global variables and provides implementation
   7:Generated_Source\PSoC4/CapSense_1_Structure.c **** *   for the high-level and low-level APIs of the Data Structure module.
   8:Generated_Source\PSoC4/CapSense_1_Structure.c **** *
   9:Generated_Source\PSoC4/CapSense_1_Structure.c **** * \see CapSense_1 v7.0 Datasheet
  10:Generated_Source\PSoC4/CapSense_1_Structure.c **** *
  11:Generated_Source\PSoC4/CapSense_1_Structure.c **** *//*****************************************************************************
  12:Generated_Source\PSoC4/CapSense_1_Structure.c **** * Copyright (2016-2019), Cypress Semiconductor Corporation.
  13:Generated_Source\PSoC4/CapSense_1_Structure.c **** ********************************************************************************
  14:Generated_Source\PSoC4/CapSense_1_Structure.c **** * This software is owned by Cypress Semiconductor Corporation (Cypress) and is
  15:Generated_Source\PSoC4/CapSense_1_Structure.c **** * protected by and subject to worldwide patent protection (United States and
  16:Generated_Source\PSoC4/CapSense_1_Structure.c **** * foreign), United States copyright laws and international treaty provisions.
  17:Generated_Source\PSoC4/CapSense_1_Structure.c **** * Cypress hereby grants to licensee a personal, non-exclusive, non-transferable
  18:Generated_Source\PSoC4/CapSense_1_Structure.c **** * license to copy, use, modify, create derivative works of, and compile the
  19:Generated_Source\PSoC4/CapSense_1_Structure.c **** * Cypress Source Code and derivative works for the sole purpose of creating
  20:Generated_Source\PSoC4/CapSense_1_Structure.c **** * custom software in support of licensee product to be used only in conjunction
  21:Generated_Source\PSoC4/CapSense_1_Structure.c **** * with a Cypress integrated circuit as specified in the applicable agreement.
  22:Generated_Source\PSoC4/CapSense_1_Structure.c **** * Any reproduction, modification, translation, compilation, or representation of
  23:Generated_Source\PSoC4/CapSense_1_Structure.c **** * this software except as specified above is prohibited without the express
  24:Generated_Source\PSoC4/CapSense_1_Structure.c **** * written permission of Cypress.
  25:Generated_Source\PSoC4/CapSense_1_Structure.c **** *
  26:Generated_Source\PSoC4/CapSense_1_Structure.c **** * Disclaimer: CYPRESS MAKES NO WARRANTY OF ANY KIND, EXPRESS OR IMPLIED, WITH
  27:Generated_Source\PSoC4/CapSense_1_Structure.c **** * REGARD TO THIS MATERIAL, INCLUDING, BUT NOT LIMITED TO, THE IMPLIED
  28:Generated_Source\PSoC4/CapSense_1_Structure.c **** * WARRANTIES OF MERCHANTABILITY AND FITNESS FOR A PARTICULAR PURPOSE.
  29:Generated_Source\PSoC4/CapSense_1_Structure.c **** * Cypress reserves the right to make changes without further notice to the
  30:Generated_Source\PSoC4/CapSense_1_Structure.c **** * materials described herein. Cypress does not assume any liability arising out
  31:Generated_Source\PSoC4/CapSense_1_Structure.c **** * of the application or use of any product or circuit described herein. Cypress
ARM GAS  C:\Users\SHOZO\AppData\Local\Temp\ccih3v6m.s 			page 2


  32:Generated_Source\PSoC4/CapSense_1_Structure.c **** * does not authorize its products for use as critical components in life-support
  33:Generated_Source\PSoC4/CapSense_1_Structure.c **** * systems where a malfunction or failure may reasonably be expected to result in
  34:Generated_Source\PSoC4/CapSense_1_Structure.c **** * significant injury to the user. The inclusion of Cypress' product in a life-
  35:Generated_Source\PSoC4/CapSense_1_Structure.c **** * support systems application implies that the manufacturer assumes all risk of
  36:Generated_Source\PSoC4/CapSense_1_Structure.c **** * such use and in doing so indemnifies Cypress against all charges. Use may be
  37:Generated_Source\PSoC4/CapSense_1_Structure.c **** * limited by and subject to the applicable Cypress software license agreement.
  38:Generated_Source\PSoC4/CapSense_1_Structure.c **** *******************************************************************************/
  39:Generated_Source\PSoC4/CapSense_1_Structure.c **** 
  40:Generated_Source\PSoC4/CapSense_1_Structure.c **** #include <cytypes.h>
  41:Generated_Source\PSoC4/CapSense_1_Structure.c **** #include "CyLib.h"
  42:Generated_Source\PSoC4/CapSense_1_Structure.c **** #include "CapSense_1_Structure.h"
  43:Generated_Source\PSoC4/CapSense_1_Structure.c **** #include "CapSense_1_Configuration.h"
  44:Generated_Source\PSoC4/CapSense_1_Structure.c **** 
  45:Generated_Source\PSoC4/CapSense_1_Structure.c **** #if (0u != CapSense_1_ADC_EN)
  46:Generated_Source\PSoC4/CapSense_1_Structure.c ****     #include "CapSense_1_Adc.h"
  47:Generated_Source\PSoC4/CapSense_1_Structure.c **** #endif /* (0u != CapSense_1_ADC_EN) */
  48:Generated_Source\PSoC4/CapSense_1_Structure.c **** 
  49:Generated_Source\PSoC4/CapSense_1_Structure.c **** #if (CapSense_1_ENABLE == CapSense_1_SELF_TEST_EN)
  50:Generated_Source\PSoC4/CapSense_1_Structure.c ****     #include "CapSense_1_SelfTest.h"
  51:Generated_Source\PSoC4/CapSense_1_Structure.c **** #endif
  52:Generated_Source\PSoC4/CapSense_1_Structure.c **** 
  53:Generated_Source\PSoC4/CapSense_1_Structure.c **** #if (CapSense_1_ENABLE == CapSense_1_CENTROID_5X5_CSD_EN)
  54:Generated_Source\PSoC4/CapSense_1_Structure.c ****     #include "CapSense_1_AdvancedCentroid_LL.h"
  55:Generated_Source\PSoC4/CapSense_1_Structure.c **** #endif
  56:Generated_Source\PSoC4/CapSense_1_Structure.c **** 
  57:Generated_Source\PSoC4/CapSense_1_Structure.c **** #if (CapSense_1_ENABLE == CapSense_1_GES_GLOBAL_EN)
  58:Generated_Source\PSoC4/CapSense_1_Structure.c ****     #include "CapSense_1_Gesture.h"
  59:Generated_Source\PSoC4/CapSense_1_Structure.c **** #endif /* (CapSense_1_ENABLE == CapSense_1_GES_GLOBAL_EN) */
  60:Generated_Source\PSoC4/CapSense_1_Structure.c **** 
  61:Generated_Source\PSoC4/CapSense_1_Structure.c **** /*******************************************************************************
  62:Generated_Source\PSoC4/CapSense_1_Structure.c **** * Defines the RAM Data Structure variables and their init data in flash
  63:Generated_Source\PSoC4/CapSense_1_Structure.c **** *******************************************************************************/
  64:Generated_Source\PSoC4/CapSense_1_Structure.c **** /**
  65:Generated_Source\PSoC4/CapSense_1_Structure.c **** * \cond SECTION_GLOBAL_VARIABLES
  66:Generated_Source\PSoC4/CapSense_1_Structure.c **** * \addtogroup group_global_variables
  67:Generated_Source\PSoC4/CapSense_1_Structure.c **** * \{
  68:Generated_Source\PSoC4/CapSense_1_Structure.c **** */
  69:Generated_Source\PSoC4/CapSense_1_Structure.c **** 
  70:Generated_Source\PSoC4/CapSense_1_Structure.c **** /**
  71:Generated_Source\PSoC4/CapSense_1_Structure.c **** * The variable that contains the CapSense_1 configuration, settings and
  72:Generated_Source\PSoC4/CapSense_1_Structure.c **** * scanning results. CapSense_1_dsRam represents RAM Data Structure.
  73:Generated_Source\PSoC4/CapSense_1_Structure.c **** */
  74:Generated_Source\PSoC4/CapSense_1_Structure.c **** CapSense_1_RAM_STRUCT CapSense_1_dsRam;
  75:Generated_Source\PSoC4/CapSense_1_Structure.c **** /** \}
  76:Generated_Source\PSoC4/CapSense_1_Structure.c **** * \endcond */
  77:Generated_Source\PSoC4/CapSense_1_Structure.c **** 
  78:Generated_Source\PSoC4/CapSense_1_Structure.c **** /*******************************************************************************
  79:Generated_Source\PSoC4/CapSense_1_Structure.c **** * Declares Widget's De-bounce Counters
  80:Generated_Source\PSoC4/CapSense_1_Structure.c **** *******************************************************************************/
  81:Generated_Source\PSoC4/CapSense_1_Structure.c **** static uint8 CapSense_1_debounceLinearSlider0[1u];
  82:Generated_Source\PSoC4/CapSense_1_Structure.c **** 
  83:Generated_Source\PSoC4/CapSense_1_Structure.c **** 
  84:Generated_Source\PSoC4/CapSense_1_Structure.c **** /***************************************************************************//**
  85:Generated_Source\PSoC4/CapSense_1_Structure.c **** * Declares Noise Envelope data structures
  86:Generated_Source\PSoC4/CapSense_1_Structure.c **** *******************************************************************************/
  87:Generated_Source\PSoC4/CapSense_1_Structure.c **** static SMARTSENSE_CSD_NOISE_ENVELOPE_STRUCT CapSense_1_noiseEnvlpLinearSlider0[CapSense_1_LINEARSLI
  88:Generated_Source\PSoC4/CapSense_1_Structure.c **** 
ARM GAS  C:\Users\SHOZO\AppData\Local\Temp\ccih3v6m.s 			page 3


  89:Generated_Source\PSoC4/CapSense_1_Structure.c **** /*******************************************************************************
  90:Generated_Source\PSoC4/CapSense_1_Structure.c **** * Defines and initializes the Flash Data Structure
  91:Generated_Source\PSoC4/CapSense_1_Structure.c **** *******************************************************************************/
  92:Generated_Source\PSoC4/CapSense_1_Structure.c **** 
  93:Generated_Source\PSoC4/CapSense_1_Structure.c **** 
  94:Generated_Source\PSoC4/CapSense_1_Structure.c **** 
  95:Generated_Source\PSoC4/CapSense_1_Structure.c **** /**
  96:Generated_Source\PSoC4/CapSense_1_Structure.c **** * \cond SECTION_API_CONSTANTS
  97:Generated_Source\PSoC4/CapSense_1_Structure.c **** * \addtogroup group_api_constants
  98:Generated_Source\PSoC4/CapSense_1_Structure.c **** * \{
  99:Generated_Source\PSoC4/CapSense_1_Structure.c **** */
 100:Generated_Source\PSoC4/CapSense_1_Structure.c **** /**
 101:Generated_Source\PSoC4/CapSense_1_Structure.c **** * Constant for the FLASH Data Structure
 102:Generated_Source\PSoC4/CapSense_1_Structure.c **** */
 103:Generated_Source\PSoC4/CapSense_1_Structure.c **** const CapSense_1_FLASH_STRUCT CapSense_1_dsFlash =
 104:Generated_Source\PSoC4/CapSense_1_Structure.c **** {
 105:Generated_Source\PSoC4/CapSense_1_Structure.c ****     /* Flash Widget Initialization Data */
 106:Generated_Source\PSoC4/CapSense_1_Structure.c ****     {
 107:Generated_Source\PSoC4/CapSense_1_Structure.c ****         { /* LinearSlider0 */
 108:Generated_Source\PSoC4/CapSense_1_Structure.c ****             &CapSense_1_ioList[0u],
 109:Generated_Source\PSoC4/CapSense_1_Structure.c ****             (void *)&CapSense_1_dsRam.wdgtList.linearslider0,
 110:Generated_Source\PSoC4/CapSense_1_Structure.c ****             CapSense_1_dsRam.snsList.linearslider0,
 111:Generated_Source\PSoC4/CapSense_1_Structure.c ****             (void *)0u,
 112:Generated_Source\PSoC4/CapSense_1_Structure.c ****             CapSense_1_debounceLinearSlider0,
 113:Generated_Source\PSoC4/CapSense_1_Structure.c ****             CapSense_1_LINEARSLIDER0_STATIC_CONFIG,
 114:Generated_Source\PSoC4/CapSense_1_Structure.c ****             CapSense_1_LINEARSLIDER0_NUM_SENSORS,
 115:Generated_Source\PSoC4/CapSense_1_Structure.c ****             (uint8)CapSense_1_WD_LINEAR_SLIDER_E,
 116:Generated_Source\PSoC4/CapSense_1_Structure.c ****             CapSense_1_LINEARSLIDER0_NUM_SENSORS,
 117:Generated_Source\PSoC4/CapSense_1_Structure.c ****             CapSense_1_LINEARSLIDER0_X_RESOLUTION,
 118:Generated_Source\PSoC4/CapSense_1_Structure.c ****             CapSense_1_LINEARSLIDER0_X_CENT_MULT,
 119:Generated_Source\PSoC4/CapSense_1_Structure.c ****             CapSense_1_noiseEnvlpLinearSlider0,
 120:Generated_Source\PSoC4/CapSense_1_Structure.c ****             CapSense_1_LINEARSLIDER0_IIR_FILTER_COEFF,
 121:Generated_Source\PSoC4/CapSense_1_Structure.c ****         },
 122:Generated_Source\PSoC4/CapSense_1_Structure.c ****     },
 123:Generated_Source\PSoC4/CapSense_1_Structure.c **** };
 124:Generated_Source\PSoC4/CapSense_1_Structure.c **** 
 125:Generated_Source\PSoC4/CapSense_1_Structure.c **** /**
 126:Generated_Source\PSoC4/CapSense_1_Structure.c **** * The array of the pointers to the electrode specific register.
 127:Generated_Source\PSoC4/CapSense_1_Structure.c **** */
 128:Generated_Source\PSoC4/CapSense_1_Structure.c **** const CapSense_1_FLASH_IO_STRUCT CapSense_1_ioList[CapSense_1_TOTAL_ELECTRODES] =
 129:Generated_Source\PSoC4/CapSense_1_Structure.c **** {
 130:Generated_Source\PSoC4/CapSense_1_Structure.c ****     { /* 0: LinearSlider0_Sns0 */
 131:Generated_Source\PSoC4/CapSense_1_Structure.c ****         (reg32 *)CapSense_1_Sns__0__HSIOM,
 132:Generated_Source\PSoC4/CapSense_1_Structure.c ****         (reg32 *)CapSense_1_Sns__0__PC,
 133:Generated_Source\PSoC4/CapSense_1_Structure.c ****         (reg32 *)CapSense_1_Sns__0__DR,
 134:Generated_Source\PSoC4/CapSense_1_Structure.c ****         (reg32 *)CapSense_1_Sns__0__PS,
 135:Generated_Source\PSoC4/CapSense_1_Structure.c ****         CapSense_1_Sns__0__HSIOM_MASK,
 136:Generated_Source\PSoC4/CapSense_1_Structure.c ****         CapSense_1_Sns__0__MASK,
 137:Generated_Source\PSoC4/CapSense_1_Structure.c ****         CapSense_1_Sns__0__HSIOM_SHIFT,
 138:Generated_Source\PSoC4/CapSense_1_Structure.c ****         (uint8)CapSense_1_Sns__0__SHIFT,
 139:Generated_Source\PSoC4/CapSense_1_Structure.c ****         (uint8)CapSense_1_Sns__0__SHIFT * 3u,
 140:Generated_Source\PSoC4/CapSense_1_Structure.c ****     },
 141:Generated_Source\PSoC4/CapSense_1_Structure.c ****     { /* 1: LinearSlider0_Sns1 */
 142:Generated_Source\PSoC4/CapSense_1_Structure.c ****         (reg32 *)CapSense_1_Sns__1__HSIOM,
 143:Generated_Source\PSoC4/CapSense_1_Structure.c ****         (reg32 *)CapSense_1_Sns__1__PC,
 144:Generated_Source\PSoC4/CapSense_1_Structure.c ****         (reg32 *)CapSense_1_Sns__1__DR,
 145:Generated_Source\PSoC4/CapSense_1_Structure.c ****         (reg32 *)CapSense_1_Sns__1__PS,
ARM GAS  C:\Users\SHOZO\AppData\Local\Temp\ccih3v6m.s 			page 4


 146:Generated_Source\PSoC4/CapSense_1_Structure.c ****         CapSense_1_Sns__1__HSIOM_MASK,
 147:Generated_Source\PSoC4/CapSense_1_Structure.c ****         CapSense_1_Sns__1__MASK,
 148:Generated_Source\PSoC4/CapSense_1_Structure.c ****         CapSense_1_Sns__1__HSIOM_SHIFT,
 149:Generated_Source\PSoC4/CapSense_1_Structure.c ****         (uint8)CapSense_1_Sns__1__SHIFT,
 150:Generated_Source\PSoC4/CapSense_1_Structure.c ****         (uint8)CapSense_1_Sns__1__SHIFT * 3u,
 151:Generated_Source\PSoC4/CapSense_1_Structure.c ****     },
 152:Generated_Source\PSoC4/CapSense_1_Structure.c ****     { /* 2: LinearSlider0_Sns2 */
 153:Generated_Source\PSoC4/CapSense_1_Structure.c ****         (reg32 *)CapSense_1_Sns__2__HSIOM,
 154:Generated_Source\PSoC4/CapSense_1_Structure.c ****         (reg32 *)CapSense_1_Sns__2__PC,
 155:Generated_Source\PSoC4/CapSense_1_Structure.c ****         (reg32 *)CapSense_1_Sns__2__DR,
 156:Generated_Source\PSoC4/CapSense_1_Structure.c ****         (reg32 *)CapSense_1_Sns__2__PS,
 157:Generated_Source\PSoC4/CapSense_1_Structure.c ****         CapSense_1_Sns__2__HSIOM_MASK,
 158:Generated_Source\PSoC4/CapSense_1_Structure.c ****         CapSense_1_Sns__2__MASK,
 159:Generated_Source\PSoC4/CapSense_1_Structure.c ****         CapSense_1_Sns__2__HSIOM_SHIFT,
 160:Generated_Source\PSoC4/CapSense_1_Structure.c ****         (uint8)CapSense_1_Sns__2__SHIFT,
 161:Generated_Source\PSoC4/CapSense_1_Structure.c ****         (uint8)CapSense_1_Sns__2__SHIFT * 3u,
 162:Generated_Source\PSoC4/CapSense_1_Structure.c ****     },
 163:Generated_Source\PSoC4/CapSense_1_Structure.c ****     { /* 3: LinearSlider0_Sns3 */
 164:Generated_Source\PSoC4/CapSense_1_Structure.c ****         (reg32 *)CapSense_1_Sns__3__HSIOM,
 165:Generated_Source\PSoC4/CapSense_1_Structure.c ****         (reg32 *)CapSense_1_Sns__3__PC,
 166:Generated_Source\PSoC4/CapSense_1_Structure.c ****         (reg32 *)CapSense_1_Sns__3__DR,
 167:Generated_Source\PSoC4/CapSense_1_Structure.c ****         (reg32 *)CapSense_1_Sns__3__PS,
 168:Generated_Source\PSoC4/CapSense_1_Structure.c ****         CapSense_1_Sns__3__HSIOM_MASK,
 169:Generated_Source\PSoC4/CapSense_1_Structure.c ****         CapSense_1_Sns__3__MASK,
 170:Generated_Source\PSoC4/CapSense_1_Structure.c ****         CapSense_1_Sns__3__HSIOM_SHIFT,
 171:Generated_Source\PSoC4/CapSense_1_Structure.c ****         (uint8)CapSense_1_Sns__3__SHIFT,
 172:Generated_Source\PSoC4/CapSense_1_Structure.c ****         (uint8)CapSense_1_Sns__3__SHIFT * 3u,
 173:Generated_Source\PSoC4/CapSense_1_Structure.c ****     },
 174:Generated_Source\PSoC4/CapSense_1_Structure.c ****     { /* 4: LinearSlider0_Sns4 */
 175:Generated_Source\PSoC4/CapSense_1_Structure.c ****         (reg32 *)CapSense_1_Sns__4__HSIOM,
 176:Generated_Source\PSoC4/CapSense_1_Structure.c ****         (reg32 *)CapSense_1_Sns__4__PC,
 177:Generated_Source\PSoC4/CapSense_1_Structure.c ****         (reg32 *)CapSense_1_Sns__4__DR,
 178:Generated_Source\PSoC4/CapSense_1_Structure.c ****         (reg32 *)CapSense_1_Sns__4__PS,
 179:Generated_Source\PSoC4/CapSense_1_Structure.c ****         CapSense_1_Sns__4__HSIOM_MASK,
 180:Generated_Source\PSoC4/CapSense_1_Structure.c ****         CapSense_1_Sns__4__MASK,
 181:Generated_Source\PSoC4/CapSense_1_Structure.c ****         CapSense_1_Sns__4__HSIOM_SHIFT,
 182:Generated_Source\PSoC4/CapSense_1_Structure.c ****         (uint8)CapSense_1_Sns__4__SHIFT,
 183:Generated_Source\PSoC4/CapSense_1_Structure.c ****         (uint8)CapSense_1_Sns__4__SHIFT * 3u,
 184:Generated_Source\PSoC4/CapSense_1_Structure.c ****     },
 185:Generated_Source\PSoC4/CapSense_1_Structure.c **** };
 186:Generated_Source\PSoC4/CapSense_1_Structure.c **** 
 187:Generated_Source\PSoC4/CapSense_1_Structure.c **** 
 188:Generated_Source\PSoC4/CapSense_1_Structure.c **** 
 189:Generated_Source\PSoC4/CapSense_1_Structure.c **** /** \}
 190:Generated_Source\PSoC4/CapSense_1_Structure.c **** * \endcond */
 191:Generated_Source\PSoC4/CapSense_1_Structure.c **** 
 192:Generated_Source\PSoC4/CapSense_1_Structure.c **** /* Initialization data for RAM widget list */
 193:Generated_Source\PSoC4/CapSense_1_Structure.c **** const CapSense_1_RAM_WD_LIST_STRUCT CapSense_1_ramWidgetInit =
 194:Generated_Source\PSoC4/CapSense_1_Structure.c **** {
 195:Generated_Source\PSoC4/CapSense_1_Structure.c ****     { /* LinearSlider0 */
 196:Generated_Source\PSoC4/CapSense_1_Structure.c ****         CapSense_1_LINEARSLIDER0_RESOLUTION,
 197:Generated_Source\PSoC4/CapSense_1_Structure.c ****         CapSense_1_LINEARSLIDER0_FINGER_TH,
 198:Generated_Source\PSoC4/CapSense_1_Structure.c ****         CapSense_1_LINEARSLIDER0_NOISE_TH,
 199:Generated_Source\PSoC4/CapSense_1_Structure.c ****         CapSense_1_LINEARSLIDER0_NNOISE_TH,
 200:Generated_Source\PSoC4/CapSense_1_Structure.c ****         CapSense_1_LINEARSLIDER0_HYSTERESIS,
 201:Generated_Source\PSoC4/CapSense_1_Structure.c ****         CapSense_1_LINEARSLIDER0_ON_DEBOUNCE,
 202:Generated_Source\PSoC4/CapSense_1_Structure.c ****         CapSense_1_LINEARSLIDER0_LOW_BSLN_RST,
ARM GAS  C:\Users\SHOZO\AppData\Local\Temp\ccih3v6m.s 			page 5


 203:Generated_Source\PSoC4/CapSense_1_Structure.c ****         {
 204:Generated_Source\PSoC4/CapSense_1_Structure.c ****             CapSense_1_LINEARSLIDER0_IDAC_MOD0,
 205:Generated_Source\PSoC4/CapSense_1_Structure.c ****         },
 206:Generated_Source\PSoC4/CapSense_1_Structure.c ****         CapSense_1_LINEARSLIDER0_IDAC_GAIN_INDEX,
 207:Generated_Source\PSoC4/CapSense_1_Structure.c ****         CapSense_1_LINEARSLIDER0_SNS_CLK,
 208:Generated_Source\PSoC4/CapSense_1_Structure.c ****         CapSense_1_LINEARSLIDER0_SNS_CLK_SOURCE,
 209:Generated_Source\PSoC4/CapSense_1_Structure.c ****         CapSense_1_LINEARSLIDER0_FINGER_CAP,
 210:Generated_Source\PSoC4/CapSense_1_Structure.c ****         CapSense_1_LINEARSLIDER0_SIGPFC,
 211:Generated_Source\PSoC4/CapSense_1_Structure.c ****         {
 212:Generated_Source\PSoC4/CapSense_1_Structure.c ****             CapSense_1_LINEARSLIDER0_POSITION,
 213:Generated_Source\PSoC4/CapSense_1_Structure.c ****         },
 214:Generated_Source\PSoC4/CapSense_1_Structure.c ****     },
 215:Generated_Source\PSoC4/CapSense_1_Structure.c **** };
 216:Generated_Source\PSoC4/CapSense_1_Structure.c **** 
 217:Generated_Source\PSoC4/CapSense_1_Structure.c **** 
 218:Generated_Source\PSoC4/CapSense_1_Structure.c **** /* IDAC Initialization Data */
 219:Generated_Source\PSoC4/CapSense_1_Structure.c **** const uint8 CapSense_1_ramIdacInit[CapSense_1_TOTAL_SENSORS] =
 220:Generated_Source\PSoC4/CapSense_1_Structure.c **** {
 221:Generated_Source\PSoC4/CapSense_1_Structure.c ****     /* LinearSlider0 */
 222:Generated_Source\PSoC4/CapSense_1_Structure.c ****     CapSense_1_LINEARSLIDER0_SNS0_IDAC_COMP0,
 223:Generated_Source\PSoC4/CapSense_1_Structure.c ****     CapSense_1_LINEARSLIDER0_SNS1_IDAC_COMP0,
 224:Generated_Source\PSoC4/CapSense_1_Structure.c ****     CapSense_1_LINEARSLIDER0_SNS2_IDAC_COMP0,
 225:Generated_Source\PSoC4/CapSense_1_Structure.c ****     CapSense_1_LINEARSLIDER0_SNS3_IDAC_COMP0,
 226:Generated_Source\PSoC4/CapSense_1_Structure.c ****     CapSense_1_LINEARSLIDER0_SNS4_IDAC_COMP0,
 227:Generated_Source\PSoC4/CapSense_1_Structure.c **** };
 228:Generated_Source\PSoC4/CapSense_1_Structure.c **** 
 229:Generated_Source\PSoC4/CapSense_1_Structure.c **** 
 230:Generated_Source\PSoC4/CapSense_1_Structure.c **** 
 231:Generated_Source\PSoC4/CapSense_1_Structure.c **** 
 232:Generated_Source\PSoC4/CapSense_1_Structure.c **** 
 233:Generated_Source\PSoC4/CapSense_1_Structure.c **** /*******************************************************************************
 234:Generated_Source\PSoC4/CapSense_1_Structure.c **** * Defines internal data types and statements
 235:Generated_Source\PSoC4/CapSense_1_Structure.c **** *******************************************************************************/
 236:Generated_Source\PSoC4/CapSense_1_Structure.c **** #define PARAM_TYPE_OFFSET       (30u)
 237:Generated_Source\PSoC4/CapSense_1_Structure.c **** #define PARAM_TYPE_MASK         (3Lu << PARAM_TYPE_OFFSET)
 238:Generated_Source\PSoC4/CapSense_1_Structure.c **** #define PARAM_RWBIT_OFFSET      (29u)
 239:Generated_Source\PSoC4/CapSense_1_Structure.c **** #define PARAM_RWBIT_MASK        (1Lu << PARAM_RWBIT_OFFSET)
 240:Generated_Source\PSoC4/CapSense_1_Structure.c **** #define PARAM_FBIT_OFFSET       (28u)
 241:Generated_Source\PSoC4/CapSense_1_Structure.c **** #define PARAM_FBIT_MASK         (1Lu << PARAM_FBIT_OFFSET)
 242:Generated_Source\PSoC4/CapSense_1_Structure.c **** #define PARAM_UBIT_OFFSET       (23u)
 243:Generated_Source\PSoC4/CapSense_1_Structure.c **** #define PARAM_UBIT_MASK         (1Lu << PARAM_UBIT_OFFSET)
 244:Generated_Source\PSoC4/CapSense_1_Structure.c **** #define PARAM_WDID_OFFSET       (16u)
 245:Generated_Source\PSoC4/CapSense_1_Structure.c **** #define PARAM_WDID_MASK         (0x7FLu << PARAM_WDID_OFFSET)
 246:Generated_Source\PSoC4/CapSense_1_Structure.c **** #define PARAM_CRC_OFFSET        (24u)
 247:Generated_Source\PSoC4/CapSense_1_Structure.c **** #define PARAM_CRC_MASK          (0x0FLu << PARAM_CRC_OFFSET)
 248:Generated_Source\PSoC4/CapSense_1_Structure.c **** 
 249:Generated_Source\PSoC4/CapSense_1_Structure.c **** /* Defines align masks for uint16 and uint32 */
 250:Generated_Source\PSoC4/CapSense_1_Structure.c **** #define UINT16_ALIGN_MASK       (1Lu)
 251:Generated_Source\PSoC4/CapSense_1_Structure.c **** #define UINT32_ALIGN_MASK       (3Lu)
 252:Generated_Source\PSoC4/CapSense_1_Structure.c **** 
 253:Generated_Source\PSoC4/CapSense_1_Structure.c **** /* Defines supported parameter types */
 254:Generated_Source\PSoC4/CapSense_1_Structure.c **** #define DS_PARAM_TYPE_UINT8     (0x01u)
 255:Generated_Source\PSoC4/CapSense_1_Structure.c **** #define DS_PARAM_TYPE_UINT16    (0x02u)
 256:Generated_Source\PSoC4/CapSense_1_Structure.c **** #define DS_PARAM_TYPE_UINT32    (0x03u)
 257:Generated_Source\PSoC4/CapSense_1_Structure.c **** 
 258:Generated_Source\PSoC4/CapSense_1_Structure.c **** 
 259:Generated_Source\PSoC4/CapSense_1_Structure.c **** /* Defines PARAM_ID structure */
ARM GAS  C:\Users\SHOZO\AppData\Local\Temp\ccih3v6m.s 			page 6


 260:Generated_Source\PSoC4/CapSense_1_Structure.c **** typedef struct
 261:Generated_Source\PSoC4/CapSense_1_Structure.c **** {
 262:Generated_Source\PSoC4/CapSense_1_Structure.c ****     uint16 offset;      /* parameter offset */
 263:Generated_Source\PSoC4/CapSense_1_Structure.c ****     uint8  widgetId;    /* widget Id parameter belongs to */
 264:Generated_Source\PSoC4/CapSense_1_Structure.c ****     uint8  affectsCrc;  /* parameter affects widget CRC */
 265:Generated_Source\PSoC4/CapSense_1_Structure.c ****     uint8  crc;         /* parameter CRC */
 266:Generated_Source\PSoC4/CapSense_1_Structure.c ****     uint8  flash;       /* parameter located in FLASH flag */
 267:Generated_Source\PSoC4/CapSense_1_Structure.c ****     uint8  rw;          /* parameter is read/write flag */
 268:Generated_Source\PSoC4/CapSense_1_Structure.c ****     uint8  type;        /* parameter type: uint8/uint16/uint32 */
 269:Generated_Source\PSoC4/CapSense_1_Structure.c **** } PARAM_ID_STRUCT;
 270:Generated_Source\PSoC4/CapSense_1_Structure.c **** 
 271:Generated_Source\PSoC4/CapSense_1_Structure.c **** 
 272:Generated_Source\PSoC4/CapSense_1_Structure.c **** /*******************************************************************************
 273:Generated_Source\PSoC4/CapSense_1_Structure.c **** * Static Function Prototypes
 274:Generated_Source\PSoC4/CapSense_1_Structure.c **** *******************************************************************************/
 275:Generated_Source\PSoC4/CapSense_1_Structure.c **** /**
 276:Generated_Source\PSoC4/CapSense_1_Structure.c **** * \cond SECTION_C_INTERNAL
 277:Generated_Source\PSoC4/CapSense_1_Structure.c **** * \addtogroup group_c_internal
 278:Generated_Source\PSoC4/CapSense_1_Structure.c **** * \{
 279:Generated_Source\PSoC4/CapSense_1_Structure.c **** */
 280:Generated_Source\PSoC4/CapSense_1_Structure.c **** 
 281:Generated_Source\PSoC4/CapSense_1_Structure.c **** 
 282:Generated_Source\PSoC4/CapSense_1_Structure.c **** 
 283:Generated_Source\PSoC4/CapSense_1_Structure.c **** static cystatus DsParseParamId(uint32 paramId, PARAM_ID_STRUCT *pData);
 284:Generated_Source\PSoC4/CapSense_1_Structure.c **** 
 285:Generated_Source\PSoC4/CapSense_1_Structure.c **** /** \}
 286:Generated_Source\PSoC4/CapSense_1_Structure.c **** * \endcond */
 287:Generated_Source\PSoC4/CapSense_1_Structure.c **** 
 288:Generated_Source\PSoC4/CapSense_1_Structure.c **** 
 289:Generated_Source\PSoC4/CapSense_1_Structure.c **** /*******************************************************************************
 290:Generated_Source\PSoC4/CapSense_1_Structure.c **** * Function Name: CapSense_1_DsInitialize
 291:Generated_Source\PSoC4/CapSense_1_Structure.c **** ****************************************************************************//**
 292:Generated_Source\PSoC4/CapSense_1_Structure.c **** *
 293:Generated_Source\PSoC4/CapSense_1_Structure.c **** * \brief
 294:Generated_Source\PSoC4/CapSense_1_Structure.c **** *   This function initializes the Data Structure storage.
 295:Generated_Source\PSoC4/CapSense_1_Structure.c **** *
 296:Generated_Source\PSoC4/CapSense_1_Structure.c **** * \details
 297:Generated_Source\PSoC4/CapSense_1_Structure.c **** *   This function copies the default widget configuration parameters
 298:Generated_Source\PSoC4/CapSense_1_Structure.c **** *   from the Flash storage into the RAM Data Structure.
 299:Generated_Source\PSoC4/CapSense_1_Structure.c **** *
 300:Generated_Source\PSoC4/CapSense_1_Structure.c **** *******************************************************************************/
 301:Generated_Source\PSoC4/CapSense_1_Structure.c **** void CapSense_1_DsInitialize(void)
 302:Generated_Source\PSoC4/CapSense_1_Structure.c **** {
 303:Generated_Source\PSoC4/CapSense_1_Structure.c ****     #if ((CapSense_1_ENABLE == CapSense_1_CSX_EN) || \
 304:Generated_Source\PSoC4/CapSense_1_Structure.c ****          (CapSense_1_ENABLE == CapSense_1_CSD_IDAC_COMP_EN) || \
 305:Generated_Source\PSoC4/CapSense_1_Structure.c ****         ((CapSense_1_ENABLE == CapSense_1_CSX_EN) && \
 306:Generated_Source\PSoC4/CapSense_1_Structure.c ****          (CapSense_1_ENABLE == CapSense_1_CSX_SKIP_OVSMPL_SPECIFIC_NODES)))
 307:Generated_Source\PSoC4/CapSense_1_Structure.c ****         uint32 snsId;
 308:Generated_Source\PSoC4/CapSense_1_Structure.c ****         uint32 wdgtId;
 309:Generated_Source\PSoC4/CapSense_1_Structure.c ****         CapSense_1_RAM_SNS_STRUCT * ptrSnsTmp;
 310:Generated_Source\PSoC4/CapSense_1_Structure.c ****         CapSense_1_FLASH_WD_STRUCT const * ptrFlashWdgt;
 311:Generated_Source\PSoC4/CapSense_1_Structure.c ****     #endif
 312:Generated_Source\PSoC4/CapSense_1_Structure.c **** 
 313:Generated_Source\PSoC4/CapSense_1_Structure.c ****     #if ((CapSense_1_ENABLE == CapSense_1_CSX_EN) && \
 314:Generated_Source\PSoC4/CapSense_1_Structure.c ****          (CapSense_1_ENABLE == CapSense_1_CSX_SKIP_OVSMPL_SPECIFIC_NODES))
 315:Generated_Source\PSoC4/CapSense_1_Structure.c ****         uint16 subConvNumber;
 316:Generated_Source\PSoC4/CapSense_1_Structure.c ****     #endif
ARM GAS  C:\Users\SHOZO\AppData\Local\Temp\ccih3v6m.s 			page 7


 317:Generated_Source\PSoC4/CapSense_1_Structure.c **** 
 318:Generated_Source\PSoC4/CapSense_1_Structure.c ****     #if ((0u != CapSense_1_CSX_EN) || (0 != CapSense_1_CSD_IDAC_COMP_EN))
 319:Generated_Source\PSoC4/CapSense_1_Structure.c ****         uint8 const * ptrIdacInit = CapSense_1_ramIdacInit;
 320:Generated_Source\PSoC4/CapSense_1_Structure.c ****     #endif
 321:Generated_Source\PSoC4/CapSense_1_Structure.c **** 
 322:Generated_Source\PSoC4/CapSense_1_Structure.c ****     /* Reset RAM data structure content */
 323:Generated_Source\PSoC4/CapSense_1_Structure.c ****     (void)memset(&CapSense_1_dsRam, 0, sizeof(CapSense_1_dsRam));
 324:Generated_Source\PSoC4/CapSense_1_Structure.c **** 
 325:Generated_Source\PSoC4/CapSense_1_Structure.c ****     /* Initialize configId, deviceId and hwClock registers */
 326:Generated_Source\PSoC4/CapSense_1_Structure.c ****     CapSense_1_dsRam.configId = CapSense_1_CONFIG_ID;
 327:Generated_Source\PSoC4/CapSense_1_Structure.c ****     CapSense_1_dsRam.deviceId = CapSense_1_DEVICE_ID;
 328:Generated_Source\PSoC4/CapSense_1_Structure.c ****     CapSense_1_dsRam.hwClock = CapSense_1_HW_CLOCK;
 329:Generated_Source\PSoC4/CapSense_1_Structure.c **** 
 330:Generated_Source\PSoC4/CapSense_1_Structure.c ****     /* Initialize global RAM data */
 331:Generated_Source\PSoC4/CapSense_1_Structure.c ****     CapSense_1_dsRam.csd0Config = CapSense_1_CSD0_CONFIG;
 332:Generated_Source\PSoC4/CapSense_1_Structure.c **** 
 333:Generated_Source\PSoC4/CapSense_1_Structure.c ****     CapSense_1_dsRam.scanCurrentISC = CapSense_1_SNS_CONNECTION_UNDEFINED;
 334:Generated_Source\PSoC4/CapSense_1_Structure.c ****     #if (0u != CapSense_1_TOTAL_CSD_WIDGETS)
 335:Generated_Source\PSoC4/CapSense_1_Structure.c ****         CapSense_1_dsRam.modCsdClk = CapSense_1_CSD_SCANSPEED_DIVIDER;
 336:Generated_Source\PSoC4/CapSense_1_Structure.c ****         CapSense_1_dsRam.scanCsdISC = CapSense_1_CSD_INACTIVE_SNS_CONNECTION;
 337:Generated_Source\PSoC4/CapSense_1_Structure.c **** 
 338:Generated_Source\PSoC4/CapSense_1_Structure.c ****         #if (0u != CapSense_1_CSD_COMMON_SNS_CLK_EN)
 339:Generated_Source\PSoC4/CapSense_1_Structure.c ****             CapSense_1_dsRam.snsCsdClk = CapSense_1_CSD_SNS_CLK_DIVIDER;
 340:Generated_Source\PSoC4/CapSense_1_Structure.c ****         #endif /* #if (0u != CapSense_1_CSD_COMMON_SNS_CLK_EN) */
 341:Generated_Source\PSoC4/CapSense_1_Structure.c ****     #endif /* #if (0u != CapSense_1_TOTAL_CSD_WIDGETS) */
 342:Generated_Source\PSoC4/CapSense_1_Structure.c **** 
 343:Generated_Source\PSoC4/CapSense_1_Structure.c ****     #if (CapSense_1_ENABLE == CapSense_1_CSX_EN)
 344:Generated_Source\PSoC4/CapSense_1_Structure.c ****         CapSense_1_dsRam.modCsxClk = CapSense_1_CSX_SCANSPEED_DIVIDER;
 345:Generated_Source\PSoC4/CapSense_1_Structure.c ****         CapSense_1_dsRam.scanCsxISC = CapSense_1_CSX_INACTIVE_SNS_CONNECTION;
 346:Generated_Source\PSoC4/CapSense_1_Structure.c **** 
 347:Generated_Source\PSoC4/CapSense_1_Structure.c ****         #if (0u != CapSense_1_CSX_COMMON_TX_CLK_EN)
 348:Generated_Source\PSoC4/CapSense_1_Structure.c ****             CapSense_1_dsRam.snsCsxClk = CapSense_1_CSX_TX_CLK_DIVIDER;
 349:Generated_Source\PSoC4/CapSense_1_Structure.c ****         #endif /* #if (0u != CapSense_1_CSX_COMMON_TX_CLK_EN) */
 350:Generated_Source\PSoC4/CapSense_1_Structure.c ****     #endif /* #if (CapSense_1_ENABLE == CapSense_1_CSX_EN) */
 351:Generated_Source\PSoC4/CapSense_1_Structure.c **** 
 352:Generated_Source\PSoC4/CapSense_1_Structure.c ****     #if (CapSense_1_ENABLE == CapSense_1_ISX_EN)
 353:Generated_Source\PSoC4/CapSense_1_Structure.c ****         CapSense_1_dsRam.modIsxClk = CapSense_1_ISX_SCANSPEED_DIVIDER;
 354:Generated_Source\PSoC4/CapSense_1_Structure.c ****     #endif /* #if (0u != CapSense_1_ISX_EN) */
 355:Generated_Source\PSoC4/CapSense_1_Structure.c **** 
 356:Generated_Source\PSoC4/CapSense_1_Structure.c ****     #if (0u != CapSense_1_SELF_TEST_EN)
 357:Generated_Source\PSoC4/CapSense_1_Structure.c **** 
 358:Generated_Source\PSoC4/CapSense_1_Structure.c ****         CapSense_1_dsRam.glbCrc = CapSense_1_GLB_CRC;
 359:Generated_Source\PSoC4/CapSense_1_Structure.c ****         CapSense_1_dsRam.selfTestConfig.fineInitTime = (uint8)CapSense_1_TST_FINE_INIT_TIME;
 360:Generated_Source\PSoC4/CapSense_1_Structure.c ****         CapSense_1_dsRam.selfTestConfig.startupDelay = CapSense_1_TST_ANALOG_STARTUP_DELAY_US;
 361:Generated_Source\PSoC4/CapSense_1_Structure.c **** 
 362:Generated_Source\PSoC4/CapSense_1_Structure.c ****         #if (0u != CapSense_1_TST_SNS_SHORT_EN)
 363:Generated_Source\PSoC4/CapSense_1_Structure.c ****             CapSense_1_dsRam.selfTestConfig.snsShortTimeUs = CapSense_1_TST_SNS_SHORT_TIME;
 364:Generated_Source\PSoC4/CapSense_1_Structure.c ****         #endif
 365:Generated_Source\PSoC4/CapSense_1_Structure.c **** 
 366:Generated_Source\PSoC4/CapSense_1_Structure.c ****         #if ((0u != CapSense_1_TST_SNS_CAP_EN) ||\
 367:Generated_Source\PSoC4/CapSense_1_Structure.c ****              (0u != CapSense_1_TST_SH_CAP_EN))
 368:Generated_Source\PSoC4/CapSense_1_Structure.c ****             CapSense_1_dsRam.selfTestConfig.snsCapSnsClkDivider = CapSense_1_TST_SNS_CAP_SNS_CLK_DI
 369:Generated_Source\PSoC4/CapSense_1_Structure.c ****             CapSense_1_dsRam.selfTestConfig.snsCapSnsClkHz = CapSense_1_TST_SNS_CAP_SNS_CLK_HZ;
 370:Generated_Source\PSoC4/CapSense_1_Structure.c ****             CapSense_1_dsRam.selfTestConfig.snsCapResolution = CapSense_1_TST_SNS_CAP_RESOLUTION;
 371:Generated_Source\PSoC4/CapSense_1_Structure.c ****             CapSense_1_dsRam.selfTestConfig.snsCapVrefGain = CapSense_1_TST_SNS_CAP_VREF_GAIN ;
 372:Generated_Source\PSoC4/CapSense_1_Structure.c ****             CapSense_1_dsRam.selfTestConfig.snsCapVrefVoltage = CapSense_1_TST_SNS_CAP_VREF_MV;
 373:Generated_Source\PSoC4/CapSense_1_Structure.c ****             CapSense_1_dsRam.selfTestConfig.snsCapModClkDivider = CapSense_1_TST_MOD_CLK_DIVIDER ;
ARM GAS  C:\Users\SHOZO\AppData\Local\Temp\ccih3v6m.s 			page 8


 374:Generated_Source\PSoC4/CapSense_1_Structure.c ****             CapSense_1_dsRam.selfTestConfig.snsCapModClkKHz = CapSense_1_TST_MOD_CLK_KHZ ;
 375:Generated_Source\PSoC4/CapSense_1_Structure.c ****         #endif /* ((0u != CapSense_1_TST_SNS_CAP_EN) ||
 376:Generated_Source\PSoC4/CapSense_1_Structure.c ****                    (0u != CapSense_1_TST_SH_CAP_EN)) */
 377:Generated_Source\PSoC4/CapSense_1_Structure.c **** 
 378:Generated_Source\PSoC4/CapSense_1_Structure.c ****         #if (0u != CapSense_1_TST_SNS_CAP_EN)
 379:Generated_Source\PSoC4/CapSense_1_Structure.c ****             #if (0u != CapSense_1_CSD_EN)
 380:Generated_Source\PSoC4/CapSense_1_Structure.c ****                 CapSense_1_dsRam.selfTestConfig.bistCsdSnsCapISC = CapSense_1_SNS_CAP_CSD_INACTIVE_
 381:Generated_Source\PSoC4/CapSense_1_Structure.c ****             #endif /* (0u != CapSense_1_CSD_EN) */
 382:Generated_Source\PSoC4/CapSense_1_Structure.c ****             #if (0u != CapSense_1_CSX_EN)
 383:Generated_Source\PSoC4/CapSense_1_Structure.c ****                 CapSense_1_dsRam.selfTestConfig.bistCsxSnsCapISC = CapSense_1_SNS_CAP_CSX_INACTIVE_
 384:Generated_Source\PSoC4/CapSense_1_Structure.c ****             #endif /* (0u != CapSense_1_CSX_EN) */
 385:Generated_Source\PSoC4/CapSense_1_Structure.c ****         #endif /* (0u != CapSense_1_TST_SNS_CAP_EN) */
 386:Generated_Source\PSoC4/CapSense_1_Structure.c **** 
 387:Generated_Source\PSoC4/CapSense_1_Structure.c ****         #if (0u != CapSense_1_TST_SH_CAP_EN)
 388:Generated_Source\PSoC4/CapSense_1_Structure.c ****             #if ((0u != CapSense_1_CSD_EN) && (0u != CapSense_1_CSD_SHIELD_EN))
 389:Generated_Source\PSoC4/CapSense_1_Structure.c ****                 CapSense_1_dsRam.selfTestConfig.bistCsdShCapISC = CapSense_1_SHIELD_CAP_INACTIVE_CO
 390:Generated_Source\PSoC4/CapSense_1_Structure.c ****             #endif /* ((0u != CapSense_1_CSD_EN) && (0u != CapSense_1_CSD_SHIELD_EN)) */
 391:Generated_Source\PSoC4/CapSense_1_Structure.c ****         #endif /* (0u != CapSense_1_TST_SH_CAP_EN) */
 392:Generated_Source\PSoC4/CapSense_1_Structure.c **** 
 393:Generated_Source\PSoC4/CapSense_1_Structure.c ****         #if (0u != CapSense_1_TST_EXTERNAL_CAP_EN)
 394:Generated_Source\PSoC4/CapSense_1_Structure.c ****             CapSense_1_dsRam.selfTestConfig.extCapVrefGain = CapSense_1_TST_EXT_CAP_VREF_GAIN;
 395:Generated_Source\PSoC4/CapSense_1_Structure.c ****             CapSense_1_dsRam.selfTestConfig.extCapVrefVoltage = CapSense_1_TST_EXT_CAP_VREF_MV;
 396:Generated_Source\PSoC4/CapSense_1_Structure.c ****         #endif /* #if (0u != CapSense_1_TST_EXTERNAL_CAP_EN) */
 397:Generated_Source\PSoC4/CapSense_1_Structure.c **** 
 398:Generated_Source\PSoC4/CapSense_1_Structure.c ****         #if (0u != CapSense_1_TST_VDDA_EN)
 399:Generated_Source\PSoC4/CapSense_1_Structure.c ****             CapSense_1_dsRam.selfTestConfig.vddaResolution = CapSense_1_TST_VDDA_RESOLUTION;
 400:Generated_Source\PSoC4/CapSense_1_Structure.c ****             CapSense_1_dsRam.selfTestConfig.vddaModClkDivider = CapSense_1_TST_VDDA_MOD_CLK_DIVIDER
 401:Generated_Source\PSoC4/CapSense_1_Structure.c **** 
 402:Generated_Source\PSoC4/CapSense_1_Structure.c ****             CapSense_1_dsRam.selfTestConfig.vddaVrefGain = CapSense_1_TST_VDDA_VREF_GAIN;
 403:Generated_Source\PSoC4/CapSense_1_Structure.c ****             CapSense_1_dsRam.selfTestConfig.vddaVrefVoltage = CapSense_1_TST_VDDA_VREF_MV;
 404:Generated_Source\PSoC4/CapSense_1_Structure.c ****         #endif /* #if (0u != CapSense_1_TST_VDDA_EN) */
 405:Generated_Source\PSoC4/CapSense_1_Structure.c **** 
 406:Generated_Source\PSoC4/CapSense_1_Structure.c ****     #endif /* #if (0u != CapSense_1_SELF_TEST_EN) */
 407:Generated_Source\PSoC4/CapSense_1_Structure.c **** 
 408:Generated_Source\PSoC4/CapSense_1_Structure.c ****     /* Initialize RAM widget data */
 409:Generated_Source\PSoC4/CapSense_1_Structure.c ****     CapSense_1_dsRam.wdgtList = CapSense_1_ramWidgetInit;
 410:Generated_Source\PSoC4/CapSense_1_Structure.c **** 
 411:Generated_Source\PSoC4/CapSense_1_Structure.c ****     /* Initialize Gesture configuration structure */
 412:Generated_Source\PSoC4/CapSense_1_Structure.c ****     #if ((0u != CapSense_1_GES_GLOBAL_EN) || (0u != CapSense_1_BALLISTIC_MULTIPLIER_EN))
 413:Generated_Source\PSoC4/CapSense_1_Structure.c ****         CapSense_1_dsRam.timestampInterval = CapSense_1_TIMESTAMP_INTERVAL;
 414:Generated_Source\PSoC4/CapSense_1_Structure.c ****     #endif /* ((0u != CapSense_1_GES_GLOBAL_EN) || (0u != CapSense_1_BALLISTIC_MULTIPLIER_EN)) */
 415:Generated_Source\PSoC4/CapSense_1_Structure.c **** 
 416:Generated_Source\PSoC4/CapSense_1_Structure.c ****     #if (0u != CapSense_1_GES_GLOBAL_EN)
 417:Generated_Source\PSoC4/CapSense_1_Structure.c ****         CapSense_1_dsRam.gestures = CapSense_1_ramGesturesInit;
 418:Generated_Source\PSoC4/CapSense_1_Structure.c ****     #endif /* (0u != CapSense_1_GES_GLOBAL_EN) */
 419:Generated_Source\PSoC4/CapSense_1_Structure.c **** 
 420:Generated_Source\PSoC4/CapSense_1_Structure.c ****     #if (0u != CapSense_1_BALLISTIC_MULTIPLIER_EN)
 421:Generated_Source\PSoC4/CapSense_1_Structure.c ****         CapSense_1_dsRam.ballisticConfig = CapSense_1_ramBallisticInit;
 422:Generated_Source\PSoC4/CapSense_1_Structure.c ****     #endif /* (0u != CapSense_1_BALLISTIC_MULTIPLIER_EN) */
 423:Generated_Source\PSoC4/CapSense_1_Structure.c **** 
 424:Generated_Source\PSoC4/CapSense_1_Structure.c ****     #if (0u != CapSense_1_CSX_EN) || (0 != CapSense_1_CSD_IDAC_COMP_EN)
 425:Generated_Source\PSoC4/CapSense_1_Structure.c ****         /* Initialize IDAC data */
 426:Generated_Source\PSoC4/CapSense_1_Structure.c ****         ptrFlashWdgt = CapSense_1_dsFlash.wdgtArray;
 427:Generated_Source\PSoC4/CapSense_1_Structure.c **** 
 428:Generated_Source\PSoC4/CapSense_1_Structure.c ****         for (wdgtId = CapSense_1_TOTAL_WIDGETS; wdgtId-- > 0u; )
 429:Generated_Source\PSoC4/CapSense_1_Structure.c ****         {
 430:Generated_Source\PSoC4/CapSense_1_Structure.c ****             ptrSnsTmp = ptrFlashWdgt->ptr2SnsRam;
ARM GAS  C:\Users\SHOZO\AppData\Local\Temp\ccih3v6m.s 			page 9


 431:Generated_Source\PSoC4/CapSense_1_Structure.c **** 
 432:Generated_Source\PSoC4/CapSense_1_Structure.c ****             for (snsId = CapSense_1_GET_SNS_CNT_BY_PTR(ptrFlashWdgt); snsId-- > 0u;)
 433:Generated_Source\PSoC4/CapSense_1_Structure.c ****             {
 434:Generated_Source\PSoC4/CapSense_1_Structure.c ****                 ptrSnsTmp->idacComp[0u] = *ptrIdacInit;
 435:Generated_Source\PSoC4/CapSense_1_Structure.c ****                 ptrIdacInit++;
 436:Generated_Source\PSoC4/CapSense_1_Structure.c **** 
 437:Generated_Source\PSoC4/CapSense_1_Structure.c ****                 #if (0u != CapSense_1_MULTI_FREQ_SCAN_EN)
 438:Generated_Source\PSoC4/CapSense_1_Structure.c ****                     ptrSnsTmp->idacComp[1u] = *ptrIdacInit;
 439:Generated_Source\PSoC4/CapSense_1_Structure.c ****                     ptrIdacInit++;
 440:Generated_Source\PSoC4/CapSense_1_Structure.c **** 
 441:Generated_Source\PSoC4/CapSense_1_Structure.c ****                     ptrSnsTmp->idacComp[2u] = *ptrIdacInit;
 442:Generated_Source\PSoC4/CapSense_1_Structure.c ****                     ptrIdacInit++;
 443:Generated_Source\PSoC4/CapSense_1_Structure.c ****                 #endif /* #if (0u != CapSense_1_MULTI_FREQ_SCAN_EN) */
 444:Generated_Source\PSoC4/CapSense_1_Structure.c **** 
 445:Generated_Source\PSoC4/CapSense_1_Structure.c ****                 ptrSnsTmp++;
 446:Generated_Source\PSoC4/CapSense_1_Structure.c ****             }
 447:Generated_Source\PSoC4/CapSense_1_Structure.c **** 
 448:Generated_Source\PSoC4/CapSense_1_Structure.c ****             ptrFlashWdgt++; /* Move to next widget */
 449:Generated_Source\PSoC4/CapSense_1_Structure.c ****         }
 450:Generated_Source\PSoC4/CapSense_1_Structure.c ****     #endif /*(0u != CapSense_1_CSX_EN) || (0 != CapSense_1_CSD_IDAC_COMP_EN)*/
 451:Generated_Source\PSoC4/CapSense_1_Structure.c **** 
 452:Generated_Source\PSoC4/CapSense_1_Structure.c ****     #if ((CapSense_1_ENABLE == CapSense_1_CSX_EN) && \
 453:Generated_Source\PSoC4/CapSense_1_Structure.c ****          (CapSense_1_ENABLE == CapSense_1_CSX_SKIP_OVSMPL_SPECIFIC_NODES))
 454:Generated_Source\PSoC4/CapSense_1_Structure.c ****         /* Initialize Sub-Conversion Number for each node of each CSX widget */
 455:Generated_Source\PSoC4/CapSense_1_Structure.c ****         ptrFlashWdgt = CapSense_1_dsFlash.wdgtArray;
 456:Generated_Source\PSoC4/CapSense_1_Structure.c ****         for (wdgtId = CapSense_1_TOTAL_WIDGETS; wdgtId-- > 0u;)
 457:Generated_Source\PSoC4/CapSense_1_Structure.c ****         {
 458:Generated_Source\PSoC4/CapSense_1_Structure.c ****             /* Check for widget sense method */
 459:Generated_Source\PSoC4/CapSense_1_Structure.c ****             if (CapSense_1_SENSE_METHOD_CSX_E == CapSense_1_GET_SENSE_METHOD(ptrFlashWdgt))
 460:Generated_Source\PSoC4/CapSense_1_Structure.c ****             {
 461:Generated_Source\PSoC4/CapSense_1_Structure.c ****                 /* Take the sub-convesion number of a CSX widget and initialize each node of this w
 462:Generated_Source\PSoC4/CapSense_1_Structure.c ****                 subConvNumber = ((CapSense_1_RAM_WD_BASE_STRUCT *)(ptrFlashWdgt->ptr2WdgtRam))->res
 463:Generated_Source\PSoC4/CapSense_1_Structure.c ****                 ptrSnsTmp = ptrFlashWdgt->ptr2SnsRam;
 464:Generated_Source\PSoC4/CapSense_1_Structure.c ****                 for (snsId = CapSense_1_GET_SNS_CNT_BY_PTR(ptrFlashWdgt); snsId-- > 0u;)
 465:Generated_Source\PSoC4/CapSense_1_Structure.c ****                 {
 466:Generated_Source\PSoC4/CapSense_1_Structure.c ****                     ptrSnsTmp->subConvNum = subConvNumber;
 467:Generated_Source\PSoC4/CapSense_1_Structure.c ****                     ptrSnsTmp++;
 468:Generated_Source\PSoC4/CapSense_1_Structure.c ****                 }
 469:Generated_Source\PSoC4/CapSense_1_Structure.c ****             }
 470:Generated_Source\PSoC4/CapSense_1_Structure.c ****             /* Move to the next widget */
 471:Generated_Source\PSoC4/CapSense_1_Structure.c ****             ptrFlashWdgt++;
 472:Generated_Source\PSoC4/CapSense_1_Structure.c ****         }
 473:Generated_Source\PSoC4/CapSense_1_Structure.c ****     #endif /* ((CapSense_1_ENABLE == CapSense_1_CSX_EN) && \
 474:Generated_Source\PSoC4/CapSense_1_Structure.c ****                (CapSense_1_ENABLE == CapSense_1_CSX_SKIP_OVSMPL_SPECIFIC_NODES)) */
 475:Generated_Source\PSoC4/CapSense_1_Structure.c **** 
 476:Generated_Source\PSoC4/CapSense_1_Structure.c ****     #if (0u != CapSense_1_ADC_EN)
 477:Generated_Source\PSoC4/CapSense_1_Structure.c ****         CapSense_1_AdcDsInitialize();
 478:Generated_Source\PSoC4/CapSense_1_Structure.c ****     #endif /* (0u != CapSense_1_ADC_EN) */
 479:Generated_Source\PSoC4/CapSense_1_Structure.c **** }
 480:Generated_Source\PSoC4/CapSense_1_Structure.c **** 
 481:Generated_Source\PSoC4/CapSense_1_Structure.c **** 
 482:Generated_Source\PSoC4/CapSense_1_Structure.c **** #if (0u != CapSense_1_ADC_EN)
 483:Generated_Source\PSoC4/CapSense_1_Structure.c ****     /*******************************************************************************
 484:Generated_Source\PSoC4/CapSense_1_Structure.c ****     * Function Name: CapSense_1_AdcDsInitialize
 485:Generated_Source\PSoC4/CapSense_1_Structure.c ****     ****************************************************************************//**
 486:Generated_Source\PSoC4/CapSense_1_Structure.c ****     *
 487:Generated_Source\PSoC4/CapSense_1_Structure.c ****     * \brief
ARM GAS  C:\Users\SHOZO\AppData\Local\Temp\ccih3v6m.s 			page 10


 488:Generated_Source\PSoC4/CapSense_1_Structure.c ****     *   Configures the initial Adc datastructure members.
 489:Generated_Source\PSoC4/CapSense_1_Structure.c ****     *
 490:Generated_Source\PSoC4/CapSense_1_Structure.c ****     *******************************************************************************/
 491:Generated_Source\PSoC4/CapSense_1_Structure.c ****     void CapSense_1_AdcDsInitialize(void)
 492:Generated_Source\PSoC4/CapSense_1_Structure.c ****     {
 493:Generated_Source\PSoC4/CapSense_1_Structure.c ****         CapSense_1_dsRam.adcResolution = CapSense_1_ADC_RESOLUTION;
 494:Generated_Source\PSoC4/CapSense_1_Structure.c ****         CapSense_1_dsRam.adcIdac = (uint8)(CapSense_1_ADC_IDAC_DEFAULT);
 495:Generated_Source\PSoC4/CapSense_1_Structure.c ****         CapSense_1_dsRam.adcActiveCh = CapSense_1_AdcNO_CHANNEL;
 496:Generated_Source\PSoC4/CapSense_1_Structure.c ****     }
 497:Generated_Source\PSoC4/CapSense_1_Structure.c **** #endif /* (0u != CapSense_1_ADC_EN) */
 498:Generated_Source\PSoC4/CapSense_1_Structure.c **** 
 499:Generated_Source\PSoC4/CapSense_1_Structure.c **** 
 500:Generated_Source\PSoC4/CapSense_1_Structure.c **** /*******************************************************************************
 501:Generated_Source\PSoC4/CapSense_1_Structure.c **** * Function Name: DsParseParamId
 502:Generated_Source\PSoC4/CapSense_1_Structure.c **** ****************************************************************************//**
 503:Generated_Source\PSoC4/CapSense_1_Structure.c **** *
 504:Generated_Source\PSoC4/CapSense_1_Structure.c **** * \brief
 505:Generated_Source\PSoC4/CapSense_1_Structure.c **** *   This function parses the parameter ID and checks its correctness.
 506:Generated_Source\PSoC4/CapSense_1_Structure.c **** *
 507:Generated_Source\PSoC4/CapSense_1_Structure.c **** * \details
 508:Generated_Source\PSoC4/CapSense_1_Structure.c **** *   This function checks the parameter CRC if the self-test is enabled,
 509:Generated_Source\PSoC4/CapSense_1_Structure.c **** *   validates the offset value and parameter type.
 510:Generated_Source\PSoC4/CapSense_1_Structure.c **** *
 511:Generated_Source\PSoC4/CapSense_1_Structure.c **** * \param paramId The parameter to parse.
 512:Generated_Source\PSoC4/CapSense_1_Structure.c **** * \param pData   The pointer to the structure that will hold parsed data.
 513:Generated_Source\PSoC4/CapSense_1_Structure.c **** *
 514:Generated_Source\PSoC4/CapSense_1_Structure.c **** * \return CYRET_SUCCESS     If the parameter is valid
 515:Generated_Source\PSoC4/CapSense_1_Structure.c **** *         CYRET_BAD_PARAM   If the parameter is invalid
 516:Generated_Source\PSoC4/CapSense_1_Structure.c **** *
 517:Generated_Source\PSoC4/CapSense_1_Structure.c **** *******************************************************************************/
 518:Generated_Source\PSoC4/CapSense_1_Structure.c **** static cystatus DsParseParamId(uint32 paramId, PARAM_ID_STRUCT *pData)
 519:Generated_Source\PSoC4/CapSense_1_Structure.c **** {
  27              		.loc 1 519 0
  28              		.cfi_startproc
  29              		@ args = 0, pretend = 0, frame = 0
  30              		@ frame_needed = 0, uses_anonymous_args = 0
  31              	.LVL0:
  32 0000 70B5     		push	{r4, r5, r6, lr}
  33              		.cfi_def_cfa_offset 16
  34              		.cfi_offset 4, -16
  35              		.cfi_offset 5, -12
  36              		.cfi_offset 6, -8
  37              		.cfi_offset 14, -4
  38              	.LVL1:
 520:Generated_Source\PSoC4/CapSense_1_Structure.c ****     cystatus result = CYRET_SUCCESS;
 521:Generated_Source\PSoC4/CapSense_1_Structure.c **** 
 522:Generated_Source\PSoC4/CapSense_1_Structure.c ****     #if (0u != CapSense_1_SELF_TEST_EN)
 523:Generated_Source\PSoC4/CapSense_1_Structure.c ****         const uint8 crcTable[] =
 524:Generated_Source\PSoC4/CapSense_1_Structure.c ****         {
 525:Generated_Source\PSoC4/CapSense_1_Structure.c ****             0x00u, 0x09u, 0x0Bu, 0x02u, 0x0Fu, 0x06u, 0x04u, 0x0Du,
 526:Generated_Source\PSoC4/CapSense_1_Structure.c ****             0x07u, 0x0Eu, 0x0Cu, 0x05u, 0x08u, 0x01u, 0x03u, 0x0Au
 527:Generated_Source\PSoC4/CapSense_1_Structure.c ****         };
 528:Generated_Source\PSoC4/CapSense_1_Structure.c **** 
 529:Generated_Source\PSoC4/CapSense_1_Structure.c ****         uint32 i;
 530:Generated_Source\PSoC4/CapSense_1_Structure.c ****         uint32 actualCrc = 0u;
 531:Generated_Source\PSoC4/CapSense_1_Structure.c ****         uint32 crcIndex;
 532:Generated_Source\PSoC4/CapSense_1_Structure.c ****     #endif /* #if (0u != CapSense_1_SELF_TEST_EN) */
ARM GAS  C:\Users\SHOZO\AppData\Local\Temp\ccih3v6m.s 			page 11


 533:Generated_Source\PSoC4/CapSense_1_Structure.c **** 
 534:Generated_Source\PSoC4/CapSense_1_Structure.c ****     /* Extract parameter data */
 535:Generated_Source\PSoC4/CapSense_1_Structure.c ****     pData->offset     = LO16(paramId);
  39              		.loc 1 535 0
  40 0002 85B2     		uxth	r5, r0
  41 0004 0D80     		strh	r5, [r1]
 536:Generated_Source\PSoC4/CapSense_1_Structure.c ****     pData->affectsCrc = LO8((paramId & PARAM_UBIT_MASK)  >> PARAM_UBIT_OFFSET);
  42              		.loc 1 536 0
  43 0006 C30D     		lsrs	r3, r0, #23
  44 0008 0124     		movs	r4, #1
  45 000a 2340     		ands	r3, r4
  46 000c CB70     		strb	r3, [r1, #3]
 537:Generated_Source\PSoC4/CapSense_1_Structure.c ****     pData->widgetId   = LO8((paramId & PARAM_WDID_MASK)  >> PARAM_WDID_OFFSET);
  47              		.loc 1 537 0
  48 000e 030C     		lsrs	r3, r0, #16
  49 0010 7F22     		movs	r2, #127
  50 0012 1340     		ands	r3, r2
  51 0014 8B70     		strb	r3, [r1, #2]
 538:Generated_Source\PSoC4/CapSense_1_Structure.c ****     pData->type       = LO8((paramId & PARAM_TYPE_MASK)  >> PARAM_TYPE_OFFSET);
  52              		.loc 1 538 0
  53 0016 860F     		lsrs	r6, r0, #30
  54 0018 CE71     		strb	r6, [r1, #7]
 539:Generated_Source\PSoC4/CapSense_1_Structure.c ****     pData->flash      = LO8((paramId & PARAM_FBIT_MASK)  >> PARAM_FBIT_OFFSET);
  55              		.loc 1 539 0
  56 001a 030F     		lsrs	r3, r0, #28
  57 001c 2340     		ands	r3, r4
  58 001e 4B71     		strb	r3, [r1, #5]
 540:Generated_Source\PSoC4/CapSense_1_Structure.c ****     pData->rw         = LO8((paramId & PARAM_RWBIT_MASK) >> PARAM_RWBIT_OFFSET);
  59              		.loc 1 540 0
  60 0020 420F     		lsrs	r2, r0, #29
  61 0022 2240     		ands	r2, r4
  62 0024 8A71     		strb	r2, [r1, #6]
 541:Generated_Source\PSoC4/CapSense_1_Structure.c ****     pData->crc        = LO8((paramId & PARAM_CRC_MASK)   >> PARAM_CRC_OFFSET);
  63              		.loc 1 541 0
  64 0026 000E     		lsrs	r0, r0, #24
  65              	.LVL2:
  66 0028 0E34     		adds	r4, r4, #14
  67 002a 2040     		ands	r0, r4
  68 002c 0871     		strb	r0, [r1, #4]
 542:Generated_Source\PSoC4/CapSense_1_Structure.c **** 
 543:Generated_Source\PSoC4/CapSense_1_Structure.c ****     /* Check parameter CRC if self-test is enabled */
 544:Generated_Source\PSoC4/CapSense_1_Structure.c ****     #if (0u != CapSense_1_SELF_TEST_EN)
 545:Generated_Source\PSoC4/CapSense_1_Structure.c **** 
 546:Generated_Source\PSoC4/CapSense_1_Structure.c ****         /* Calculate CRC for bits 0..24.
 547:Generated_Source\PSoC4/CapSense_1_Structure.c ****          * The CRC is calculated using nibbles (4-bits).
 548:Generated_Source\PSoC4/CapSense_1_Structure.c ****          * So for 0..24 bits there are in total 6 nibbles. */
 549:Generated_Source\PSoC4/CapSense_1_Structure.c ****         for (i = 6u; i > 0u; i--)
 550:Generated_Source\PSoC4/CapSense_1_Structure.c ****         {
 551:Generated_Source\PSoC4/CapSense_1_Structure.c ****             crcIndex = actualCrc ^ (paramId & 0x0Fu);
 552:Generated_Source\PSoC4/CapSense_1_Structure.c ****             actualCrc = crcTable[crcIndex];
 553:Generated_Source\PSoC4/CapSense_1_Structure.c ****             paramId >>= 4u;
 554:Generated_Source\PSoC4/CapSense_1_Structure.c ****         }
 555:Generated_Source\PSoC4/CapSense_1_Structure.c **** 
 556:Generated_Source\PSoC4/CapSense_1_Structure.c ****         /* Add bits 28..32 */
 557:Generated_Source\PSoC4/CapSense_1_Structure.c ****         crcIndex = actualCrc ^ ((paramId >> 4u) & 0x0Fu);
 558:Generated_Source\PSoC4/CapSense_1_Structure.c ****         actualCrc = crcTable[crcIndex];
 559:Generated_Source\PSoC4/CapSense_1_Structure.c **** 
ARM GAS  C:\Users\SHOZO\AppData\Local\Temp\ccih3v6m.s 			page 12


 560:Generated_Source\PSoC4/CapSense_1_Structure.c ****         /* Add bits 24..28 (CRC) */
 561:Generated_Source\PSoC4/CapSense_1_Structure.c ****         crcIndex = actualCrc ^ (paramId & 0x0Fu);
 562:Generated_Source\PSoC4/CapSense_1_Structure.c ****         actualCrc = crcTable[crcIndex];
 563:Generated_Source\PSoC4/CapSense_1_Structure.c **** 
 564:Generated_Source\PSoC4/CapSense_1_Structure.c ****         if (0u != actualCrc)
 565:Generated_Source\PSoC4/CapSense_1_Structure.c ****         {
 566:Generated_Source\PSoC4/CapSense_1_Structure.c ****             /* CRC mismatch */
 567:Generated_Source\PSoC4/CapSense_1_Structure.c ****             result = CYRET_BAD_PARAM;
 568:Generated_Source\PSoC4/CapSense_1_Structure.c ****         }
 569:Generated_Source\PSoC4/CapSense_1_Structure.c **** 
 570:Generated_Source\PSoC4/CapSense_1_Structure.c ****         if ((CYRET_SUCCESS == result) &&
 571:Generated_Source\PSoC4/CapSense_1_Structure.c ****             (0u != pData->affectsCrc) && (pData->widgetId >= CapSense_1_TOTAL_WIDGETS ))
 572:Generated_Source\PSoC4/CapSense_1_Structure.c ****         {
 573:Generated_Source\PSoC4/CapSense_1_Structure.c ****             /* Wrong widgetId for protected parameter */
 574:Generated_Source\PSoC4/CapSense_1_Structure.c ****             result = CYRET_BAD_PARAM;
 575:Generated_Source\PSoC4/CapSense_1_Structure.c ****         }
 576:Generated_Source\PSoC4/CapSense_1_Structure.c **** 
 577:Generated_Source\PSoC4/CapSense_1_Structure.c ****         /* Check offset value range */
 578:Generated_Source\PSoC4/CapSense_1_Structure.c ****         if (CYRET_SUCCESS == result)
 579:Generated_Source\PSoC4/CapSense_1_Structure.c ****         {
 580:Generated_Source\PSoC4/CapSense_1_Structure.c ****             if (0u == pData->flash)
 581:Generated_Source\PSoC4/CapSense_1_Structure.c ****             {
 582:Generated_Source\PSoC4/CapSense_1_Structure.c ****                 /* Check offset for RAM Data Structure range */
 583:Generated_Source\PSoC4/CapSense_1_Structure.c ****                 if (pData->offset >= sizeof(CapSense_1_dsRam))
 584:Generated_Source\PSoC4/CapSense_1_Structure.c ****                 {
 585:Generated_Source\PSoC4/CapSense_1_Structure.c ****                     result = CYRET_BAD_PARAM;
 586:Generated_Source\PSoC4/CapSense_1_Structure.c ****                 }
 587:Generated_Source\PSoC4/CapSense_1_Structure.c ****             }
 588:Generated_Source\PSoC4/CapSense_1_Structure.c ****             else
 589:Generated_Source\PSoC4/CapSense_1_Structure.c ****             {
 590:Generated_Source\PSoC4/CapSense_1_Structure.c ****                 /* Check offset for Flash Data Structure range */
 591:Generated_Source\PSoC4/CapSense_1_Structure.c ****                 if (pData->offset >= sizeof(CapSense_1_dsFlash))
 592:Generated_Source\PSoC4/CapSense_1_Structure.c ****                 {
 593:Generated_Source\PSoC4/CapSense_1_Structure.c ****                     result = CYRET_BAD_PARAM;
 594:Generated_Source\PSoC4/CapSense_1_Structure.c ****                 }
 595:Generated_Source\PSoC4/CapSense_1_Structure.c **** 
 596:Generated_Source\PSoC4/CapSense_1_Structure.c ****                 /* Check if it is marked as Read Only */
 597:Generated_Source\PSoC4/CapSense_1_Structure.c ****                 if (0u != pData->rw)
 598:Generated_Source\PSoC4/CapSense_1_Structure.c ****                 {
 599:Generated_Source\PSoC4/CapSense_1_Structure.c ****                     result = CYRET_BAD_PARAM;
 600:Generated_Source\PSoC4/CapSense_1_Structure.c ****                 }
 601:Generated_Source\PSoC4/CapSense_1_Structure.c ****             }
 602:Generated_Source\PSoC4/CapSense_1_Structure.c ****         }
 603:Generated_Source\PSoC4/CapSense_1_Structure.c ****     #else /* #if (0u != CapSense_1_SELF_TEST_EN) */
 604:Generated_Source\PSoC4/CapSense_1_Structure.c ****         /* Check offset value range */
 605:Generated_Source\PSoC4/CapSense_1_Structure.c ****         if (0u == pData->flash)
  69              		.loc 1 605 0
  70 002e 002B     		cmp	r3, #0
  71 0030 03D1     		bne	.L2
 606:Generated_Source\PSoC4/CapSense_1_Structure.c ****         {
 607:Generated_Source\PSoC4/CapSense_1_Structure.c ****             /* Check offset for RAM Data Structure range */
 608:Generated_Source\PSoC4/CapSense_1_Structure.c ****             if (pData->offset >= sizeof(CapSense_1_dsRam))
  72              		.loc 1 608 0
  73 0032 6F2D     		cmp	r5, #111
  74 0034 09D8     		bhi	.L9
 520:Generated_Source\PSoC4/CapSense_1_Structure.c **** 
  75              		.loc 1 520 0
ARM GAS  C:\Users\SHOZO\AppData\Local\Temp\ccih3v6m.s 			page 13


  76 0036 0020     		movs	r0, #0
  77 0038 0AE0     		b	.L3
  78              	.L2:
 609:Generated_Source\PSoC4/CapSense_1_Structure.c ****             {
 610:Generated_Source\PSoC4/CapSense_1_Structure.c ****                 result = CYRET_BAD_PARAM;
 611:Generated_Source\PSoC4/CapSense_1_Structure.c ****             }
 612:Generated_Source\PSoC4/CapSense_1_Structure.c ****         }
 613:Generated_Source\PSoC4/CapSense_1_Structure.c ****         else
 614:Generated_Source\PSoC4/CapSense_1_Structure.c ****         {
 615:Generated_Source\PSoC4/CapSense_1_Structure.c ****             /* Check offset for Flash Data Structure range */
 616:Generated_Source\PSoC4/CapSense_1_Structure.c ****             if (pData->offset >= sizeof(CapSense_1_dsFlash))
  79              		.loc 1 616 0
  80 003a 2B2D     		cmp	r5, #43
  81 003c 01D8     		bhi	.L10
 520:Generated_Source\PSoC4/CapSense_1_Structure.c **** 
  82              		.loc 1 520 0
  83 003e 0020     		movs	r0, #0
  84 0040 00E0     		b	.L4
  85              	.L10:
 617:Generated_Source\PSoC4/CapSense_1_Structure.c ****             {
 618:Generated_Source\PSoC4/CapSense_1_Structure.c ****                 result = CYRET_BAD_PARAM;
  86              		.loc 1 618 0
  87 0042 0120     		movs	r0, #1
  88              	.L4:
  89              	.LVL3:
 619:Generated_Source\PSoC4/CapSense_1_Structure.c ****             }
 620:Generated_Source\PSoC4/CapSense_1_Structure.c **** 
 621:Generated_Source\PSoC4/CapSense_1_Structure.c ****             /* Check if it is marked as Read Only */
 622:Generated_Source\PSoC4/CapSense_1_Structure.c ****             if (0u != pData->rw)
  90              		.loc 1 622 0
  91 0044 002A     		cmp	r2, #0
  92 0046 02D1     		bne	.L11
  93 0048 02E0     		b	.L3
  94              	.LVL4:
  95              	.L9:
 610:Generated_Source\PSoC4/CapSense_1_Structure.c ****             }
  96              		.loc 1 610 0
  97 004a 0120     		movs	r0, #1
  98 004c 00E0     		b	.L3
  99              	.LVL5:
 100              	.L11:
 623:Generated_Source\PSoC4/CapSense_1_Structure.c ****             {
 624:Generated_Source\PSoC4/CapSense_1_Structure.c ****                 result = CYRET_BAD_PARAM;
 101              		.loc 1 624 0
 102 004e 0120     		movs	r0, #1
 103              	.LVL6:
 104              	.L3:
 625:Generated_Source\PSoC4/CapSense_1_Structure.c ****             }
 626:Generated_Source\PSoC4/CapSense_1_Structure.c ****         }
 627:Generated_Source\PSoC4/CapSense_1_Structure.c ****     #endif /* #if (0u != CapSense_1_SELF_TEST_EN) */
 628:Generated_Source\PSoC4/CapSense_1_Structure.c **** 
 629:Generated_Source\PSoC4/CapSense_1_Structure.c ****     if (CYRET_SUCCESS == result)
 105              		.loc 1 629 0
 106 0050 0028     		cmp	r0, #0
 107 0052 11D1     		bne	.L5
 630:Generated_Source\PSoC4/CapSense_1_Structure.c ****     {
 631:Generated_Source\PSoC4/CapSense_1_Structure.c ****         /* Check parameter type, offset alignment */
ARM GAS  C:\Users\SHOZO\AppData\Local\Temp\ccih3v6m.s 			page 14


 632:Generated_Source\PSoC4/CapSense_1_Structure.c ****         switch (pData->type)
 108              		.loc 1 632 0
 109 0054 022E     		cmp	r6, #2
 110 0056 04D0     		beq	.L6
 111 0058 032E     		cmp	r6, #3
 112 005a 05D0     		beq	.L7
 113 005c 012E     		cmp	r6, #1
 114 005e 06D1     		bne	.L15
 115 0060 0AE0     		b	.L5
 116              	.L6:
 633:Generated_Source\PSoC4/CapSense_1_Structure.c ****         {
 634:Generated_Source\PSoC4/CapSense_1_Structure.c ****         case DS_PARAM_TYPE_UINT16:
 635:Generated_Source\PSoC4/CapSense_1_Structure.c ****             if (0u != (pData->offset & UINT16_ALIGN_MASK))
 117              		.loc 1 635 0
 118 0062 EB07     		lsls	r3, r5, #31
 119 0064 05D4     		bmi	.L13
 120 0066 07E0     		b	.L5
 121              	.L7:
 636:Generated_Source\PSoC4/CapSense_1_Structure.c ****             {
 637:Generated_Source\PSoC4/CapSense_1_Structure.c ****                 result = CYRET_BAD_PARAM;
 638:Generated_Source\PSoC4/CapSense_1_Structure.c ****             }
 639:Generated_Source\PSoC4/CapSense_1_Structure.c ****             break;
 640:Generated_Source\PSoC4/CapSense_1_Structure.c **** 
 641:Generated_Source\PSoC4/CapSense_1_Structure.c ****         case DS_PARAM_TYPE_UINT32:
 642:Generated_Source\PSoC4/CapSense_1_Structure.c ****             if (0u != (pData->offset & UINT32_ALIGN_MASK))
 122              		.loc 1 642 0
 123 0068 AB07     		lsls	r3, r5, #30
 124 006a 04D1     		bne	.L14
 125 006c 04E0     		b	.L5
 126              	.L15:
 643:Generated_Source\PSoC4/CapSense_1_Structure.c ****             {
 644:Generated_Source\PSoC4/CapSense_1_Structure.c ****                 result = CYRET_BAD_PARAM;
 645:Generated_Source\PSoC4/CapSense_1_Structure.c ****             }
 646:Generated_Source\PSoC4/CapSense_1_Structure.c ****             break;
 647:Generated_Source\PSoC4/CapSense_1_Structure.c **** 
 648:Generated_Source\PSoC4/CapSense_1_Structure.c ****         case DS_PARAM_TYPE_UINT8:
 649:Generated_Source\PSoC4/CapSense_1_Structure.c ****             break;
 650:Generated_Source\PSoC4/CapSense_1_Structure.c **** 
 651:Generated_Source\PSoC4/CapSense_1_Structure.c ****         default:
 652:Generated_Source\PSoC4/CapSense_1_Structure.c ****             result = CYRET_BAD_PARAM;
 127              		.loc 1 652 0
 128 006e 0120     		movs	r0, #1
 129              	.LVL7:
 130 0070 02E0     		b	.L5
 131              	.LVL8:
 132              	.L13:
 637:Generated_Source\PSoC4/CapSense_1_Structure.c ****             }
 133              		.loc 1 637 0
 134 0072 0120     		movs	r0, #1
 135              	.LVL9:
 136 0074 00E0     		b	.L5
 137              	.LVL10:
 138              	.L14:
 644:Generated_Source\PSoC4/CapSense_1_Structure.c ****             }
 139              		.loc 1 644 0
 140 0076 0120     		movs	r0, #1
 141              	.LVL11:
ARM GAS  C:\Users\SHOZO\AppData\Local\Temp\ccih3v6m.s 			page 15


 142              	.L5:
 653:Generated_Source\PSoC4/CapSense_1_Structure.c ****             break;
 654:Generated_Source\PSoC4/CapSense_1_Structure.c ****         }
 655:Generated_Source\PSoC4/CapSense_1_Structure.c ****     }
 656:Generated_Source\PSoC4/CapSense_1_Structure.c **** 
 657:Generated_Source\PSoC4/CapSense_1_Structure.c ****     return result;
 658:Generated_Source\PSoC4/CapSense_1_Structure.c **** }
 143              		.loc 1 658 0
 144              		@ sp needed
 145 0078 70BD     		pop	{r4, r5, r6, pc}
 146              		.cfi_endproc
 147              	.LFE1:
 148              		.size	DsParseParamId, .-DsParseParamId
 149 007a C046     		.section	.text.CapSense_1_DsInitialize,"ax",%progbits
 150              		.align	2
 151              		.global	CapSense_1_DsInitialize
 152              		.code	16
 153              		.thumb_func
 154              		.type	CapSense_1_DsInitialize, %function
 155              	CapSense_1_DsInitialize:
 156              	.LFB0:
 302:Generated_Source\PSoC4/CapSense_1_Structure.c ****     #if ((CapSense_1_ENABLE == CapSense_1_CSX_EN) || \
 157              		.loc 1 302 0
 158              		.cfi_startproc
 159              		@ args = 0, pretend = 0, frame = 0
 160              		@ frame_needed = 0, uses_anonymous_args = 0
 161 0000 70B5     		push	{r4, r5, r6, lr}
 162              		.cfi_def_cfa_offset 16
 163              		.cfi_offset 4, -16
 164              		.cfi_offset 5, -12
 165              		.cfi_offset 6, -8
 166              		.cfi_offset 14, -4
 167              	.LVL12:
 323:Generated_Source\PSoC4/CapSense_1_Structure.c **** 
 168              		.loc 1 323 0
 169 0002 194C     		ldr	r4, .L21
 170 0004 7022     		movs	r2, #112
 171 0006 0021     		movs	r1, #0
 172 0008 2000     		movs	r0, r4
 173 000a FFF7FEFF 		bl	memset
 174              	.LVL13:
 326:Generated_Source\PSoC4/CapSense_1_Structure.c ****     CapSense_1_dsRam.deviceId = CapSense_1_DEVICE_ID;
 175              		.loc 1 326 0
 176 000e 174B     		ldr	r3, .L21+4
 177 0010 2380     		strh	r3, [r4]
 327:Generated_Source\PSoC4/CapSense_1_Structure.c ****     CapSense_1_dsRam.hwClock = CapSense_1_HW_CLOCK;
 178              		.loc 1 327 0
 179 0012 8023     		movs	r3, #128
 180 0014 DB00     		lsls	r3, r3, #3
 181 0016 6380     		strh	r3, [r4, #2]
 328:Generated_Source\PSoC4/CapSense_1_Structure.c **** 
 182              		.loc 1 328 0
 183 0018 154B     		ldr	r3, .L21+8
 184 001a A380     		strh	r3, [r4, #4]
 331:Generated_Source\PSoC4/CapSense_1_Structure.c **** 
 185              		.loc 1 331 0
 186 001c 0223     		movs	r3, #2
ARM GAS  C:\Users\SHOZO\AppData\Local\Temp\ccih3v6m.s 			page 16


 187 001e 6383     		strh	r3, [r4, #26]
 333:Generated_Source\PSoC4/CapSense_1_Structure.c ****     #if (0u != CapSense_1_TOTAL_CSD_WIDGETS)
 188              		.loc 1 333 0
 189 0020 0322     		movs	r2, #3
 190 0022 6B33     		adds	r3, r3, #107
 191 0024 E254     		strb	r2, [r4, r3]
 335:Generated_Source\PSoC4/CapSense_1_Structure.c ****         CapSense_1_dsRam.scanCsdISC = CapSense_1_CSD_INACTIVE_SNS_CONNECTION;
 192              		.loc 1 335 0
 193 0026 0223     		movs	r3, #2
 194 0028 2377     		strb	r3, [r4, #28]
 409:Generated_Source\PSoC4/CapSense_1_Structure.c **** 
 195              		.loc 1 409 0
 196 002a 124D     		ldr	r5, .L21+12
 197 002c 2000     		movs	r0, r4
 198 002e 1E30     		adds	r0, r0, #30
 199 0030 2900     		movs	r1, r5
 200 0032 3431     		adds	r1, r1, #52
 201 0034 1332     		adds	r2, r2, #19
 202 0036 FFF7FEFF 		bl	memcpy
 203              	.LVL14:
 319:Generated_Source\PSoC4/CapSense_1_Structure.c ****     #endif
 204              		.loc 1 319 0
 205 003a 2A00     		movs	r2, r5
 426:Generated_Source\PSoC4/CapSense_1_Structure.c **** 
 206              		.loc 1 426 0
 207 003c 2C00     		movs	r4, r5
 208 003e 0834     		adds	r4, r4, #8
 428:Generated_Source\PSoC4/CapSense_1_Structure.c ****         {
 209              		.loc 1 428 0
 210 0040 0123     		movs	r3, #1
 211 0042 0CE0     		b	.L17
 212              	.LVL15:
 213              	.L20:
 430:Generated_Source\PSoC4/CapSense_1_Structure.c **** 
 214              		.loc 1 430 0
 215 0044 A168     		ldr	r1, [r4, #8]
 216              	.LVL16:
 432:Generated_Source\PSoC4/CapSense_1_Structure.c ****             {
 217              		.loc 1 432 0
 218 0046 238B     		ldrh	r3, [r4, #24]
 219              	.LVL17:
 220 0048 04E0     		b	.L18
 221              	.LVL18:
 222              	.L19:
 434:Generated_Source\PSoC4/CapSense_1_Structure.c ****                 ptrIdacInit++;
 223              		.loc 1 434 0
 224 004a 1378     		ldrb	r3, [r2]
 225 004c 4B72     		strb	r3, [r1, #9]
 435:Generated_Source\PSoC4/CapSense_1_Structure.c **** 
 226              		.loc 1 435 0
 227 004e 0132     		adds	r2, r2, #1
 228              	.LVL19:
 445:Generated_Source\PSoC4/CapSense_1_Structure.c ****             }
 229              		.loc 1 445 0
 230 0050 0A31     		adds	r1, r1, #10
 231              	.LVL20:
 432:Generated_Source\PSoC4/CapSense_1_Structure.c ****             {
ARM GAS  C:\Users\SHOZO\AppData\Local\Temp\ccih3v6m.s 			page 17


 232              		.loc 1 432 0
 233 0052 0300     		movs	r3, r0
 234              	.LVL21:
 235              	.L18:
 432:Generated_Source\PSoC4/CapSense_1_Structure.c ****             {
 236              		.loc 1 432 0 is_stmt 0 discriminator 1
 237 0054 581E     		subs	r0, r3, #1
 238              	.LVL22:
 239 0056 002B     		cmp	r3, #0
 240 0058 F7D1     		bne	.L19
 448:Generated_Source\PSoC4/CapSense_1_Structure.c ****         }
 241              		.loc 1 448 0 is_stmt 1
 242 005a 2C34     		adds	r4, r4, #44
 243              	.LVL23:
 428:Generated_Source\PSoC4/CapSense_1_Structure.c ****         {
 244              		.loc 1 428 0
 245 005c 2B00     		movs	r3, r5
 246              	.LVL24:
 247              	.L17:
 428:Generated_Source\PSoC4/CapSense_1_Structure.c ****         {
 248              		.loc 1 428 0 is_stmt 0 discriminator 1
 249 005e 5D1E     		subs	r5, r3, #1
 250              	.LVL25:
 251 0060 002B     		cmp	r3, #0
 252 0062 EFD1     		bne	.L20
 479:Generated_Source\PSoC4/CapSense_1_Structure.c **** 
 253              		.loc 1 479 0 is_stmt 1
 254              		@ sp needed
 255              	.LVL26:
 256              	.LVL27:
 257 0064 70BD     		pop	{r4, r5, r6, pc}
 258              	.L22:
 259 0066 C046     		.align	2
 260              	.L21:
 261 0068 00000000 		.word	CapSense_1_dsRam
 262 006c 161F0000 		.word	7958
 263 0070 B80B0000 		.word	3000
 264 0074 00000000 		.word	.LANCHOR0
 265              		.cfi_endproc
 266              	.LFE0:
 267              		.size	CapSense_1_DsInitialize, .-CapSense_1_DsInitialize
 268              		.section	.text.CapSense_1_GetParam,"ax",%progbits
 269              		.align	2
 270              		.global	CapSense_1_GetParam
 271              		.code	16
 272              		.thumb_func
 273              		.type	CapSense_1_GetParam, %function
 274              	CapSense_1_GetParam:
 275              	.LFB2:
 659:Generated_Source\PSoC4/CapSense_1_Structure.c **** 
 660:Generated_Source\PSoC4/CapSense_1_Structure.c **** /*******************************************************************************
 661:Generated_Source\PSoC4/CapSense_1_Structure.c **** * Function Name: CapSense_1_GetParam
 662:Generated_Source\PSoC4/CapSense_1_Structure.c **** ****************************************************************************//**
 663:Generated_Source\PSoC4/CapSense_1_Structure.c **** *
 664:Generated_Source\PSoC4/CapSense_1_Structure.c **** * \brief
 665:Generated_Source\PSoC4/CapSense_1_Structure.c **** *  Gets the specified parameter value from the \ref group_structures.
 666:Generated_Source\PSoC4/CapSense_1_Structure.c **** *
ARM GAS  C:\Users\SHOZO\AppData\Local\Temp\ccih3v6m.s 			page 18


 667:Generated_Source\PSoC4/CapSense_1_Structure.c **** * \details
 668:Generated_Source\PSoC4/CapSense_1_Structure.c **** *  This function gets the value of the specified parameter by the paramId
 669:Generated_Source\PSoC4/CapSense_1_Structure.c **** *  argument. The paramId for each register is available in the
 670:Generated_Source\PSoC4/CapSense_1_Structure.c **** *  CapSense_1 RegisterMap header file as
 671:Generated_Source\PSoC4/CapSense_1_Structure.c **** *  CapSense_1_<ParameterName>_PARAM_ID. The paramId is a special
 672:Generated_Source\PSoC4/CapSense_1_Structure.c **** *  enumerated value generated by the customizer. The format of paramId is as
 673:Generated_Source\PSoC4/CapSense_1_Structure.c **** *  follows:
 674:Generated_Source\PSoC4/CapSense_1_Structure.c **** *    1. [ byte 3 byte 2 byte 1 byte 0 ]
 675:Generated_Source\PSoC4/CapSense_1_Structure.c **** *    2. [ TTWFCCCC UIIIIIII MMMMMMMM LLLLLLLL ]
 676:Generated_Source\PSoC4/CapSense_1_Structure.c **** *    3. T - encodes the parameter type:
 677:Generated_Source\PSoC4/CapSense_1_Structure.c **** *      - 01b: uint8
 678:Generated_Source\PSoC4/CapSense_1_Structure.c **** *      - 10b: uint16
 679:Generated_Source\PSoC4/CapSense_1_Structure.c **** *      - 11b: uint32
 680:Generated_Source\PSoC4/CapSense_1_Structure.c **** *    4. W - indicates whether the parameter is writable:
 681:Generated_Source\PSoC4/CapSense_1_Structure.c **** *      - 0: ReadOnly
 682:Generated_Source\PSoC4/CapSense_1_Structure.c **** *      - 1: Read/Write
 683:Generated_Source\PSoC4/CapSense_1_Structure.c **** *    5. C - 4 bit CRC (X^3 + 1) of the whole paramId word, the C bits are
 684:Generated_Source\PSoC4/CapSense_1_Structure.c **** *       filled with 0s when the CRC is calculated.
 685:Generated_Source\PSoC4/CapSense_1_Structure.c **** *    6. U - indicates if the parameter affects the RAM Widget Object CRC.
 686:Generated_Source\PSoC4/CapSense_1_Structure.c **** *    7. I - specifies that the widgetId parameter belongs to
 687:Generated_Source\PSoC4/CapSense_1_Structure.c **** *    8. M,L - the parameter offset MSB and LSB accordingly in:
 688:Generated_Source\PSoC4/CapSense_1_Structure.c **** *      - Flash Data Structure if W bit is 0.
 689:Generated_Source\PSoC4/CapSense_1_Structure.c **** *      - RAM Data Structure if W bit is 1.
 690:Generated_Source\PSoC4/CapSense_1_Structure.c **** *
 691:Generated_Source\PSoC4/CapSense_1_Structure.c **** *  Refer to the \ref group_structures section for details of the data structure
 692:Generated_Source\PSoC4/CapSense_1_Structure.c **** *  organization and examples of its register access.
 693:Generated_Source\PSoC4/CapSense_1_Structure.c **** *
 694:Generated_Source\PSoC4/CapSense_1_Structure.c **** * \param paramId
 695:Generated_Source\PSoC4/CapSense_1_Structure.c **** *  Specifies the ID of parameter to get its value.
 696:Generated_Source\PSoC4/CapSense_1_Structure.c **** *  A macro for the parameter ID can be found in the CapSense_1 RegisterMap header
 697:Generated_Source\PSoC4/CapSense_1_Structure.c **** *  file defined as CapSense_1_<ParameterName>_PARAM_ID.
 698:Generated_Source\PSoC4/CapSense_1_Structure.c **** *
 699:Generated_Source\PSoC4/CapSense_1_Structure.c **** * \param value
 700:Generated_Source\PSoC4/CapSense_1_Structure.c **** *  The pointer to a variable to be updated with the obtained value.
 701:Generated_Source\PSoC4/CapSense_1_Structure.c **** *
 702:Generated_Source\PSoC4/CapSense_1_Structure.c **** * \return
 703:Generated_Source\PSoC4/CapSense_1_Structure.c **** *  Returns the status of the operation:
 704:Generated_Source\PSoC4/CapSense_1_Structure.c **** *    - CYRET_SUCCESS - The operation is successfully completed.
 705:Generated_Source\PSoC4/CapSense_1_Structure.c **** *    - CYRET_BAD_PARAM - The input parameter is invalid.
 706:Generated_Source\PSoC4/CapSense_1_Structure.c **** *
 707:Generated_Source\PSoC4/CapSense_1_Structure.c **** *******************************************************************************/
 708:Generated_Source\PSoC4/CapSense_1_Structure.c **** cystatus CapSense_1_GetParam(uint32 paramId, uint32 *value)
 709:Generated_Source\PSoC4/CapSense_1_Structure.c **** {
 276              		.loc 1 709 0
 277              		.cfi_startproc
 278              		@ args = 0, pretend = 0, frame = 8
 279              		@ frame_needed = 0, uses_anonymous_args = 0
 280              	.LVL28:
 281 0000 30B5     		push	{r4, r5, lr}
 282              		.cfi_def_cfa_offset 12
 283              		.cfi_offset 4, -12
 284              		.cfi_offset 5, -8
 285              		.cfi_offset 14, -4
 286 0002 83B0     		sub	sp, sp, #12
 287              		.cfi_def_cfa_offset 24
 288 0004 0D00     		movs	r5, r1
 710:Generated_Source\PSoC4/CapSense_1_Structure.c ****     PARAM_ID_STRUCT pData;
ARM GAS  C:\Users\SHOZO\AppData\Local\Temp\ccih3v6m.s 			page 19


 711:Generated_Source\PSoC4/CapSense_1_Structure.c ****     cystatus result;
 712:Generated_Source\PSoC4/CapSense_1_Structure.c **** 
 713:Generated_Source\PSoC4/CapSense_1_Structure.c ****     union
 714:Generated_Source\PSoC4/CapSense_1_Structure.c ****     {
 715:Generated_Source\PSoC4/CapSense_1_Structure.c ****         volatile void   const * ptr;
 716:Generated_Source\PSoC4/CapSense_1_Structure.c ****         volatile uint8  const * ptrUint8;
 717:Generated_Source\PSoC4/CapSense_1_Structure.c ****         volatile uint16 const * ptrUint16;
 718:Generated_Source\PSoC4/CapSense_1_Structure.c ****         volatile uint32 const * ptrUint32;
 719:Generated_Source\PSoC4/CapSense_1_Structure.c ****     } ptrData;
 720:Generated_Source\PSoC4/CapSense_1_Structure.c **** 
 721:Generated_Source\PSoC4/CapSense_1_Structure.c ****     result = DsParseParamId(paramId, &pData);
 289              		.loc 1 721 0
 290 0006 6946     		mov	r1, sp
 291              	.LVL29:
 292 0008 FFF7FEFF 		bl	DsParseParamId
 293              	.LVL30:
 294 000c 041E     		subs	r4, r0, #0
 295              	.LVL31:
 722:Generated_Source\PSoC4/CapSense_1_Structure.c **** 
 723:Generated_Source\PSoC4/CapSense_1_Structure.c ****     /* Parse and validate paramId */
 724:Generated_Source\PSoC4/CapSense_1_Structure.c ****     if (CYRET_SUCCESS == result)
 296              		.loc 1 724 0
 297 000e 1FD1     		bne	.L24
 725:Generated_Source\PSoC4/CapSense_1_Structure.c ****     {
 726:Generated_Source\PSoC4/CapSense_1_Structure.c ****         /* Get base address of parameter */
 727:Generated_Source\PSoC4/CapSense_1_Structure.c ****         if (0u == pData.flash)
 298              		.loc 1 727 0
 299 0010 6B46     		mov	r3, sp
 300 0012 5B79     		ldrb	r3, [r3, #5]
 301 0014 002B     		cmp	r3, #0
 302 0016 01D1     		bne	.L25
 728:Generated_Source\PSoC4/CapSense_1_Structure.c ****         {
 729:Generated_Source\PSoC4/CapSense_1_Structure.c ****             ptrData.ptr = &CapSense_1_dsRam;
 303              		.loc 1 729 0
 304 0018 0F4A     		ldr	r2, .L30
 305              	.LVL32:
 306 001a 02E0     		b	.L26
 307              	.L25:
 730:Generated_Source\PSoC4/CapSense_1_Structure.c ****         }
 731:Generated_Source\PSoC4/CapSense_1_Structure.c ****         else
 732:Generated_Source\PSoC4/CapSense_1_Structure.c ****         {
 733:Generated_Source\PSoC4/CapSense_1_Structure.c ****             ptrData.ptr = &CapSense_1_dsFlash;
 308              		.loc 1 733 0
 309 001c 0F4B     		ldr	r3, .L30+4
 310 001e 0833     		adds	r3, r3, #8
 311 0020 1A00     		movs	r2, r3
 312              	.L26:
 734:Generated_Source\PSoC4/CapSense_1_Structure.c ****         }
 735:Generated_Source\PSoC4/CapSense_1_Structure.c **** 
 736:Generated_Source\PSoC4/CapSense_1_Structure.c ****         /* Add offset to base address */
 737:Generated_Source\PSoC4/CapSense_1_Structure.c ****         ptrData.ptrUint8 += pData.offset;
 313              		.loc 1 737 0
 314 0022 6B46     		mov	r3, sp
 315 0024 1B88     		ldrh	r3, [r3]
 316              	.LVL33:
 317 0026 D318     		adds	r3, r2, r3
 738:Generated_Source\PSoC4/CapSense_1_Structure.c **** 
ARM GAS  C:\Users\SHOZO\AppData\Local\Temp\ccih3v6m.s 			page 20


 739:Generated_Source\PSoC4/CapSense_1_Structure.c ****         /* Read data */
 740:Generated_Source\PSoC4/CapSense_1_Structure.c ****         if (DS_PARAM_TYPE_UINT8 == pData.type)
 318              		.loc 1 740 0
 319 0028 6A46     		mov	r2, sp
 320              	.LVL34:
 321 002a D279     		ldrb	r2, [r2, #7]
 322 002c 012A     		cmp	r2, #1
 323 002e 02D1     		bne	.L27
 741:Generated_Source\PSoC4/CapSense_1_Structure.c ****         {
 742:Generated_Source\PSoC4/CapSense_1_Structure.c ****             *value = (uint32) (*ptrData.ptrUint8);
 324              		.loc 1 742 0
 325 0030 1B78     		ldrb	r3, [r3]
 326 0032 2B60     		str	r3, [r5]
 327 0034 0CE0     		b	.L24
 328              	.L27:
 743:Generated_Source\PSoC4/CapSense_1_Structure.c ****         }
 744:Generated_Source\PSoC4/CapSense_1_Structure.c ****         else if (DS_PARAM_TYPE_UINT16 == pData.type)
 329              		.loc 1 744 0
 330 0036 022A     		cmp	r2, #2
 331 0038 02D1     		bne	.L28
 745:Generated_Source\PSoC4/CapSense_1_Structure.c ****         {
 746:Generated_Source\PSoC4/CapSense_1_Structure.c ****             *value = (uint32) (*ptrData.ptrUint16);
 332              		.loc 1 746 0
 333 003a 1B88     		ldrh	r3, [r3]
 334 003c 2B60     		str	r3, [r5]
 335 003e 07E0     		b	.L24
 336              	.L28:
 747:Generated_Source\PSoC4/CapSense_1_Structure.c ****         }
 748:Generated_Source\PSoC4/CapSense_1_Structure.c ****         else if (DS_PARAM_TYPE_UINT32 == pData.type)
 337              		.loc 1 748 0
 338 0040 032A     		cmp	r2, #3
 339 0042 02D1     		bne	.L29
 749:Generated_Source\PSoC4/CapSense_1_Structure.c ****         {
 750:Generated_Source\PSoC4/CapSense_1_Structure.c ****             *value = *ptrData.ptrUint32;
 340              		.loc 1 750 0
 341 0044 1B68     		ldr	r3, [r3]
 342 0046 2B60     		str	r3, [r5]
 343 0048 02E0     		b	.L24
 344              	.L29:
 751:Generated_Source\PSoC4/CapSense_1_Structure.c ****         }
 752:Generated_Source\PSoC4/CapSense_1_Structure.c ****         else
 753:Generated_Source\PSoC4/CapSense_1_Structure.c ****         {
 754:Generated_Source\PSoC4/CapSense_1_Structure.c ****             /* Parameter comes here already validated. */
 755:Generated_Source\PSoC4/CapSense_1_Structure.c ****             CYASSERT(0u);
 345              		.loc 1 755 0 discriminator 1
 346 004a 0020     		movs	r0, #0
 347              	.LVL35:
 348 004c FFF7FEFF 		bl	CyHalt
 349              	.LVL36:
 350              	.L24:
 756:Generated_Source\PSoC4/CapSense_1_Structure.c ****         }
 757:Generated_Source\PSoC4/CapSense_1_Structure.c ****     }
 758:Generated_Source\PSoC4/CapSense_1_Structure.c **** 
 759:Generated_Source\PSoC4/CapSense_1_Structure.c ****     return result;
 760:Generated_Source\PSoC4/CapSense_1_Structure.c **** }
 351              		.loc 1 760 0
 352 0050 2000     		movs	r0, r4
ARM GAS  C:\Users\SHOZO\AppData\Local\Temp\ccih3v6m.s 			page 21


 353 0052 03B0     		add	sp, sp, #12
 354              		@ sp needed
 355              	.LVL37:
 356              	.LVL38:
 357 0054 30BD     		pop	{r4, r5, pc}
 358              	.L31:
 359 0056 C046     		.align	2
 360              	.L30:
 361 0058 00000000 		.word	CapSense_1_dsRam
 362 005c 00000000 		.word	.LANCHOR0
 363              		.cfi_endproc
 364              	.LFE2:
 365              		.size	CapSense_1_GetParam, .-CapSense_1_GetParam
 366              		.section	.text.CapSense_1_SetParam,"ax",%progbits
 367              		.align	2
 368              		.global	CapSense_1_SetParam
 369              		.code	16
 370              		.thumb_func
 371              		.type	CapSense_1_SetParam, %function
 372              	CapSense_1_SetParam:
 373              	.LFB3:
 761:Generated_Source\PSoC4/CapSense_1_Structure.c **** 
 762:Generated_Source\PSoC4/CapSense_1_Structure.c **** 
 763:Generated_Source\PSoC4/CapSense_1_Structure.c **** /*******************************************************************************
 764:Generated_Source\PSoC4/CapSense_1_Structure.c **** * Function Name: CapSense_1_SetParam
 765:Generated_Source\PSoC4/CapSense_1_Structure.c **** ****************************************************************************//**
 766:Generated_Source\PSoC4/CapSense_1_Structure.c **** *
 767:Generated_Source\PSoC4/CapSense_1_Structure.c **** * \brief
 768:Generated_Source\PSoC4/CapSense_1_Structure.c **** *  Sets a new value for the specified parameter in the \ref group_structures.
 769:Generated_Source\PSoC4/CapSense_1_Structure.c **** *
 770:Generated_Source\PSoC4/CapSense_1_Structure.c **** * \details
 771:Generated_Source\PSoC4/CapSense_1_Structure.c **** *  This function sets the value of the specified parameter by the paramId
 772:Generated_Source\PSoC4/CapSense_1_Structure.c **** *  argument. The paramId for each register is available in the
 773:Generated_Source\PSoC4/CapSense_1_Structure.c **** *  CapSense_1 RegisterMap header file as
 774:Generated_Source\PSoC4/CapSense_1_Structure.c **** *  CapSense_1_<ParameterName>_PARAM_ID. The paramId is a special
 775:Generated_Source\PSoC4/CapSense_1_Structure.c **** *  enumerated value generated by the customizer. The format of paramId is as
 776:Generated_Source\PSoC4/CapSense_1_Structure.c **** *  follows:
 777:Generated_Source\PSoC4/CapSense_1_Structure.c **** *    1. [ byte 3 byte 2 byte 1 byte 0 ]
 778:Generated_Source\PSoC4/CapSense_1_Structure.c **** *    2. [ TTWFCCCC UIIIIIII MMMMMMMM LLLLLLLL ]
 779:Generated_Source\PSoC4/CapSense_1_Structure.c **** *    3. T - encodes the parameter type:
 780:Generated_Source\PSoC4/CapSense_1_Structure.c **** *      - 01b: uint8
 781:Generated_Source\PSoC4/CapSense_1_Structure.c **** *      - 10b: uint16
 782:Generated_Source\PSoC4/CapSense_1_Structure.c **** *      - 11b: uint32
 783:Generated_Source\PSoC4/CapSense_1_Structure.c **** *    4. W - indicates whether the parameter is writable:
 784:Generated_Source\PSoC4/CapSense_1_Structure.c **** *      - 0: ReadOnly
 785:Generated_Source\PSoC4/CapSense_1_Structure.c **** *      - 1: Read/Write
 786:Generated_Source\PSoC4/CapSense_1_Structure.c **** *    5. C - 4 bit CRC (X^3 + 1) of the whole paramId word, the C bits are
 787:Generated_Source\PSoC4/CapSense_1_Structure.c **** *       filled with 0s when the CRC is calculated.
 788:Generated_Source\PSoC4/CapSense_1_Structure.c **** *    6. U - indicates if the parameter affects the RAM Widget Object CRC.
 789:Generated_Source\PSoC4/CapSense_1_Structure.c **** *    7. I - specifies that the widgetId parameter belongs to
 790:Generated_Source\PSoC4/CapSense_1_Structure.c **** *    8. M,L - the parameter offset MSB and LSB accordingly in:
 791:Generated_Source\PSoC4/CapSense_1_Structure.c **** *      - Flash Data Structure if W bit is 0.
 792:Generated_Source\PSoC4/CapSense_1_Structure.c **** *      - RAM Data Structure if W bit is 1.
 793:Generated_Source\PSoC4/CapSense_1_Structure.c **** *
 794:Generated_Source\PSoC4/CapSense_1_Structure.c **** *  Refer to the \ref group_structures section for details of the data structure
 795:Generated_Source\PSoC4/CapSense_1_Structure.c **** *  organization and examples of its register access.
 796:Generated_Source\PSoC4/CapSense_1_Structure.c **** *
ARM GAS  C:\Users\SHOZO\AppData\Local\Temp\ccih3v6m.s 			page 22


 797:Generated_Source\PSoC4/CapSense_1_Structure.c **** *  This function writes specified value into the desired register without
 798:Generated_Source\PSoC4/CapSense_1_Structure.c **** *  other registers update. It is application layer responsibility to keep all
 799:Generated_Source\PSoC4/CapSense_1_Structure.c **** *  the data structure registers aligned. Repeated call of
 800:Generated_Source\PSoC4/CapSense_1_Structure.c **** *  CapSense_1_Start() function helps aligning dependent register values.
 801:Generated_Source\PSoC4/CapSense_1_Structure.c **** *
 802:Generated_Source\PSoC4/CapSense_1_Structure.c **** * \param paramId
 803:Generated_Source\PSoC4/CapSense_1_Structure.c **** *  Specifies the ID of parameter to set its value.
 804:Generated_Source\PSoC4/CapSense_1_Structure.c **** *  A macro for the parameter ID can be found in the CapSense_1 RegisterMap header
 805:Generated_Source\PSoC4/CapSense_1_Structure.c **** *  file defined as CapSense_1_<ParameterName>_PARAM_ID.
 806:Generated_Source\PSoC4/CapSense_1_Structure.c **** 
 807:Generated_Source\PSoC4/CapSense_1_Structure.c **** * \param value
 808:Generated_Source\PSoC4/CapSense_1_Structure.c **** *  Specifies the new parameter's value.
 809:Generated_Source\PSoC4/CapSense_1_Structure.c **** *
 810:Generated_Source\PSoC4/CapSense_1_Structure.c **** * \return
 811:Generated_Source\PSoC4/CapSense_1_Structure.c **** *  Returns the status of the operation:
 812:Generated_Source\PSoC4/CapSense_1_Structure.c **** *    - CYRET_SUCCESS - The operation is successfully completed.
 813:Generated_Source\PSoC4/CapSense_1_Structure.c **** *    - CYRET_BAD_PARAM - The input parameter is invalid.
 814:Generated_Source\PSoC4/CapSense_1_Structure.c **** *
 815:Generated_Source\PSoC4/CapSense_1_Structure.c **** *******************************************************************************/
 816:Generated_Source\PSoC4/CapSense_1_Structure.c **** cystatus CapSense_1_SetParam(uint32 paramId, uint32 value)
 817:Generated_Source\PSoC4/CapSense_1_Structure.c **** {
 374              		.loc 1 817 0
 375              		.cfi_startproc
 376              		@ args = 0, pretend = 0, frame = 8
 377              		@ frame_needed = 0, uses_anonymous_args = 0
 378              	.LVL39:
 379 0000 30B5     		push	{r4, r5, lr}
 380              		.cfi_def_cfa_offset 12
 381              		.cfi_offset 4, -12
 382              		.cfi_offset 5, -8
 383              		.cfi_offset 14, -4
 384 0002 83B0     		sub	sp, sp, #12
 385              		.cfi_def_cfa_offset 24
 386 0004 0D00     		movs	r5, r1
 818:Generated_Source\PSoC4/CapSense_1_Structure.c ****     cystatus result;
 819:Generated_Source\PSoC4/CapSense_1_Structure.c ****     PARAM_ID_STRUCT pData;
 820:Generated_Source\PSoC4/CapSense_1_Structure.c **** 
 821:Generated_Source\PSoC4/CapSense_1_Structure.c ****     union
 822:Generated_Source\PSoC4/CapSense_1_Structure.c ****     {
 823:Generated_Source\PSoC4/CapSense_1_Structure.c ****         volatile void   * ptr;
 824:Generated_Source\PSoC4/CapSense_1_Structure.c ****         volatile uint8  * ptrUint8;
 825:Generated_Source\PSoC4/CapSense_1_Structure.c ****         volatile uint16 * ptrUint16;
 826:Generated_Source\PSoC4/CapSense_1_Structure.c ****         volatile uint32 * ptrUint32;
 827:Generated_Source\PSoC4/CapSense_1_Structure.c ****     } ptrData;
 828:Generated_Source\PSoC4/CapSense_1_Structure.c **** 
 829:Generated_Source\PSoC4/CapSense_1_Structure.c ****     result = DsParseParamId(paramId, &pData);
 387              		.loc 1 829 0
 388 0006 6946     		mov	r1, sp
 389              	.LVL40:
 390 0008 FFF7FEFF 		bl	DsParseParamId
 391              	.LVL41:
 392 000c 041E     		subs	r4, r0, #0
 393              	.LVL42:
 830:Generated_Source\PSoC4/CapSense_1_Structure.c **** 
 831:Generated_Source\PSoC4/CapSense_1_Structure.c ****     /* verify if parameter is writable */
 832:Generated_Source\PSoC4/CapSense_1_Structure.c ****     if (CYRET_SUCCESS == result)
 394              		.loc 1 832 0
ARM GAS  C:\Users\SHOZO\AppData\Local\Temp\ccih3v6m.s 			page 23


 395 000e 04D1     		bne	.L33
 833:Generated_Source\PSoC4/CapSense_1_Structure.c ****     {
 834:Generated_Source\PSoC4/CapSense_1_Structure.c ****         if (0u == pData.rw)
 396              		.loc 1 834 0
 397 0010 6B46     		mov	r3, sp
 398 0012 9B79     		ldrb	r3, [r3, #6]
 399 0014 002B     		cmp	r3, #0
 400 0016 00D1     		bne	.L33
 835:Generated_Source\PSoC4/CapSense_1_Structure.c ****         {
 836:Generated_Source\PSoC4/CapSense_1_Structure.c ****             result = CYRET_BAD_PARAM;
 401              		.loc 1 836 0
 402 0018 0134     		adds	r4, r4, #1
 403              	.L33:
 404              	.LVL43:
 837:Generated_Source\PSoC4/CapSense_1_Structure.c ****         }
 838:Generated_Source\PSoC4/CapSense_1_Structure.c ****     }
 839:Generated_Source\PSoC4/CapSense_1_Structure.c **** 
 840:Generated_Source\PSoC4/CapSense_1_Structure.c ****     /* Parse and validate paramId */
 841:Generated_Source\PSoC4/CapSense_1_Structure.c ****     if (CYRET_SUCCESS == result)
 405              		.loc 1 841 0
 406 001a 002C     		cmp	r4, #0
 407 001c 16D1     		bne	.L34
 842:Generated_Source\PSoC4/CapSense_1_Structure.c ****     {
 843:Generated_Source\PSoC4/CapSense_1_Structure.c ****         /* Get base address of parameter */
 844:Generated_Source\PSoC4/CapSense_1_Structure.c ****         ptrData.ptr = &CapSense_1_dsRam;
 845:Generated_Source\PSoC4/CapSense_1_Structure.c **** 
 846:Generated_Source\PSoC4/CapSense_1_Structure.c ****         /* Add offset to base address */
 847:Generated_Source\PSoC4/CapSense_1_Structure.c ****         ptrData.ptrUint8 += pData.offset;
 408              		.loc 1 847 0
 409 001e 6B46     		mov	r3, sp
 410 0020 1A88     		ldrh	r2, [r3]
 411 0022 0C4B     		ldr	r3, .L39
 412 0024 D318     		adds	r3, r2, r3
 848:Generated_Source\PSoC4/CapSense_1_Structure.c **** 
 849:Generated_Source\PSoC4/CapSense_1_Structure.c ****         /* Write data */
 850:Generated_Source\PSoC4/CapSense_1_Structure.c ****         if (DS_PARAM_TYPE_UINT8 == pData.type)
 413              		.loc 1 850 0
 414 0026 6A46     		mov	r2, sp
 415 0028 D279     		ldrb	r2, [r2, #7]
 416 002a 012A     		cmp	r2, #1
 417 002c 02D1     		bne	.L35
 851:Generated_Source\PSoC4/CapSense_1_Structure.c ****         {
 852:Generated_Source\PSoC4/CapSense_1_Structure.c ****             *ptrData.ptrUint8 = LO8(value);
 418              		.loc 1 852 0
 419 002e EDB2     		uxtb	r5, r5
 420              	.LVL44:
 421 0030 1D70     		strb	r5, [r3]
 422 0032 0BE0     		b	.L34
 423              	.LVL45:
 424              	.L35:
 853:Generated_Source\PSoC4/CapSense_1_Structure.c ****         }
 854:Generated_Source\PSoC4/CapSense_1_Structure.c ****         else if (DS_PARAM_TYPE_UINT16 == pData.type)
 425              		.loc 1 854 0
 426 0034 022A     		cmp	r2, #2
 427 0036 02D1     		bne	.L36
 855:Generated_Source\PSoC4/CapSense_1_Structure.c ****         {
 856:Generated_Source\PSoC4/CapSense_1_Structure.c ****             *ptrData.ptrUint16 = LO16(value);
ARM GAS  C:\Users\SHOZO\AppData\Local\Temp\ccih3v6m.s 			page 24


 428              		.loc 1 856 0
 429 0038 ADB2     		uxth	r5, r5
 430              	.LVL46:
 431 003a 1D80     		strh	r5, [r3]
 432 003c 06E0     		b	.L34
 433              	.LVL47:
 434              	.L36:
 857:Generated_Source\PSoC4/CapSense_1_Structure.c ****         }
 858:Generated_Source\PSoC4/CapSense_1_Structure.c ****         else if (DS_PARAM_TYPE_UINT32 == pData.type)
 435              		.loc 1 858 0
 436 003e 032A     		cmp	r2, #3
 437 0040 01D1     		bne	.L37
 859:Generated_Source\PSoC4/CapSense_1_Structure.c ****         {
 860:Generated_Source\PSoC4/CapSense_1_Structure.c ****             *ptrData.ptrUint32 = value;
 438              		.loc 1 860 0
 439 0042 1D60     		str	r5, [r3]
 440 0044 02E0     		b	.L34
 441              	.L37:
 861:Generated_Source\PSoC4/CapSense_1_Structure.c ****         }
 862:Generated_Source\PSoC4/CapSense_1_Structure.c ****         else
 863:Generated_Source\PSoC4/CapSense_1_Structure.c ****         {
 864:Generated_Source\PSoC4/CapSense_1_Structure.c ****             /* Parameter comes here already validated. */
 865:Generated_Source\PSoC4/CapSense_1_Structure.c ****             CYASSERT(0u);
 442              		.loc 1 865 0 discriminator 1
 443 0046 0020     		movs	r0, #0
 444 0048 FFF7FEFF 		bl	CyHalt
 445              	.LVL48:
 446              	.L34:
 866:Generated_Source\PSoC4/CapSense_1_Structure.c ****         }
 867:Generated_Source\PSoC4/CapSense_1_Structure.c **** 
 868:Generated_Source\PSoC4/CapSense_1_Structure.c ****         #if (CapSense_1_ENABLE == (CapSense_1_TST_WDGT_CRC_EN || CapSense_1_TST_GLOBAL_CRC_EN))
 869:Generated_Source\PSoC4/CapSense_1_Structure.c ****             /* Update widget or global CRC if self-test is enabled and parameter affects it */
 870:Generated_Source\PSoC4/CapSense_1_Structure.c ****             if (0u != pData.affectsCrc)
 871:Generated_Source\PSoC4/CapSense_1_Structure.c ****             {
 872:Generated_Source\PSoC4/CapSense_1_Structure.c ****                 if ((ptrData.ptrUint16 >= &CapSense_1_dsRam.csd0Config) &&
 873:Generated_Source\PSoC4/CapSense_1_Structure.c ****                     (ptrData.ptrUint16 <  &CapSense_1_dsRam.glbCrc))
 874:Generated_Source\PSoC4/CapSense_1_Structure.c ****                 {
 875:Generated_Source\PSoC4/CapSense_1_Structure.c **** 
 876:Generated_Source\PSoC4/CapSense_1_Structure.c ****                     #if (CapSense_1_ENABLE == CapSense_1_TST_GLOBAL_CRC_EN)
 877:Generated_Source\PSoC4/CapSense_1_Structure.c ****                         CapSense_1_DsUpdateGlobalCrc();
 878:Generated_Source\PSoC4/CapSense_1_Structure.c ****                     #endif /* (CapSense_1_ENABLE == CapSense_1_TST_GLOBAL_CRC_EN) */
 879:Generated_Source\PSoC4/CapSense_1_Structure.c **** 
 880:Generated_Source\PSoC4/CapSense_1_Structure.c ****                 }
 881:Generated_Source\PSoC4/CapSense_1_Structure.c ****                 else
 882:Generated_Source\PSoC4/CapSense_1_Structure.c ****                 {
 883:Generated_Source\PSoC4/CapSense_1_Structure.c ****                     #if (CapSense_1_ENABLE == CapSense_1_TST_WDGT_CRC_EN)
 884:Generated_Source\PSoC4/CapSense_1_Structure.c ****                         CapSense_1_DsUpdateWidgetCrc((uint32)pData.widgetId);
 885:Generated_Source\PSoC4/CapSense_1_Structure.c ****                     #endif /* (CapSense_1_ENABLE == CapSense_1_TST_WDGT_CRC_EN) */
 886:Generated_Source\PSoC4/CapSense_1_Structure.c ****                 }
 887:Generated_Source\PSoC4/CapSense_1_Structure.c ****             }
 888:Generated_Source\PSoC4/CapSense_1_Structure.c ****         #endif /* (CapSense_1_ENABLE == (CapSense_1_TST_WDGT_CRC_EN || CapSense_1_TST_GLOBAL_CRC_EN
 889:Generated_Source\PSoC4/CapSense_1_Structure.c ****     }
 890:Generated_Source\PSoC4/CapSense_1_Structure.c **** 
 891:Generated_Source\PSoC4/CapSense_1_Structure.c ****     return result;
 892:Generated_Source\PSoC4/CapSense_1_Structure.c **** }
 447              		.loc 1 892 0
 448 004c 2000     		movs	r0, r4
ARM GAS  C:\Users\SHOZO\AppData\Local\Temp\ccih3v6m.s 			page 25


 449 004e 03B0     		add	sp, sp, #12
 450              		@ sp needed
 451              	.LVL49:
 452 0050 30BD     		pop	{r4, r5, pc}
 453              	.L40:
 454 0052 C046     		.align	2
 455              	.L39:
 456 0054 00000000 		.word	CapSense_1_dsRam
 457              		.cfi_endproc
 458              	.LFE3:
 459              		.size	CapSense_1_SetParam, .-CapSense_1_SetParam
 460              		.section	.text.CapSense_1_IsAnyWidgetActive,"ax",%progbits
 461              		.align	2
 462              		.global	CapSense_1_IsAnyWidgetActive
 463              		.code	16
 464              		.thumb_func
 465              		.type	CapSense_1_IsAnyWidgetActive, %function
 466              	CapSense_1_IsAnyWidgetActive:
 467              	.LFB4:
 893:Generated_Source\PSoC4/CapSense_1_Structure.c **** 
 894:Generated_Source\PSoC4/CapSense_1_Structure.c **** /*******************************************************************************
 895:Generated_Source\PSoC4/CapSense_1_Structure.c **** * Function Name: CapSense_1_IsAnyWidgetActive
 896:Generated_Source\PSoC4/CapSense_1_Structure.c **** ****************************************************************************//**
 897:Generated_Source\PSoC4/CapSense_1_Structure.c **** *
 898:Generated_Source\PSoC4/CapSense_1_Structure.c **** * \brief
 899:Generated_Source\PSoC4/CapSense_1_Structure.c **** *  Reports if any widget has detected a touch.
 900:Generated_Source\PSoC4/CapSense_1_Structure.c **** *
 901:Generated_Source\PSoC4/CapSense_1_Structure.c **** * \details
 902:Generated_Source\PSoC4/CapSense_1_Structure.c **** *  This function reports if any widget has detected a touch or not by extracting
 903:Generated_Source\PSoC4/CapSense_1_Structure.c **** *  information from the wdgtStatus registers
 904:Generated_Source\PSoC4/CapSense_1_Structure.c **** *  (CapSense_1_WDGT_STATUS<X>_VALUE). This function does not process a
 905:Generated_Source\PSoC4/CapSense_1_Structure.c **** *  widget but extracts processed results from the \ref group_structures.
 906:Generated_Source\PSoC4/CapSense_1_Structure.c **** *
 907:Generated_Source\PSoC4/CapSense_1_Structure.c **** * \return
 908:Generated_Source\PSoC4/CapSense_1_Structure.c **** *   Returns the touch detection status of all the widgets:
 909:Generated_Source\PSoC4/CapSense_1_Structure.c **** *     - Zero - No touch is detected in all the widgets or sensors.
 910:Generated_Source\PSoC4/CapSense_1_Structure.c **** *     - Non-zero - At least one widget or sensor detected a touch.
 911:Generated_Source\PSoC4/CapSense_1_Structure.c **** *
 912:Generated_Source\PSoC4/CapSense_1_Structure.c **** *******************************************************************************/
 913:Generated_Source\PSoC4/CapSense_1_Structure.c **** uint32 CapSense_1_IsAnyWidgetActive(void)
 914:Generated_Source\PSoC4/CapSense_1_Structure.c **** {
 468              		.loc 1 914 0
 469              		.cfi_startproc
 470              		@ args = 0, pretend = 0, frame = 0
 471              		@ frame_needed = 0, uses_anonymous_args = 0
 472              		@ link register save eliminated.
 473              	.LVL50:
 915:Generated_Source\PSoC4/CapSense_1_Structure.c ****     uint32 result = 0Lu;
 916:Generated_Source\PSoC4/CapSense_1_Structure.c ****     uint32 wdWord;
 917:Generated_Source\PSoC4/CapSense_1_Structure.c **** 
 918:Generated_Source\PSoC4/CapSense_1_Structure.c ****     for (wdWord = CapSense_1_WDGT_STATUS_WORDS; wdWord-- > 0u;)
 474              		.loc 1 918 0
 475 0000 0123     		movs	r3, #1
 915:Generated_Source\PSoC4/CapSense_1_Structure.c ****     uint32 result = 0Lu;
 476              		.loc 1 915 0
 477 0002 0020     		movs	r0, #0
 478              		.loc 1 918 0
ARM GAS  C:\Users\SHOZO\AppData\Local\Temp\ccih3v6m.s 			page 26


 479 0004 06E0     		b	.L42
 480              	.LVL51:
 481              	.L43:
 919:Generated_Source\PSoC4/CapSense_1_Structure.c ****     {
 920:Generated_Source\PSoC4/CapSense_1_Structure.c ****         result |= CapSense_1_dsRam.wdgtStatus[wdWord];
 482              		.loc 1 920 0
 483 0006 131D     		adds	r3, r2, #4
 484 0008 9B00     		lsls	r3, r3, #2
 485 000a 0449     		ldr	r1, .L44
 486 000c CB18     		adds	r3, r1, r3
 487 000e 5B68     		ldr	r3, [r3, #4]
 488 0010 1843     		orrs	r0, r3
 489              	.LVL52:
 918:Generated_Source\PSoC4/CapSense_1_Structure.c ****     {
 490              		.loc 1 918 0
 491 0012 1300     		movs	r3, r2
 492              	.LVL53:
 493              	.L42:
 918:Generated_Source\PSoC4/CapSense_1_Structure.c ****     {
 494              		.loc 1 918 0 is_stmt 0 discriminator 1
 495 0014 5A1E     		subs	r2, r3, #1
 496              	.LVL54:
 497 0016 002B     		cmp	r3, #0
 498 0018 F5D1     		bne	.L43
 921:Generated_Source\PSoC4/CapSense_1_Structure.c ****     }
 922:Generated_Source\PSoC4/CapSense_1_Structure.c **** 
 923:Generated_Source\PSoC4/CapSense_1_Structure.c ****     return result;
 924:Generated_Source\PSoC4/CapSense_1_Structure.c **** }
 499              		.loc 1 924 0 is_stmt 1
 500              		@ sp needed
 501 001a 7047     		bx	lr
 502              	.L45:
 503              		.align	2
 504              	.L44:
 505 001c 00000000 		.word	CapSense_1_dsRam
 506              		.cfi_endproc
 507              	.LFE4:
 508              		.size	CapSense_1_IsAnyWidgetActive, .-CapSense_1_IsAnyWidgetActive
 509              		.section	.text.CapSense_1_IsWidgetActive,"ax",%progbits
 510              		.align	2
 511              		.global	CapSense_1_IsWidgetActive
 512              		.code	16
 513              		.thumb_func
 514              		.type	CapSense_1_IsWidgetActive, %function
 515              	CapSense_1_IsWidgetActive:
 516              	.LFB5:
 925:Generated_Source\PSoC4/CapSense_1_Structure.c **** 
 926:Generated_Source\PSoC4/CapSense_1_Structure.c **** 
 927:Generated_Source\PSoC4/CapSense_1_Structure.c **** /*******************************************************************************
 928:Generated_Source\PSoC4/CapSense_1_Structure.c **** * Function Name: CapSense_1_IsWidgetActive
 929:Generated_Source\PSoC4/CapSense_1_Structure.c **** ****************************************************************************//**
 930:Generated_Source\PSoC4/CapSense_1_Structure.c **** *
 931:Generated_Source\PSoC4/CapSense_1_Structure.c **** * \brief
 932:Generated_Source\PSoC4/CapSense_1_Structure.c **** *  Reports if the specified widget detects a touch on any of its sensors.
 933:Generated_Source\PSoC4/CapSense_1_Structure.c **** *
 934:Generated_Source\PSoC4/CapSense_1_Structure.c **** * \details
 935:Generated_Source\PSoC4/CapSense_1_Structure.c **** *  This function reports if the specified widget has detected a touch or not by
ARM GAS  C:\Users\SHOZO\AppData\Local\Temp\ccih3v6m.s 			page 27


 936:Generated_Source\PSoC4/CapSense_1_Structure.c **** *  extracting information from the wdgtStatus registers
 937:Generated_Source\PSoC4/CapSense_1_Structure.c **** *  (CapSense_1_WDGT_STATUS<X>_VALUE). This function does not process the
 938:Generated_Source\PSoC4/CapSense_1_Structure.c **** *  widget but extracts processed results from the \ref group_structures.
 939:Generated_Source\PSoC4/CapSense_1_Structure.c **** *
 940:Generated_Source\PSoC4/CapSense_1_Structure.c **** * \param widgetId
 941:Generated_Source\PSoC4/CapSense_1_Structure.c **** *  Specifies the ID number of the widget to get its status.
 942:Generated_Source\PSoC4/CapSense_1_Structure.c **** *  A macro for the widget ID can be found in the CapSense_1 Configuration header
 943:Generated_Source\PSoC4/CapSense_1_Structure.c **** *  file defined as CapSense_1_<WidgetName>_WDGT_ID.
 944:Generated_Source\PSoC4/CapSense_1_Structure.c **** *
 945:Generated_Source\PSoC4/CapSense_1_Structure.c **** * \return
 946:Generated_Source\PSoC4/CapSense_1_Structure.c **** *  Returns the touch detection status of the specified widgets:
 947:Generated_Source\PSoC4/CapSense_1_Structure.c **** *    - Zero - No touch is detected in the specified widget or a wrong widgetId
 948:Generated_Source\PSoC4/CapSense_1_Structure.c **** *      is specified.
 949:Generated_Source\PSoC4/CapSense_1_Structure.c **** *    - Non-zero if at least one sensor of the specified widget is active, i.e.
 950:Generated_Source\PSoC4/CapSense_1_Structure.c **** *      a touch is detected.
 951:Generated_Source\PSoC4/CapSense_1_Structure.c **** *
 952:Generated_Source\PSoC4/CapSense_1_Structure.c **** *******************************************************************************/
 953:Generated_Source\PSoC4/CapSense_1_Structure.c **** uint32 CapSense_1_IsWidgetActive(uint32 widgetId)
 954:Generated_Source\PSoC4/CapSense_1_Structure.c **** {
 517              		.loc 1 954 0
 518              		.cfi_startproc
 519              		@ args = 0, pretend = 0, frame = 0
 520              		@ frame_needed = 0, uses_anonymous_args = 0
 521              		@ link register save eliminated.
 522              	.LVL55:
 955:Generated_Source\PSoC4/CapSense_1_Structure.c ****     uint32 result = 0Lu;
 956:Generated_Source\PSoC4/CapSense_1_Structure.c **** 
 957:Generated_Source\PSoC4/CapSense_1_Structure.c ****     if (widgetId < CapSense_1_TOTAL_WIDGETS)
 523              		.loc 1 957 0
 524 0000 0028     		cmp	r0, #0
 525 0002 0BD1     		bne	.L48
 958:Generated_Source\PSoC4/CapSense_1_Structure.c ****     {
 959:Generated_Source\PSoC4/CapSense_1_Structure.c ****         result = CapSense_1_GET_WIDGET_ACTIVE_STATUS(widgetId);
 526              		.loc 1 959 0
 527 0004 1F23     		movs	r3, #31
 528 0006 0340     		ands	r3, r0
 529 0008 0122     		movs	r2, #1
 530 000a 9A40     		lsls	r2, r2, r3
 531 000c 4009     		lsrs	r0, r0, #5
 532              	.LVL56:
 533 000e 031D     		adds	r3, r0, #4
 534 0010 9B00     		lsls	r3, r3, #2
 535 0012 0348     		ldr	r0, .L49
 536 0014 C318     		adds	r3, r0, r3
 537 0016 5868     		ldr	r0, [r3, #4]
 538 0018 1040     		ands	r0, r2
 539              	.LVL57:
 540 001a 00E0     		b	.L47
 541              	.LVL58:
 542              	.L48:
 955:Generated_Source\PSoC4/CapSense_1_Structure.c ****     uint32 result = 0Lu;
 543              		.loc 1 955 0
 544 001c 0020     		movs	r0, #0
 545              	.LVL59:
 546              	.L47:
 960:Generated_Source\PSoC4/CapSense_1_Structure.c ****     }
 961:Generated_Source\PSoC4/CapSense_1_Structure.c ****     return result;
ARM GAS  C:\Users\SHOZO\AppData\Local\Temp\ccih3v6m.s 			page 28


 962:Generated_Source\PSoC4/CapSense_1_Structure.c **** }
 547              		.loc 1 962 0
 548              		@ sp needed
 549 001e 7047     		bx	lr
 550              	.L50:
 551              		.align	2
 552              	.L49:
 553 0020 00000000 		.word	CapSense_1_dsRam
 554              		.cfi_endproc
 555              	.LFE5:
 556              		.size	CapSense_1_IsWidgetActive, .-CapSense_1_IsWidgetActive
 557              		.section	.text.CapSense_1_IsSensorActive,"ax",%progbits
 558              		.align	2
 559              		.global	CapSense_1_IsSensorActive
 560              		.code	16
 561              		.thumb_func
 562              		.type	CapSense_1_IsSensorActive, %function
 563              	CapSense_1_IsSensorActive:
 564              	.LFB6:
 963:Generated_Source\PSoC4/CapSense_1_Structure.c **** 
 964:Generated_Source\PSoC4/CapSense_1_Structure.c **** 
 965:Generated_Source\PSoC4/CapSense_1_Structure.c **** /*******************************************************************************
 966:Generated_Source\PSoC4/CapSense_1_Structure.c **** * Function Name: CapSense_1_IsSensorActive
 967:Generated_Source\PSoC4/CapSense_1_Structure.c **** ****************************************************************************//**
 968:Generated_Source\PSoC4/CapSense_1_Structure.c **** *
 969:Generated_Source\PSoC4/CapSense_1_Structure.c **** * \brief
 970:Generated_Source\PSoC4/CapSense_1_Structure.c **** *  Reports if the specified sensor in the widget detects a touch.
 971:Generated_Source\PSoC4/CapSense_1_Structure.c **** *
 972:Generated_Source\PSoC4/CapSense_1_Structure.c **** * \details
 973:Generated_Source\PSoC4/CapSense_1_Structure.c **** *  This function reports if the specified sensor in the widget has detected a
 974:Generated_Source\PSoC4/CapSense_1_Structure.c **** *  touch or not by extracting information from the wdgtStatus registers
 975:Generated_Source\PSoC4/CapSense_1_Structure.c **** *  (CapSense_1_WDGT_STATUS<X>_VALUE). This function does not process the
 976:Generated_Source\PSoC4/CapSense_1_Structure.c **** *  widget or sensor but extracts processed results from the \ref group_structures.
 977:Generated_Source\PSoC4/CapSense_1_Structure.c **** *
 978:Generated_Source\PSoC4/CapSense_1_Structure.c **** *  For proximity sensors, this function returns the proximity detection status. To
 979:Generated_Source\PSoC4/CapSense_1_Structure.c **** *  get the finger touch status of proximity sensors, use the
 980:Generated_Source\PSoC4/CapSense_1_Structure.c **** *  CapSense_1_IsProximitySensorActive() function.
 981:Generated_Source\PSoC4/CapSense_1_Structure.c **** *
 982:Generated_Source\PSoC4/CapSense_1_Structure.c **** * \param widgetId
 983:Generated_Source\PSoC4/CapSense_1_Structure.c **** *  Specifies the ID number of the widget.
 984:Generated_Source\PSoC4/CapSense_1_Structure.c **** *  A macro for the widget ID can be found in the CapSense_1 Configuration header
 985:Generated_Source\PSoC4/CapSense_1_Structure.c **** *  file defined as CapSense_1_<WidgetName>_WDGT_ID.
 986:Generated_Source\PSoC4/CapSense_1_Structure.c **** 
 987:Generated_Source\PSoC4/CapSense_1_Structure.c **** * \param sensorId
 988:Generated_Source\PSoC4/CapSense_1_Structure.c **** *  Specifies the ID number of the sensor within the widget to get its touch
 989:Generated_Source\PSoC4/CapSense_1_Structure.c **** *  detection status.
 990:Generated_Source\PSoC4/CapSense_1_Structure.c **** *  A macro for the sensor ID within the specified widget can be found in the
 991:Generated_Source\PSoC4/CapSense_1_Structure.c **** *  CapSense_1 Configuration header file defined as
 992:Generated_Source\PSoC4/CapSense_1_Structure.c **** *  CapSense_1_<WidgetName>_SNS<SensorNumber>_ID.
 993:Generated_Source\PSoC4/CapSense_1_Structure.c **** *
 994:Generated_Source\PSoC4/CapSense_1_Structure.c **** * \return
 995:Generated_Source\PSoC4/CapSense_1_Structure.c **** *  Returns the touch detection status of the specified sensor / widget:
 996:Generated_Source\PSoC4/CapSense_1_Structure.c **** *    - Zero if no touch is detected in the specified sensor / widget or a wrong
 997:Generated_Source\PSoC4/CapSense_1_Structure.c **** *      widget ID / sensor ID is specified.
 998:Generated_Source\PSoC4/CapSense_1_Structure.c **** *    - Non-zero if the specified sensor is active i.e. touch is detected. If the
 999:Generated_Source\PSoC4/CapSense_1_Structure.c **** *      specific sensor belongs to a proximity widget, the proximity detection
1000:Generated_Source\PSoC4/CapSense_1_Structure.c **** *      status is returned.
ARM GAS  C:\Users\SHOZO\AppData\Local\Temp\ccih3v6m.s 			page 29


1001:Generated_Source\PSoC4/CapSense_1_Structure.c **** *
1002:Generated_Source\PSoC4/CapSense_1_Structure.c **** *******************************************************************************/
1003:Generated_Source\PSoC4/CapSense_1_Structure.c **** uint32 CapSense_1_IsSensorActive(uint32 widgetId, uint32 sensorId)
1004:Generated_Source\PSoC4/CapSense_1_Structure.c **** {
 565              		.loc 1 1004 0
 566              		.cfi_startproc
 567              		@ args = 0, pretend = 0, frame = 0
 568              		@ frame_needed = 0, uses_anonymous_args = 0
 569              		@ link register save eliminated.
 570              	.LVL60:
1005:Generated_Source\PSoC4/CapSense_1_Structure.c ****     uint32 result = 0Lu;
1006:Generated_Source\PSoC4/CapSense_1_Structure.c **** 
1007:Generated_Source\PSoC4/CapSense_1_Structure.c ****     if ((widgetId < CapSense_1_TOTAL_WIDGETS) &&
 571              		.loc 1 1007 0
 572 0000 0028     		cmp	r0, #0
 573 0002 0DD1     		bne	.L53
1008:Generated_Source\PSoC4/CapSense_1_Structure.c ****         (sensorId < CapSense_1_GET_SENSOR_COUNT(widgetId)))
 574              		.loc 1 1008 0 discriminator 1
 575 0004 2C23     		movs	r3, #44
 576 0006 4343     		muls	r3, r0
 577 0008 074A     		ldr	r2, .L55
 578 000a D318     		adds	r3, r2, r3
 579 000c 1B8C     		ldrh	r3, [r3, #32]
1007:Generated_Source\PSoC4/CapSense_1_Structure.c ****         (sensorId < CapSense_1_GET_SENSOR_COUNT(widgetId)))
 580              		.loc 1 1007 0 discriminator 1
 581 000e 8B42     		cmp	r3, r1
 582 0010 08D9     		bls	.L54
1009:Generated_Source\PSoC4/CapSense_1_Structure.c ****     {
1010:Generated_Source\PSoC4/CapSense_1_Structure.c ****         #if (CapSense_1_ENABLE == CapSense_1_PROXIMITY_WIDGET_EN)
1011:Generated_Source\PSoC4/CapSense_1_Structure.c ****             if (CapSense_1_WD_PROXIMITY_E ==
1012:Generated_Source\PSoC4/CapSense_1_Structure.c ****                 (CapSense_1_WD_TYPE_ENUM)CapSense_1_dsFlash.wdgtArray[widgetId].wdgtType)
1013:Generated_Source\PSoC4/CapSense_1_Structure.c ****             {
1014:Generated_Source\PSoC4/CapSense_1_Structure.c ****                 sensorId = CapSense_1_PROX_STS_OFFSET(sensorId);
1015:Generated_Source\PSoC4/CapSense_1_Structure.c ****             }
1016:Generated_Source\PSoC4/CapSense_1_Structure.c ****         #endif /* (CapSense_1_ENABLE != CapSense_1_PROXIMITY_WIDGET_EN) */
1017:Generated_Source\PSoC4/CapSense_1_Structure.c ****         result = CapSense_1_dsRam.snsStatus[widgetId] & (1Lu << sensorId);
 583              		.loc 1 1017 0
 584 0012 064B     		ldr	r3, .L55+4
 585 0014 1818     		adds	r0, r3, r0
 586              	.LVL61:
 587 0016 037E     		ldrb	r3, [r0, #24]
 588 0018 0120     		movs	r0, #1
 589 001a 8840     		lsls	r0, r0, r1
 590 001c 1840     		ands	r0, r3
 591              	.LVL62:
 592 001e 02E0     		b	.L52
 593              	.LVL63:
 594              	.L53:
1005:Generated_Source\PSoC4/CapSense_1_Structure.c **** 
 595              		.loc 1 1005 0
 596 0020 0020     		movs	r0, #0
 597              	.LVL64:
 598 0022 00E0     		b	.L52
 599              	.LVL65:
 600              	.L54:
 601 0024 0020     		movs	r0, #0
 602              	.LVL66:
ARM GAS  C:\Users\SHOZO\AppData\Local\Temp\ccih3v6m.s 			page 30


 603              	.L52:
1018:Generated_Source\PSoC4/CapSense_1_Structure.c ****     }
1019:Generated_Source\PSoC4/CapSense_1_Structure.c **** 
1020:Generated_Source\PSoC4/CapSense_1_Structure.c ****     return result;
1021:Generated_Source\PSoC4/CapSense_1_Structure.c **** }
 604              		.loc 1 1021 0
 605              		@ sp needed
 606 0026 7047     		bx	lr
 607              	.L56:
 608              		.align	2
 609              	.L55:
 610 0028 00000000 		.word	.LANCHOR0
 611 002c 00000000 		.word	CapSense_1_dsRam
 612              		.cfi_endproc
 613              	.LFE6:
 614              		.size	CapSense_1_IsSensorActive, .-CapSense_1_IsSensorActive
 615              		.section	.text.CapSense_1_GetCentroidPos,"ax",%progbits
 616              		.align	2
 617              		.global	CapSense_1_GetCentroidPos
 618              		.code	16
 619              		.thumb_func
 620              		.type	CapSense_1_GetCentroidPos, %function
 621              	CapSense_1_GetCentroidPos:
 622              	.LFB7:
1022:Generated_Source\PSoC4/CapSense_1_Structure.c **** 
1023:Generated_Source\PSoC4/CapSense_1_Structure.c **** #if (0u != CapSense_1_MATRIX_WIDGET_EN)
1024:Generated_Source\PSoC4/CapSense_1_Structure.c **** /*******************************************************************************
1025:Generated_Source\PSoC4/CapSense_1_Structure.c **** * Function Name: CapSense_1_IsMatrixButtonsActive
1026:Generated_Source\PSoC4/CapSense_1_Structure.c **** ****************************************************************************//**
1027:Generated_Source\PSoC4/CapSense_1_Structure.c **** *
1028:Generated_Source\PSoC4/CapSense_1_Structure.c **** * \brief
1029:Generated_Source\PSoC4/CapSense_1_Structure.c **** *  Reports the status of the specified matrix button widget.
1030:Generated_Source\PSoC4/CapSense_1_Structure.c **** *
1031:Generated_Source\PSoC4/CapSense_1_Structure.c **** * \details
1032:Generated_Source\PSoC4/CapSense_1_Structure.c **** *  This function reports if the specified matrix widget has detected a touch or
1033:Generated_Source\PSoC4/CapSense_1_Structure.c **** *  not by extracting information from the wdgtStatus registers
1034:Generated_Source\PSoC4/CapSense_1_Structure.c **** *  (CapSense_1_WDGT_STATUS<X>_VALUE for the CSD widgets and
1035:Generated_Source\PSoC4/CapSense_1_Structure.c **** *  CapSense_1_SNS_STATUS<WidgetId>_VALUE for CSX widget). In addition, the
1036:Generated_Source\PSoC4/CapSense_1_Structure.c **** *  function provides details of the active sensor including active rows/columns
1037:Generated_Source\PSoC4/CapSense_1_Structure.c **** *  for the CSD widgets. This function is used only with the matrix button
1038:Generated_Source\PSoC4/CapSense_1_Structure.c **** *  widgets. This function does not process the widget but extracts
1039:Generated_Source\PSoC4/CapSense_1_Structure.c **** *  processed results from the \ref group_structures.
1040:Generated_Source\PSoC4/CapSense_1_Structure.c **** *
1041:Generated_Source\PSoC4/CapSense_1_Structure.c **** * \param widgetId
1042:Generated_Source\PSoC4/CapSense_1_Structure.c **** *  Specifies the ID number of the matrix button widget to check the status of its
1043:Generated_Source\PSoC4/CapSense_1_Structure.c **** *  sensors.
1044:Generated_Source\PSoC4/CapSense_1_Structure.c **** *  A macro for the widget ID can be found in the CapSense_1 Configuration header file
1045:Generated_Source\PSoC4/CapSense_1_Structure.c **** *  defined as CapSense_1_<WidgetName>_WDGT_ID
1046:Generated_Source\PSoC4/CapSense_1_Structure.c **** *
1047:Generated_Source\PSoC4/CapSense_1_Structure.c **** * \return
1048:Generated_Source\PSoC4/CapSense_1_Structure.c **** *  Returns the touch detection status of the sensors in the specified matrix
1049:Generated_Source\PSoC4/CapSense_1_Structure.c **** *  buttons widget. Zero indicates that no touch is detected in the specified
1050:Generated_Source\PSoC4/CapSense_1_Structure.c **** *  widget or a wrong widgetId is specified.
1051:Generated_Source\PSoC4/CapSense_1_Structure.c **** *    1. For the matrix buttons widgets with the CSD sensing mode:
1052:Generated_Source\PSoC4/CapSense_1_Structure.c **** *      - Bit [31] if set, indicates that one or more sensors in the widget
1053:Generated_Source\PSoC4/CapSense_1_Structure.c **** *        detected a touch.
1054:Generated_Source\PSoC4/CapSense_1_Structure.c **** *      - Bits [30..24] are reserved
ARM GAS  C:\Users\SHOZO\AppData\Local\Temp\ccih3v6m.s 			page 31


1055:Generated_Source\PSoC4/CapSense_1_Structure.c **** *      - Bits [23..16] indicate the logical sensor number of the sensor that
1056:Generated_Source\PSoC4/CapSense_1_Structure.c **** *        detected a touch. If more than one sensor detected a touch for the CSD
1057:Generated_Source\PSoC4/CapSense_1_Structure.c **** *        widget, no status is reported because more than one touch is invalid for the
1058:Generated_Source\PSoC4/CapSense_1_Structure.c **** *        CSD matrix buttons widgets.
1059:Generated_Source\PSoC4/CapSense_1_Structure.c **** *      - Bits [15..8] indicate the active row number.
1060:Generated_Source\PSoC4/CapSense_1_Structure.c **** *      - Bits [7..0] indicate the active column number.
1061:Generated_Source\PSoC4/CapSense_1_Structure.c **** *    2. For the matrix buttons widgets with the CSX widgets, each bit (31..0)
1062:Generated_Source\PSoC4/CapSense_1_Structure.c **** *      corresponds to the TX/RX intersection.
1063:Generated_Source\PSoC4/CapSense_1_Structure.c **** *
1064:Generated_Source\PSoC4/CapSense_1_Structure.c **** *******************************************************************************/
1065:Generated_Source\PSoC4/CapSense_1_Structure.c **** uint32 CapSense_1_IsMatrixButtonsActive(uint32 widgetId)
1066:Generated_Source\PSoC4/CapSense_1_Structure.c **** {
1067:Generated_Source\PSoC4/CapSense_1_Structure.c ****     uint32 result = 0Lu;
1068:Generated_Source\PSoC4/CapSense_1_Structure.c ****     cystatus state = CYRET_SUCCESS;
1069:Generated_Source\PSoC4/CapSense_1_Structure.c ****     CapSense_1_FLASH_WD_STRUCT const *ptrFlashWdgt = 0u;
1070:Generated_Source\PSoC4/CapSense_1_Structure.c **** 
1071:Generated_Source\PSoC4/CapSense_1_Structure.c ****     #if (0u != CapSense_1_CSD_MATRIX_WIDGET_EN)
1072:Generated_Source\PSoC4/CapSense_1_Structure.c ****         CapSense_1_RAM_WD_CSD_MATRIX_STRUCT *wdCsdMatrix;
1073:Generated_Source\PSoC4/CapSense_1_Structure.c ****     #endif
1074:Generated_Source\PSoC4/CapSense_1_Structure.c **** 
1075:Generated_Source\PSoC4/CapSense_1_Structure.c ****     if (widgetId >= CapSense_1_TOTAL_WIDGETS)
1076:Generated_Source\PSoC4/CapSense_1_Structure.c ****     {
1077:Generated_Source\PSoC4/CapSense_1_Structure.c ****         state = CYRET_BAD_PARAM;
1078:Generated_Source\PSoC4/CapSense_1_Structure.c ****     }
1079:Generated_Source\PSoC4/CapSense_1_Structure.c ****     else
1080:Generated_Source\PSoC4/CapSense_1_Structure.c ****     {
1081:Generated_Source\PSoC4/CapSense_1_Structure.c ****         ptrFlashWdgt = &CapSense_1_dsFlash.wdgtArray[widgetId];
1082:Generated_Source\PSoC4/CapSense_1_Structure.c **** 
1083:Generated_Source\PSoC4/CapSense_1_Structure.c ****         if ((CapSense_1_WD_TYPE_ENUM)ptrFlashWdgt->wdgtType != CapSense_1_WD_MATRIX_BUTTON_E)
1084:Generated_Source\PSoC4/CapSense_1_Structure.c ****         {
1085:Generated_Source\PSoC4/CapSense_1_Structure.c ****             state = CYRET_BAD_PARAM;
1086:Generated_Source\PSoC4/CapSense_1_Structure.c ****         }
1087:Generated_Source\PSoC4/CapSense_1_Structure.c ****         else if (0u == CapSense_1_GET_WIDGET_ACTIVE_STATUS(widgetId))
1088:Generated_Source\PSoC4/CapSense_1_Structure.c ****         {
1089:Generated_Source\PSoC4/CapSense_1_Structure.c ****             state = CYRET_BAD_PARAM;
1090:Generated_Source\PSoC4/CapSense_1_Structure.c ****         }
1091:Generated_Source\PSoC4/CapSense_1_Structure.c ****         else
1092:Generated_Source\PSoC4/CapSense_1_Structure.c ****         {
1093:Generated_Source\PSoC4/CapSense_1_Structure.c ****             /* input parameters are OK */
1094:Generated_Source\PSoC4/CapSense_1_Structure.c ****         }
1095:Generated_Source\PSoC4/CapSense_1_Structure.c ****     }
1096:Generated_Source\PSoC4/CapSense_1_Structure.c **** 
1097:Generated_Source\PSoC4/CapSense_1_Structure.c ****     if (CYRET_SUCCESS == state)
1098:Generated_Source\PSoC4/CapSense_1_Structure.c ****     {
1099:Generated_Source\PSoC4/CapSense_1_Structure.c ****         switch(CapSense_1_GET_SENSE_METHOD(ptrFlashWdgt))
1100:Generated_Source\PSoC4/CapSense_1_Structure.c ****         {
1101:Generated_Source\PSoC4/CapSense_1_Structure.c ****         #if (0u != CapSense_1_CSD_MATRIX_WIDGET_EN)
1102:Generated_Source\PSoC4/CapSense_1_Structure.c ****             case CapSense_1_SENSE_METHOD_CSD_E:
1103:Generated_Source\PSoC4/CapSense_1_Structure.c ****                 wdCsdMatrix = ptrFlashWdgt->ptr2WdgtRam;
1104:Generated_Source\PSoC4/CapSense_1_Structure.c **** 
1105:Generated_Source\PSoC4/CapSense_1_Structure.c ****                 result = CapSense_1_MATRIX_BUTTONS_TOUCHED |
1106:Generated_Source\PSoC4/CapSense_1_Structure.c ****                          ((uint32)wdCsdMatrix->posSnsId << 16u)  |
1107:Generated_Source\PSoC4/CapSense_1_Structure.c ****                          ((uint32)wdCsdMatrix->posRow   << 8u)   |
1108:Generated_Source\PSoC4/CapSense_1_Structure.c ****                          (uint32)wdCsdMatrix->posCol;
1109:Generated_Source\PSoC4/CapSense_1_Structure.c ****                 break;
1110:Generated_Source\PSoC4/CapSense_1_Structure.c ****         #endif /* #if (0u != CapSense_1_CSD_MATRIX_WIDGET_EN) */
1111:Generated_Source\PSoC4/CapSense_1_Structure.c **** 
ARM GAS  C:\Users\SHOZO\AppData\Local\Temp\ccih3v6m.s 			page 32


1112:Generated_Source\PSoC4/CapSense_1_Structure.c ****         #if (0u != CapSense_1_CSX_MATRIX_WIDGET_EN)
1113:Generated_Source\PSoC4/CapSense_1_Structure.c ****             case CapSense_1_SENSE_METHOD_CSX_E:
1114:Generated_Source\PSoC4/CapSense_1_Structure.c ****                 result = CapSense_1_dsRam.snsStatus[widgetId];
1115:Generated_Source\PSoC4/CapSense_1_Structure.c ****                 break;
1116:Generated_Source\PSoC4/CapSense_1_Structure.c ****         #endif /* #if (0u != CapSense_1_CSX_MATRIX_WIDGET_EN) */
1117:Generated_Source\PSoC4/CapSense_1_Structure.c **** 
1118:Generated_Source\PSoC4/CapSense_1_Structure.c ****         default:
1119:Generated_Source\PSoC4/CapSense_1_Structure.c ****             CYASSERT(0u);
1120:Generated_Source\PSoC4/CapSense_1_Structure.c ****             break;
1121:Generated_Source\PSoC4/CapSense_1_Structure.c ****         }
1122:Generated_Source\PSoC4/CapSense_1_Structure.c ****     }
1123:Generated_Source\PSoC4/CapSense_1_Structure.c **** 
1124:Generated_Source\PSoC4/CapSense_1_Structure.c ****     return result;
1125:Generated_Source\PSoC4/CapSense_1_Structure.c **** }
1126:Generated_Source\PSoC4/CapSense_1_Structure.c **** #endif /* #if (0u != CapSense_1_MATRIX_WIDGET_EN) */
1127:Generated_Source\PSoC4/CapSense_1_Structure.c **** 
1128:Generated_Source\PSoC4/CapSense_1_Structure.c **** #if (0u != CapSense_1_PROXIMITY_WIDGET_EN)
1129:Generated_Source\PSoC4/CapSense_1_Structure.c **** /*******************************************************************************
1130:Generated_Source\PSoC4/CapSense_1_Structure.c **** * Function Name: CapSense_1_IsProximitySensorActive
1131:Generated_Source\PSoC4/CapSense_1_Structure.c **** ****************************************************************************//**
1132:Generated_Source\PSoC4/CapSense_1_Structure.c **** *
1133:Generated_Source\PSoC4/CapSense_1_Structure.c **** * \brief
1134:Generated_Source\PSoC4/CapSense_1_Structure.c **** *  Reports the finger detection status of the specified proximity widget/sensor.
1135:Generated_Source\PSoC4/CapSense_1_Structure.c **** *
1136:Generated_Source\PSoC4/CapSense_1_Structure.c **** * \details
1137:Generated_Source\PSoC4/CapSense_1_Structure.c **** *  This function reports if the specified proximity sensor has detected a touch
1138:Generated_Source\PSoC4/CapSense_1_Structure.c **** *  or not by extracting information from the wdgtStatus registers
1139:Generated_Source\PSoC4/CapSense_1_Structure.c **** *  (CapSense_1_SNS_STATUS<WidgetId>_VALUE). This function is used
1140:Generated_Source\PSoC4/CapSense_1_Structure.c **** *  only with proximity sensor widgets. This function does not process the
1141:Generated_Source\PSoC4/CapSense_1_Structure.c **** *  widget but extracts processed results from the \ref group_structures.
1142:Generated_Source\PSoC4/CapSense_1_Structure.c **** *
1143:Generated_Source\PSoC4/CapSense_1_Structure.c **** * \param widgetId
1144:Generated_Source\PSoC4/CapSense_1_Structure.c **** *  Specifies the ID number of the proximity widget.
1145:Generated_Source\PSoC4/CapSense_1_Structure.c **** *  A macro for the widget ID can be found in the CapSense_1 Configuration header
1146:Generated_Source\PSoC4/CapSense_1_Structure.c **** *  file defined as CapSense_1_<WidgetName>_WDGT_ID
1147:Generated_Source\PSoC4/CapSense_1_Structure.c **** *
1148:Generated_Source\PSoC4/CapSense_1_Structure.c **** * \param proxId
1149:Generated_Source\PSoC4/CapSense_1_Structure.c **** *  Specifies the ID number of the proximity sensor within the proximity widget to
1150:Generated_Source\PSoC4/CapSense_1_Structure.c **** *  get its touch detection status.
1151:Generated_Source\PSoC4/CapSense_1_Structure.c **** *  A macro for the proximity ID within a specified widget can be found in the
1152:Generated_Source\PSoC4/CapSense_1_Structure.c **** *  CapSense_1 Configuration header file defined as
1153:Generated_Source\PSoC4/CapSense_1_Structure.c **** *  CapSense_1_<WidgetName>_SNS<SensorNumber>_ID
1154:Generated_Source\PSoC4/CapSense_1_Structure.c **** *
1155:Generated_Source\PSoC4/CapSense_1_Structure.c **** * \return
1156:Generated_Source\PSoC4/CapSense_1_Structure.c **** *  Returns the status of the specified sensor of the proximity widget. Zero
1157:Generated_Source\PSoC4/CapSense_1_Structure.c **** *  indicates that no touch is detected in the specified sensor / widget or a
1158:Generated_Source\PSoC4/CapSense_1_Structure.c **** *  wrong widgetId / proxId is specified.
1159:Generated_Source\PSoC4/CapSense_1_Structure.c **** *    - Bits [31..2] are reserved.
1160:Generated_Source\PSoC4/CapSense_1_Structure.c **** *    - Bit [1] indicates that a touch is detected.
1161:Generated_Source\PSoC4/CapSense_1_Structure.c **** *    - Bit [0] indicates that a proximity is detected.
1162:Generated_Source\PSoC4/CapSense_1_Structure.c **** *
1163:Generated_Source\PSoC4/CapSense_1_Structure.c **** *******************************************************************************/
1164:Generated_Source\PSoC4/CapSense_1_Structure.c **** uint32 CapSense_1_IsProximitySensorActive(uint32 widgetId, uint32 proxId)
1165:Generated_Source\PSoC4/CapSense_1_Structure.c **** {
1166:Generated_Source\PSoC4/CapSense_1_Structure.c ****     uint32 result = 0Lu;
1167:Generated_Source\PSoC4/CapSense_1_Structure.c **** 
1168:Generated_Source\PSoC4/CapSense_1_Structure.c ****     if ((widgetId < CapSense_1_TOTAL_WIDGETS) && (proxId < CapSense_1_GET_SENSOR_COUNT(widgetId)) &
ARM GAS  C:\Users\SHOZO\AppData\Local\Temp\ccih3v6m.s 			page 33


1169:Generated_Source\PSoC4/CapSense_1_Structure.c ****         (CapSense_1_WD_PROXIMITY_E ==
1170:Generated_Source\PSoC4/CapSense_1_Structure.c ****             (CapSense_1_WD_TYPE_ENUM)CapSense_1_dsFlash.wdgtArray[widgetId].wdgtType))
1171:Generated_Source\PSoC4/CapSense_1_Structure.c ****     {
1172:Generated_Source\PSoC4/CapSense_1_Structure.c ****         result = CapSense_1_dsRam.snsStatus[widgetId];
1173:Generated_Source\PSoC4/CapSense_1_Structure.c ****         result >>= CapSense_1_PROX_STS_OFFSET(proxId);
1174:Generated_Source\PSoC4/CapSense_1_Structure.c ****         result &=  CapSense_1_PROX_STS_MASK;
1175:Generated_Source\PSoC4/CapSense_1_Structure.c ****     }
1176:Generated_Source\PSoC4/CapSense_1_Structure.c **** 
1177:Generated_Source\PSoC4/CapSense_1_Structure.c ****     return result;
1178:Generated_Source\PSoC4/CapSense_1_Structure.c **** }
1179:Generated_Source\PSoC4/CapSense_1_Structure.c **** #endif /* #if (0u != CapSense_1_PROXIMITY_WIDGET_EN) */
1180:Generated_Source\PSoC4/CapSense_1_Structure.c **** 
1181:Generated_Source\PSoC4/CapSense_1_Structure.c **** 
1182:Generated_Source\PSoC4/CapSense_1_Structure.c **** #if (0u != CapSense_1_SLIDER_WIDGET_EN)
1183:Generated_Source\PSoC4/CapSense_1_Structure.c **** /*******************************************************************************
1184:Generated_Source\PSoC4/CapSense_1_Structure.c **** * Function Name: CapSense_1_GetCentroidPos
1185:Generated_Source\PSoC4/CapSense_1_Structure.c **** ****************************************************************************//**
1186:Generated_Source\PSoC4/CapSense_1_Structure.c **** *
1187:Generated_Source\PSoC4/CapSense_1_Structure.c **** * \brief
1188:Generated_Source\PSoC4/CapSense_1_Structure.c **** *  Reports the centroid position for the specified slider widget.
1189:Generated_Source\PSoC4/CapSense_1_Structure.c **** *
1190:Generated_Source\PSoC4/CapSense_1_Structure.c **** * \details
1191:Generated_Source\PSoC4/CapSense_1_Structure.c **** *  This function reports the centroid value of a specified radial or linear
1192:Generated_Source\PSoC4/CapSense_1_Structure.c **** *  slider widget by extracting information from the wdgtStatus registers
1193:Generated_Source\PSoC4/CapSense_1_Structure.c **** *  (CapSense_1_<WidgetName>_POSITION<X>_VALUE). This function is
1194:Generated_Source\PSoC4/CapSense_1_Structure.c **** *  used only with radial or linear slider widgets. This function does not
1195:Generated_Source\PSoC4/CapSense_1_Structure.c **** *  process the widget but extracts processed results from the \ref group_structures.
1196:Generated_Source\PSoC4/CapSense_1_Structure.c **** *
1197:Generated_Source\PSoC4/CapSense_1_Structure.c **** * \param widgetId
1198:Generated_Source\PSoC4/CapSense_1_Structure.c **** *  Specifies the ID number of a slider widget to get the centroid of the
1199:Generated_Source\PSoC4/CapSense_1_Structure.c **** *  detected touch.
1200:Generated_Source\PSoC4/CapSense_1_Structure.c **** *  A macro for the widget ID can be found in the
1201:Generated_Source\PSoC4/CapSense_1_Structure.c **** *  CapSense_1 Configuration header file defined as
1202:Generated_Source\PSoC4/CapSense_1_Structure.c **** *  CapSense_1_<WidgetName>_WDGT_ID
1203:Generated_Source\PSoC4/CapSense_1_Structure.c **** *
1204:Generated_Source\PSoC4/CapSense_1_Structure.c **** * \return
1205:Generated_Source\PSoC4/CapSense_1_Structure.c **** *  Returns the centroid position of a specified slider widget:
1206:Generated_Source\PSoC4/CapSense_1_Structure.c **** *    - The centroid position if a touch is detected.
1207:Generated_Source\PSoC4/CapSense_1_Structure.c **** *    - CapSense_1_SLIDER_NO_TOUCH - No touch is detected or a wrong
1208:Generated_Source\PSoC4/CapSense_1_Structure.c **** *      widgetId is specified.
1209:Generated_Source\PSoC4/CapSense_1_Structure.c **** *
1210:Generated_Source\PSoC4/CapSense_1_Structure.c **** *******************************************************************************/
1211:Generated_Source\PSoC4/CapSense_1_Structure.c **** uint32 CapSense_1_GetCentroidPos(uint32 widgetId)
1212:Generated_Source\PSoC4/CapSense_1_Structure.c **** {
 623              		.loc 1 1212 0
 624              		.cfi_startproc
 625              		@ args = 0, pretend = 0, frame = 0
 626              		@ frame_needed = 0, uses_anonymous_args = 0
 627              		@ link register save eliminated.
 628              	.LVL67:
1213:Generated_Source\PSoC4/CapSense_1_Structure.c ****     uint32 result = CapSense_1_SLIDER_NO_TOUCH;
1214:Generated_Source\PSoC4/CapSense_1_Structure.c ****     CapSense_1_RAM_WD_SLIDER_STRUCT *wdSlider;
1215:Generated_Source\PSoC4/CapSense_1_Structure.c **** 
1216:Generated_Source\PSoC4/CapSense_1_Structure.c ****     if ((widgetId < CapSense_1_TOTAL_WIDGETS) &&
 629              		.loc 1 1216 0
 630 0000 0028     		cmp	r0, #0
 631 0002 0FD1     		bne	.L59
ARM GAS  C:\Users\SHOZO\AppData\Local\Temp\ccih3v6m.s 			page 34


1217:Generated_Source\PSoC4/CapSense_1_Structure.c ****         ((CapSense_1_WD_LINEAR_SLIDER_E ==
1218:Generated_Source\PSoC4/CapSense_1_Structure.c ****             (CapSense_1_WD_TYPE_ENUM)CapSense_1_dsFlash.wdgtArray[widgetId].wdgtType) ||
 632              		.loc 1 1218 0 discriminator 1
 633 0004 2C23     		movs	r3, #44
 634 0006 4343     		muls	r3, r0
 635 0008 084A     		ldr	r2, .L61
 636 000a D318     		adds	r3, r2, r3
 637 000c 2233     		adds	r3, r3, #34
 638 000e 1B78     		ldrb	r3, [r3]
 639 0010 023B     		subs	r3, r3, #2
 640 0012 DBB2     		uxtb	r3, r3
1216:Generated_Source\PSoC4/CapSense_1_Structure.c ****         ((CapSense_1_WD_LINEAR_SLIDER_E ==
 641              		.loc 1 1216 0 discriminator 1
 642 0014 012B     		cmp	r3, #1
 643 0016 07D8     		bhi	.L60
1219:Generated_Source\PSoC4/CapSense_1_Structure.c ****          (CapSense_1_WD_RADIAL_SLIDER_E ==
1220:Generated_Source\PSoC4/CapSense_1_Structure.c ****             (CapSense_1_WD_TYPE_ENUM)CapSense_1_dsFlash.wdgtArray[widgetId].wdgtType)))
1221:Generated_Source\PSoC4/CapSense_1_Structure.c ****     {
1222:Generated_Source\PSoC4/CapSense_1_Structure.c ****         wdSlider = CapSense_1_dsFlash.wdgtArray[widgetId].ptr2WdgtRam;
 644              		.loc 1 1222 0
 645 0018 2C23     		movs	r3, #44
 646 001a 5843     		muls	r0, r3
 647              	.LVL68:
 648 001c 1018     		adds	r0, r2, r0
 649 001e C368     		ldr	r3, [r0, #12]
 650              	.LVL69:
1223:Generated_Source\PSoC4/CapSense_1_Structure.c ****         result = (uint32)wdSlider->position[0u];
 651              		.loc 1 1223 0
 652 0020 988A     		ldrh	r0, [r3, #20]
 653              	.LVL70:
 654 0022 02E0     		b	.L58
 655              	.LVL71:
 656              	.L59:
1213:Generated_Source\PSoC4/CapSense_1_Structure.c ****     CapSense_1_RAM_WD_SLIDER_STRUCT *wdSlider;
 657              		.loc 1 1213 0
 658 0024 0248     		ldr	r0, .L61+4
 659              	.LVL72:
 660 0026 00E0     		b	.L58
 661              	.LVL73:
 662              	.L60:
 663 0028 0148     		ldr	r0, .L61+4
 664              	.LVL74:
 665              	.L58:
1224:Generated_Source\PSoC4/CapSense_1_Structure.c ****     }
1225:Generated_Source\PSoC4/CapSense_1_Structure.c **** 
1226:Generated_Source\PSoC4/CapSense_1_Structure.c ****     return result;
1227:Generated_Source\PSoC4/CapSense_1_Structure.c **** }
 666              		.loc 1 1227 0
 667              		@ sp needed
 668 002a 7047     		bx	lr
 669              	.L62:
 670              		.align	2
 671              	.L61:
 672 002c 00000000 		.word	.LANCHOR0
 673 0030 FFFF0000 		.word	65535
 674              		.cfi_endproc
 675              	.LFE7:
ARM GAS  C:\Users\SHOZO\AppData\Local\Temp\ccih3v6m.s 			page 35


 676              		.size	CapSense_1_GetCentroidPos, .-CapSense_1_GetCentroidPos
 677              		.global	CapSense_1_ramIdacInit
 678              		.global	CapSense_1_ramWidgetInit
 679              		.global	CapSense_1_ioList
 680              		.global	CapSense_1_dsFlash
 681              		.comm	CapSense_1_dsRam,112,4
 682              		.section	.rodata
 683              		.align	2
 684              		.set	.LANCHOR0,. + 0
 685              		.type	CapSense_1_ramIdacInit, %object
 686              		.size	CapSense_1_ramIdacInit, 5
 687              	CapSense_1_ramIdacInit:
 688 0000 20       		.byte	32
 689 0001 20       		.byte	32
 690 0002 20       		.byte	32
 691 0003 20       		.byte	32
 692 0004 20       		.byte	32
 693 0005 000000   		.space	3
 694              		.type	CapSense_1_dsFlash, %object
 695              		.size	CapSense_1_dsFlash, 44
 696              	CapSense_1_dsFlash:
 697 0008 00000000 		.word	CapSense_1_ioList
 698 000c 1E000000 		.word	CapSense_1_dsRam+30
 699 0010 34000000 		.word	CapSense_1_dsRam+52
 700 0014 00000000 		.word	0
 701 0018 3C000000 		.word	CapSense_1_debounceLinearSlider0
 702 001c 01280000 		.word	10241
 703 0020 0500     		.short	5
 704 0022 02       		.byte	2
 705 0023 05       		.byte	5
 706 0024 6400     		.short	100
 707 0026 0000     		.space	2
 708 0028 00190000 		.word	6400
 709 002c 00000000 		.word	CapSense_1_noiseEnvlpLinearSlider0
 710 0030 80       		.byte	-128
 711 0031 000000   		.space	3
 712              		.type	CapSense_1_ramWidgetInit, %object
 713              		.size	CapSense_1_ramWidgetInit, 22
 714              	CapSense_1_ramWidgetInit:
 715 0034 0C00     		.short	12
 716 0036 6400     		.short	100
 717 0038 28       		.byte	40
 718 0039 28       		.byte	40
 719 003a 0A       		.byte	10
 720 003b 03       		.byte	3
 721 003c 1E       		.byte	30
 722 003d 20       		.byte	32
 723 003e 00       		.byte	0
 724 003f 00       		.space	1
 725 0040 0400     		.short	4
 726 0042 00       		.byte	0
 727 0043 00       		.space	1
 728 0044 A000     		.short	160
 729 0046 0000     		.short	0
 730 0048 FFFF     		.short	-1
 731 004a 0000     		.space	2
 732              		.type	CapSense_1_ioList, %object
ARM GAS  C:\Users\SHOZO\AppData\Local\Temp\ccih3v6m.s 			page 36


 733              		.size	CapSense_1_ioList, 140
 734              	CapSense_1_ioList:
 735 004c 00000140 		.word	1073807360
 736 0050 08000440 		.word	1074003976
 737 0054 00000440 		.word	1074003968
 738 0058 04000440 		.word	1074003972
 739 005c 0000000F 		.word	251658240
 740 0060 40000000 		.word	64
 741 0064 18       		.byte	24
 742 0065 06       		.byte	6
 743 0066 12       		.byte	18
 744 0067 00       		.space	1
 745 0068 08000140 		.word	1073807368
 746 006c 08020440 		.word	1074004488
 747 0070 00020440 		.word	1074004480
 748 0074 04020440 		.word	1074004484
 749 0078 00000F00 		.word	983040
 750 007c 10000000 		.word	16
 751 0080 10       		.byte	16
 752 0081 04       		.byte	4
 753 0082 0C       		.byte	12
 754 0083 00       		.space	1
 755 0084 00000140 		.word	1073807360
 756 0088 08000440 		.word	1074003976
 757 008c 00000440 		.word	1074003968
 758 0090 04000440 		.word	1074003972
 759 0094 000000F0 		.word	-268435456
 760 0098 80000000 		.word	128
 761 009c 1C       		.byte	28
 762 009d 07       		.byte	7
 763 009e 15       		.byte	21
 764 009f 00       		.space	1
 765 00a0 00000140 		.word	1073807360
 766 00a4 08000440 		.word	1074003976
 767 00a8 00000440 		.word	1074003968
 768 00ac 04000440 		.word	1074003972
 769 00b0 0F000000 		.word	15
 770 00b4 01000000 		.word	1
 771 00b8 00       		.byte	0
 772 00b9 00       		.byte	0
 773 00ba 00       		.byte	0
 774 00bb 00       		.space	1
 775 00bc 00000140 		.word	1073807360
 776 00c0 08000440 		.word	1074003976
 777 00c4 00000440 		.word	1074003968
 778 00c8 04000440 		.word	1074003972
 779 00cc 00F00000 		.word	61440
 780 00d0 08000000 		.word	8
 781 00d4 0C       		.byte	12
 782 00d5 03       		.byte	3
 783 00d6 09       		.byte	9
 784 00d7 00       		.space	1
 785              		.bss
 786              		.align	2
 787              		.type	CapSense_1_noiseEnvlpLinearSlider0, %object
 788              		.size	CapSense_1_noiseEnvlpLinearSlider0, 60
 789              	CapSense_1_noiseEnvlpLinearSlider0:
ARM GAS  C:\Users\SHOZO\AppData\Local\Temp\ccih3v6m.s 			page 37


 790 0000 00000000 		.space	60
 790      00000000 
 790      00000000 
 790      00000000 
 790      00000000 
 791              		.type	CapSense_1_debounceLinearSlider0, %object
 792              		.size	CapSense_1_debounceLinearSlider0, 1
 793              	CapSense_1_debounceLinearSlider0:
 794 003c 00       		.space	1
 795              		.text
 796              	.Letext0:
 797              		.file 2 "Generated_Source\\PSoC4/cytypes.h"
 798              		.file 3 "Generated_Source\\PSoC4\\CapSense_1_Configuration.h"
 799              		.file 4 "Generated_Source\\PSoC4\\CapSense_1_SmartSense_LL.h"
 800              		.file 5 "Generated_Source\\PSoC4\\CapSense_1_Structure.h"
 801              		.file 6 "Generated_Source\\PSoC4\\CyLib.h"