ARM GAS  C:\Users\SHOZO\AppData\Local\Temp\ccinm8ur.s 			page 1


   1              		.syntax unified
   2              		.cpu cortex-m0
   3              		.fpu softvfp
   4              		.eabi_attribute 20, 1
   5              		.eabi_attribute 21, 1
   6              		.eabi_attribute 23, 3
   7              		.eabi_attribute 24, 1
   8              		.eabi_attribute 25, 1
   9              		.eabi_attribute 26, 1
  10              		.eabi_attribute 30, 1
  11              		.eabi_attribute 34, 0
  12              		.eabi_attribute 18, 4
  13              		.thumb
  14              		.syntax unified
  15              		.file	"CapSense_SMS.c"
  16              		.text
  17              	.Ltext0:
  18              		.cfi_sections	.debug_frame
  19              		.section	.text.CapSense_UpdateThresholds,"ax",%progbits
  20              		.align	2
  21              		.global	CapSense_UpdateThresholds
  22              		.code	16
  23              		.thumb_func
  24              		.type	CapSense_UpdateThresholds, %function
  25              	CapSense_UpdateThresholds:
  26              	.LFB33:
  27              		.file 1 "Generated_Source\\PSoC4\\CapSense_SMS.c"
   1:Generated_Source\PSoC4/CapSense_SMS.c **** /*******************************************************************************
   2:Generated_Source\PSoC4/CapSense_SMS.c **** * File Name: CapSense_SMS.c
   3:Generated_Source\PSoC4/CapSense_SMS.c **** * Version 2.60
   4:Generated_Source\PSoC4/CapSense_SMS.c **** *
   5:Generated_Source\PSoC4/CapSense_SMS.c **** * Description:
   6:Generated_Source\PSoC4/CapSense_SMS.c **** *  This file provides the source code of wrapper between CapSense CSD component
   7:Generated_Source\PSoC4/CapSense_SMS.c **** *  and Auto Tuning library.
   8:Generated_Source\PSoC4/CapSense_SMS.c **** *
   9:Generated_Source\PSoC4/CapSense_SMS.c **** * Note:
  10:Generated_Source\PSoC4/CapSense_SMS.c **** *
  11:Generated_Source\PSoC4/CapSense_SMS.c **** ********************************************************************************
  12:Generated_Source\PSoC4/CapSense_SMS.c **** * Copyright 2013-2016, Cypress Semiconductor Corporation.  All rights reserved.
  13:Generated_Source\PSoC4/CapSense_SMS.c **** * You may use this file only in accordance with the license, terms, conditions,
  14:Generated_Source\PSoC4/CapSense_SMS.c **** * disclaimers, and limitations in the end user license agreement accompanying
  15:Generated_Source\PSoC4/CapSense_SMS.c **** * the software package with which this file was provided.
  16:Generated_Source\PSoC4/CapSense_SMS.c **** *******************************************************************************/
  17:Generated_Source\PSoC4/CapSense_SMS.c **** 
  18:Generated_Source\PSoC4/CapSense_SMS.c **** #include "CapSense_SMS.h"
  19:Generated_Source\PSoC4/CapSense_SMS.c **** #include "CapSense_PVT.h"
  20:Generated_Source\PSoC4/CapSense_SMS.c **** 
  21:Generated_Source\PSoC4/CapSense_SMS.c **** #include "cytypes.h"
  22:Generated_Source\PSoC4/CapSense_SMS.c **** 
  23:Generated_Source\PSoC4/CapSense_SMS.c **** #if (CapSense_TUNING_METHOD == CapSense__TUNING_AUTO)
  24:Generated_Source\PSoC4/CapSense_SMS.c **** 
  25:Generated_Source\PSoC4/CapSense_SMS.c **** 
  26:Generated_Source\PSoC4/CapSense_SMS.c **** /*  Real Charge Divider values */
  27:Generated_Source\PSoC4/CapSense_SMS.c **** #if ((0u != CapSense_IS_M0S8PERI_BLOCK) && (0u == CY_PSOC4_4000))
  28:Generated_Source\PSoC4/CapSense_SMS.c ****     /*  Dividers are not chained */
  29:Generated_Source\PSoC4/CapSense_SMS.c ****     #if (CYDEV_BCLK__HFCLK__MHZ > 24u)
  30:Generated_Source\PSoC4/CapSense_SMS.c ****         const uint8 CapSense_prescalerTable[CapSense_PRESCALERS_TBL_SIZE] = {
ARM GAS  C:\Users\SHOZO\AppData\Local\Temp\ccinm8ur.s 			page 2


  31:Generated_Source\PSoC4/CapSense_SMS.c ****             4u,     4u,     4u,    8u,    8u,    8u,    8u,    16u,    16u,    16u,    16u,    16u,
  32:Generated_Source\PSoC4/CapSense_SMS.c ****         };
  33:Generated_Source\PSoC4/CapSense_SMS.c ****     #elif (CYDEV_BCLK__HFCLK__MHZ >12u)
  34:Generated_Source\PSoC4/CapSense_SMS.c ****         const uint8 CapSense_prescalerTable[CapSense_PRESCALERS_TBL_SIZE] = {
  35:Generated_Source\PSoC4/CapSense_SMS.c ****             2u,     2u,     2u,    4u,    4u,    4u,    4u,    8u,    8u,    8u,    8u,    8u,    8
  36:Generated_Source\PSoC4/CapSense_SMS.c ****         };
  37:Generated_Source\PSoC4/CapSense_SMS.c ****     #else   /* (CYDEV_BCLK__HFCLK__MHZ > 12u) */
  38:Generated_Source\PSoC4/CapSense_SMS.c ****         const uint8 CapSense_prescalerTable[CapSense_PRESCALERS_TBL_SIZE] = {
  39:Generated_Source\PSoC4/CapSense_SMS.c ****             1u,     1u,     1u,    2u,    2u,    2u,    2u,    4u,    4u,    4u,    4u,    4u,    4
  40:Generated_Source\PSoC4/CapSense_SMS.c ****         };
  41:Generated_Source\PSoC4/CapSense_SMS.c ****     #endif /* (CYDEV_BCLK__HFCLK__MHZ > 24u) */
  42:Generated_Source\PSoC4/CapSense_SMS.c **** 
  43:Generated_Source\PSoC4/CapSense_SMS.c **** #elif (0u != CapSense_IS_M0S8PERI_BLOCK)
  44:Generated_Source\PSoC4/CapSense_SMS.c ****     /*  Dividers are not chained (PSoC 4000) */
  45:Generated_Source\PSoC4/CapSense_SMS.c ****     #if (CYDEV_BCLK__HFCLK__MHZ >= 12u)
  46:Generated_Source\PSoC4/CapSense_SMS.c ****         const uint8 CapSense_prescalerTable[CapSense_PRESCALERS_TBL_SIZE] = {
  47:Generated_Source\PSoC4/CapSense_SMS.c ****             1u,     1u,     1u,    2u,    2u,    2u,    2u,    4u,    4u,    4u,    4u,    4u,    4
  48:Generated_Source\PSoC4/CapSense_SMS.c ****         };
  49:Generated_Source\PSoC4/CapSense_SMS.c **** 
  50:Generated_Source\PSoC4/CapSense_SMS.c ****     #elif (CYDEV_BCLK__HFCLK__MHZ >= 6u)
  51:Generated_Source\PSoC4/CapSense_SMS.c ****         const uint8 CapSense_prescalerTable[CapSense_PRESCALERS_TBL_SIZE] = {
  52:Generated_Source\PSoC4/CapSense_SMS.c ****             1u,     1u,     1u,    1u,    1u,    1u,    1u,    2u,    2u,    2u,    2u,    2u,    2
  53:Generated_Source\PSoC4/CapSense_SMS.c ****         };
  54:Generated_Source\PSoC4/CapSense_SMS.c ****     #else
  55:Generated_Source\PSoC4/CapSense_SMS.c ****         const uint8 CapSense_prescalerTable[CapSense_PRESCALERS_TBL_SIZE] = {
  56:Generated_Source\PSoC4/CapSense_SMS.c ****             1u,     1u,     1u,    1u,    1u,    1u,    1u,    1u,    1u,    1u,    1u,    1u,    1
  57:Generated_Source\PSoC4/CapSense_SMS.c ****         };
  58:Generated_Source\PSoC4/CapSense_SMS.c ****     #endif /* (CYDEV_BCLK__HFCLK__MHZ > 12u) */
  59:Generated_Source\PSoC4/CapSense_SMS.c **** 
  60:Generated_Source\PSoC4/CapSense_SMS.c **** #else
  61:Generated_Source\PSoC4/CapSense_SMS.c ****     /*  Dividers are chained (PSoC 4100, PSoC 4200) */
  62:Generated_Source\PSoC4/CapSense_SMS.c ****     #if (CYDEV_BCLK__HFCLK__MHZ > 24u)
  63:Generated_Source\PSoC4/CapSense_SMS.c ****         const uint8 CapSense_prescalerTable[CapSense_PRESCALERS_TBL_SIZE] = {
  64:Generated_Source\PSoC4/CapSense_SMS.c ****             2u,     2u,     2u,    4u,    4u,    4u,    4u,    8u,    8u,    8u,    8u,    8u,    8
  65:Generated_Source\PSoC4/CapSense_SMS.c ****         };
  66:Generated_Source\PSoC4/CapSense_SMS.c **** 
  67:Generated_Source\PSoC4/CapSense_SMS.c ****     #elif (CYDEV_BCLK__HFCLK__MHZ >12u)
  68:Generated_Source\PSoC4/CapSense_SMS.c ****         const uint8 CapSense_prescalerTable[CapSense_PRESCALERS_TBL_SIZE] = {
  69:Generated_Source\PSoC4/CapSense_SMS.c ****             1u,     1u,     1u,    2u,    2u,    2u,    2u,    4u,    4u,    4u,    4u,    4u,    4
  70:Generated_Source\PSoC4/CapSense_SMS.c ****         };
  71:Generated_Source\PSoC4/CapSense_SMS.c ****     #else   /* (CYDEV_BCLK__HFCLK__MHZ > 12u) */
  72:Generated_Source\PSoC4/CapSense_SMS.c ****         const uint8 CapSense_prescalerTable[CapSense_PRESCALERS_TBL_SIZE] = {
  73:Generated_Source\PSoC4/CapSense_SMS.c ****             1u,     1u,     1u,    1u,    1u,    1u,    1u,    2u,    2u,    2u,    2u,    2u,    2
  74:Generated_Source\PSoC4/CapSense_SMS.c ****         };
  75:Generated_Source\PSoC4/CapSense_SMS.c ****     #endif /* (CYDEV_BCLK__HFCLK__MHZ > 24u) */
  76:Generated_Source\PSoC4/CapSense_SMS.c **** #endif /* ((0u != CapSense_IS_M0S8PERI_BLOCK) && (0u == CY_PSOC4_4000)) */
  77:Generated_Source\PSoC4/CapSense_SMS.c **** 
  78:Generated_Source\PSoC4/CapSense_SMS.c **** 
  79:Generated_Source\PSoC4/CapSense_SMS.c **** uint8 CapSense_noiseEnvelopeTbl[CapSense_TOTAL_SENSOR_COUNT];
  80:Generated_Source\PSoC4/CapSense_SMS.c **** uint8 CapSense_runningDifferenceTbl[CapSense_TOTAL_SENSOR_COUNT];
  81:Generated_Source\PSoC4/CapSense_SMS.c **** uint8 CapSense_signRegisterTbl[CapSense_TOTAL_SENSOR_COUNT];
  82:Generated_Source\PSoC4/CapSense_SMS.c **** uint16 CapSense_sampleMinTbl[CapSense_TOTAL_SENSOR_COUNT];
  83:Generated_Source\PSoC4/CapSense_SMS.c **** uint16 CapSense_sampleMaxTbl[CapSense_TOTAL_SENSOR_COUNT];
  84:Generated_Source\PSoC4/CapSense_SMS.c **** uint16 CapSense_previousSampleTbl[CapSense_TOTAL_SENSOR_COUNT];
  85:Generated_Source\PSoC4/CapSense_SMS.c **** uint8 CapSense_kValueTbl[CapSense_TOTAL_SENSOR_COUNT];
  86:Generated_Source\PSoC4/CapSense_SMS.c **** 
  87:Generated_Source\PSoC4/CapSense_SMS.c **** uint8 CapSense_sensorSensitivity[] = {
ARM GAS  C:\Users\SHOZO\AppData\Local\Temp\ccinm8ur.s 			page 3


  88:Generated_Source\PSoC4/CapSense_SMS.c ****     2u, 2u, 2u, 2u, 2u, 2u, 
  89:Generated_Source\PSoC4/CapSense_SMS.c **** };
  90:Generated_Source\PSoC4/CapSense_SMS.c **** 
  91:Generated_Source\PSoC4/CapSense_SMS.c **** CapSense_CONFIG_TYPE_P4_v2_60 CapSense_config;
  92:Generated_Source\PSoC4/CapSense_SMS.c **** CapSense_CONFIG_TYPE_POINTERS_P4_v2_60 const CapSense_configPointers = {
  93:Generated_Source\PSoC4/CapSense_SMS.c ****     CapSense_modulationIDAC,
  94:Generated_Source\PSoC4/CapSense_SMS.c ****     CapSense_compensationIDAC,
  95:Generated_Source\PSoC4/CapSense_SMS.c ****     CapSense_sensorSensitivity,
  96:Generated_Source\PSoC4/CapSense_SMS.c ****     CapSense_senseClkDividerVal,
  97:Generated_Source\PSoC4/CapSense_SMS.c ****     CapSense_sampleClkDividerVal,
  98:Generated_Source\PSoC4/CapSense_SMS.c ****     CapSense_widgetNumber,
  99:Generated_Source\PSoC4/CapSense_SMS.c ****     CapSense_widgetResolution,
 100:Generated_Source\PSoC4/CapSense_SMS.c ****     CapSense_noiseEnvelopeTbl,
 101:Generated_Source\PSoC4/CapSense_SMS.c ****     CapSense_runningDifferenceTbl,
 102:Generated_Source\PSoC4/CapSense_SMS.c ****     CapSense_signRegisterTbl,
 103:Generated_Source\PSoC4/CapSense_SMS.c ****     CapSense_sampleMinTbl,
 104:Generated_Source\PSoC4/CapSense_SMS.c ****     CapSense_sampleMaxTbl,
 105:Generated_Source\PSoC4/CapSense_SMS.c ****     CapSense_previousSampleTbl,
 106:Generated_Source\PSoC4/CapSense_SMS.c ****     CapSense_kValueTbl,
 107:Generated_Source\PSoC4/CapSense_SMS.c ****     CapSense_scanSpeedTbl,
 108:Generated_Source\PSoC4/CapSense_SMS.c ****     CapSense_prescalerTable,
 109:Generated_Source\PSoC4/CapSense_SMS.c ****     (const uint8  *)CapSense_rawDataIndex,
 110:Generated_Source\PSoC4/CapSense_SMS.c ****     (const uint8  *)CapSense_numberOfSensors,
 111:Generated_Source\PSoC4/CapSense_SMS.c ****     &CapSense_GetSensorRaw,
 112:Generated_Source\PSoC4/CapSense_SMS.c ****     &CapSense_PreScan,
 113:Generated_Source\PSoC4/CapSense_SMS.c ****     &CapSense_ReadSensorRaw,
 114:Generated_Source\PSoC4/CapSense_SMS.c ****     &CapSense_GetBitValue,
 115:Generated_Source\PSoC4/CapSense_SMS.c ****     &CapSense_SetBitValue
 116:Generated_Source\PSoC4/CapSense_SMS.c **** };
 117:Generated_Source\PSoC4/CapSense_SMS.c **** 
 118:Generated_Source\PSoC4/CapSense_SMS.c **** 
 119:Generated_Source\PSoC4/CapSense_SMS.c **** /*******************************************************************************
 120:Generated_Source\PSoC4/CapSense_SMS.c **** * Function Name: CapSense_AutoTune
 121:Generated_Source\PSoC4/CapSense_SMS.c **** ********************************************************************************
 122:Generated_Source\PSoC4/CapSense_SMS.c **** *
 123:Generated_Source\PSoC4/CapSense_SMS.c **** * Summary:
 124:Generated_Source\PSoC4/CapSense_SMS.c **** *  Provides the tuning procedure for all sensors.
 125:Generated_Source\PSoC4/CapSense_SMS.c **** *
 126:Generated_Source\PSoC4/CapSense_SMS.c **** * Parameters:
 127:Generated_Source\PSoC4/CapSense_SMS.c **** *  None
 128:Generated_Source\PSoC4/CapSense_SMS.c **** *
 129:Generated_Source\PSoC4/CapSense_SMS.c **** * Return:
 130:Generated_Source\PSoC4/CapSense_SMS.c **** *  None
 131:Generated_Source\PSoC4/CapSense_SMS.c **** *
 132:Generated_Source\PSoC4/CapSense_SMS.c **** * Global Variables:
 133:Generated_Source\PSoC4/CapSense_SMS.c **** *   CapSense_config: the structure which contains configuration parameters
 134:Generated_Source\PSoC4/CapSense_SMS.c **** *   CapSense_senseClkDividerVal[]: used to store the Analog Switch
 135:Generated_Source\PSoC4/CapSense_SMS.c **** *   dividers for each sensor.
 136:Generated_Source\PSoC4/CapSense_SMS.c **** *   CapSense_senseClkDividerVal[]: used to store the
 137:Generated_Source\PSoC4/CapSense_SMS.c **** *    Analog Switch divider for all sensors.
 138:Generated_Source\PSoC4/CapSense_SMS.c **** *   CapSense_prescalersTuningDone - used to notify the Tuner GUI that
 139:Generated_Source\PSoC4/CapSense_SMS.c **** *   the pre-scalers tuning  is done.
 140:Generated_Source\PSoC4/CapSense_SMS.c **** *
 141:Generated_Source\PSoC4/CapSense_SMS.c **** * Side Effects:
 142:Generated_Source\PSoC4/CapSense_SMS.c **** *  None
 143:Generated_Source\PSoC4/CapSense_SMS.c **** *
 144:Generated_Source\PSoC4/CapSense_SMS.c **** *******************************************************************************/
ARM GAS  C:\Users\SHOZO\AppData\Local\Temp\ccinm8ur.s 			page 4


 145:Generated_Source\PSoC4/CapSense_SMS.c **** void CapSense_AutoTune(void)
 146:Generated_Source\PSoC4/CapSense_SMS.c **** {
 147:Generated_Source\PSoC4/CapSense_SMS.c ****     uint32 curSensor;
 148:Generated_Source\PSoC4/CapSense_SMS.c ****     uint32 widget;
 149:Generated_Source\PSoC4/CapSense_SMS.c **** 
 150:Generated_Source\PSoC4/CapSense_SMS.c ****     CapSense_config.totalScanslotsNum = CapSense_TOTAL_SCANSLOT_COUNT;
 151:Generated_Source\PSoC4/CapSense_SMS.c ****     CapSense_config.totalWidgetsNum = CapSense_END_OF_WIDGETS_INDEX;
 152:Generated_Source\PSoC4/CapSense_SMS.c ****     CapSense_config.totalSensorsNum = CapSense_TOTAL_SENSOR_COUNT;
 153:Generated_Source\PSoC4/CapSense_SMS.c **** 
 154:Generated_Source\PSoC4/CapSense_SMS.c ****     CapSense_config.hfclkFreq_MHz = CYDEV_BCLK__HFCLK__MHZ;
 155:Generated_Source\PSoC4/CapSense_SMS.c ****     CapSense_config.sensetivitySeed = CapSense_SENSETIVITY_FACTOR;
 156:Generated_Source\PSoC4/CapSense_SMS.c **** 
 157:Generated_Source\PSoC4/CapSense_SMS.c ****     CapSense_config.pointers = &CapSense_configPointers;
 158:Generated_Source\PSoC4/CapSense_SMS.c **** 
 159:Generated_Source\PSoC4/CapSense_SMS.c ****     CapSense_SetAnalogSwitchesSrcDirect();
 160:Generated_Source\PSoC4/CapSense_SMS.c **** 
 161:Generated_Source\PSoC4/CapSense_SMS.c ****     for(widget = 0u; widget < CapSense_config.totalWidgetsNum; widget++)
 162:Generated_Source\PSoC4/CapSense_SMS.c ****     {
 163:Generated_Source\PSoC4/CapSense_SMS.c ****         CapSense_widgetResolution[widget] = CapSense_CALIBRATION_RESOLUTION;
 164:Generated_Source\PSoC4/CapSense_SMS.c ****     }
 165:Generated_Source\PSoC4/CapSense_SMS.c **** 
 166:Generated_Source\PSoC4/CapSense_SMS.c **** 
 167:Generated_Source\PSoC4/CapSense_SMS.c ****     for(curSensor = 0u; curSensor < CapSense_TOTAL_SCANSLOT_COUNT; curSensor++)
 168:Generated_Source\PSoC4/CapSense_SMS.c ****     {
 169:Generated_Source\PSoC4/CapSense_SMS.c ****         CapSense_senseClkDividerVal[curSensor] = CapSense_CALIBRATION_ASD;
 170:Generated_Source\PSoC4/CapSense_SMS.c ****         CapSense_sampleClkDividerVal[curSensor] = CapSense_CALIBRATION_MD;
 171:Generated_Source\PSoC4/CapSense_SMS.c ****     }
 172:Generated_Source\PSoC4/CapSense_SMS.c **** 
 173:Generated_Source\PSoC4/CapSense_SMS.c ****     CapSense_DisableBaselineIDAC();
 174:Generated_Source\PSoC4/CapSense_SMS.c **** 
 175:Generated_Source\PSoC4/CapSense_SMS.c ****     CalibrateSensors_P4_v2_60(&CapSense_config, CapSense_CAL_RAW_COUNT);
 176:Generated_Source\PSoC4/CapSense_SMS.c **** 
 177:Generated_Source\PSoC4/CapSense_SMS.c ****     #if(0u != CapSense_TOTAL_CENTROIDS_COUNT)
 178:Generated_Source\PSoC4/CapSense_SMS.c ****         CapSense_NormalizeWidgets(CapSense_END_OF_WIDGETS_INDEX, CapSense_modulationIDAC);
 179:Generated_Source\PSoC4/CapSense_SMS.c ****     #endif /* (0u != CapSense_TOTAL_CENTROIDS_COUNT)  */
 180:Generated_Source\PSoC4/CapSense_SMS.c **** 
 181:Generated_Source\PSoC4/CapSense_SMS.c ****     TunePrescalers_P4_v2_60(&CapSense_config);
 182:Generated_Source\PSoC4/CapSense_SMS.c **** 
 183:Generated_Source\PSoC4/CapSense_SMS.c ****     #if(CapSense_PRS_OPTIONS != CapSense__PRS_NONE)
 184:Generated_Source\PSoC4/CapSense_SMS.c ****         CapSense_prescalersTuningDone = 1u;
 185:Generated_Source\PSoC4/CapSense_SMS.c ****     #endif /* (CapSense_PRS_OPTIONS == CapSense__PRS_NONE) */
 186:Generated_Source\PSoC4/CapSense_SMS.c **** 
 187:Generated_Source\PSoC4/CapSense_SMS.c ****     CalibrateSensors_P4_v2_60(&CapSense_config, CapSense_CAL_RAW_COUNT);
 188:Generated_Source\PSoC4/CapSense_SMS.c ****     #if(0u != CapSense_TOTAL_CENTROIDS_COUNT)
 189:Generated_Source\PSoC4/CapSense_SMS.c ****         CapSense_NormalizeWidgets(CapSense_END_OF_WIDGETS_INDEX, CapSense_modulationIDAC);
 190:Generated_Source\PSoC4/CapSense_SMS.c ****     #endif /* (0u != CapSense_TOTAL_CENTROIDS_COUNT)  */
 191:Generated_Source\PSoC4/CapSense_SMS.c ****     TuneSensitivity_P4_v2_60(&CapSense_config);
 192:Generated_Source\PSoC4/CapSense_SMS.c **** 
 193:Generated_Source\PSoC4/CapSense_SMS.c ****     CapSense_EnableBaselineIDAC(&CapSense_config);
 194:Generated_Source\PSoC4/CapSense_SMS.c **** 
 195:Generated_Source\PSoC4/CapSense_SMS.c ****     for(curSensor = 0u; curSensor < CapSense_TOTAL_SCANSLOT_COUNT; curSensor++)
 196:Generated_Source\PSoC4/CapSense_SMS.c ****     {
 197:Generated_Source\PSoC4/CapSense_SMS.c ****         CapSense_UpdateThresholds(curSensor);
 198:Generated_Source\PSoC4/CapSense_SMS.c ****     }
 199:Generated_Source\PSoC4/CapSense_SMS.c **** }
 200:Generated_Source\PSoC4/CapSense_SMS.c **** 
 201:Generated_Source\PSoC4/CapSense_SMS.c **** 
ARM GAS  C:\Users\SHOZO\AppData\Local\Temp\ccinm8ur.s 			page 5


 202:Generated_Source\PSoC4/CapSense_SMS.c **** /*******************************************************************************
 203:Generated_Source\PSoC4/CapSense_SMS.c **** * Function Name: CapSense_UpdateThresholds
 204:Generated_Source\PSoC4/CapSense_SMS.c **** ********************************************************************************
 205:Generated_Source\PSoC4/CapSense_SMS.c **** *
 206:Generated_Source\PSoC4/CapSense_SMS.c **** * Summary:
 207:Generated_Source\PSoC4/CapSense_SMS.c **** *  The API updates the Finger Threshold, Hysteresis, Noise Threshold, and
 208:Generated_Source\PSoC4/CapSense_SMS.c **** *  Negative Noise Threshold in the AutoTuning (Smartsense) Mode.
 209:Generated_Source\PSoC4/CapSense_SMS.c **** *
 210:Generated_Source\PSoC4/CapSense_SMS.c **** * Parameters:
 211:Generated_Source\PSoC4/CapSense_SMS.c **** *  sensor: sensor number.
 212:Generated_Source\PSoC4/CapSense_SMS.c **** *
 213:Generated_Source\PSoC4/CapSense_SMS.c **** * Return:
 214:Generated_Source\PSoC4/CapSense_SMS.c **** *  None
 215:Generated_Source\PSoC4/CapSense_SMS.c **** *
 216:Generated_Source\PSoC4/CapSense_SMS.c **** * Global Variables:
 217:Generated_Source\PSoC4/CapSense_SMS.c **** *  CapSense_widgetNumber[] - contains widget Number for given sensor.
 218:Generated_Source\PSoC4/CapSense_SMS.c **** *  0 through 7 (sensor 0 is bit 0, sensor 1 is bit 1).
 219:Generated_Source\PSoC4/CapSense_SMS.c **** *  For other sensors the array element equals to 255.
 220:Generated_Source\PSoC4/CapSense_SMS.c **** *  CapSense_numberOfSensors[widget] - Number of sensors in the widget.
 221:Generated_Source\PSoC4/CapSense_SMS.c **** *   CapSense_fingerThreshold[] - contains the level of signal for each sensor
 222:Generated_Source\PSoC4/CapSense_SMS.c **** *   that determines if a finger present on the sensor.
 223:Generated_Source\PSoC4/CapSense_SMS.c **** *   CapSense_negativeNoiseThreshold[] - negative Noise Threshold
 224:Generated_Source\PSoC4/CapSense_SMS.c **** *   CapSense_hysteresis[] - the array with hysteresis values.
 225:Generated_Source\PSoC4/CapSense_SMS.c **** *
 226:Generated_Source\PSoC4/CapSense_SMS.c **** * Side Effects:
 227:Generated_Source\PSoC4/CapSense_SMS.c **** *  None
 228:Generated_Source\PSoC4/CapSense_SMS.c **** *
 229:Generated_Source\PSoC4/CapSense_SMS.c **** *******************************************************************************/
 230:Generated_Source\PSoC4/CapSense_SMS.c **** void CapSense_UpdateThresholds(uint32 sensor)
 231:Generated_Source\PSoC4/CapSense_SMS.c **** {
  28              		.loc 1 231 0
  29              		.cfi_startproc
  30              		@ args = 0, pretend = 0, frame = 0
  31              		@ frame_needed = 0, uses_anonymous_args = 0
  32              		@ link register save eliminated.
  33              	.LVL0:
 232:Generated_Source\PSoC4/CapSense_SMS.c ****     uint8 fingerThreshold;
 233:Generated_Source\PSoC4/CapSense_SMS.c ****     uint32 widget;
 234:Generated_Source\PSoC4/CapSense_SMS.c **** 
 235:Generated_Source\PSoC4/CapSense_SMS.c ****     widget = CapSense_widgetNumber[sensor];
  34              		.loc 1 235 0
  35 0000 064B     		ldr	r3, .L2
  36 0002 1B5C     		ldrb	r3, [r3, r0]
  37              	.LVL1:
 236:Generated_Source\PSoC4/CapSense_SMS.c **** 
 237:Generated_Source\PSoC4/CapSense_SMS.c ****     #if(0u != CapSense_FLEXIBLE_THRESHOLDS_EN)
 238:Generated_Source\PSoC4/CapSense_SMS.c ****         fingerThreshold = CapSense_fingerThreshold[widget];
  38              		.loc 1 238 0
  39 0004 064A     		ldr	r2, .L2+4
  40 0006 D25C     		ldrb	r2, [r2, r3]
  41              	.LVL2:
 239:Generated_Source\PSoC4/CapSense_SMS.c ****         /* Update Threshold manually (flexible) */
 240:Generated_Source\PSoC4/CapSense_SMS.c ****         CapSense_noiseThreshold[widget] = (uint8)(fingerThreshold >> 1u);
  42              		.loc 1 240 0
  43 0008 5108     		lsrs	r1, r2, #1
  44 000a 0648     		ldr	r0, .L2+8
  45              	.LVL3:
ARM GAS  C:\Users\SHOZO\AppData\Local\Temp\ccinm8ur.s 			page 6


  46 000c C154     		strb	r1, [r0, r3]
 241:Generated_Source\PSoC4/CapSense_SMS.c ****         CapSense_negativeNoiseThreshold[widget] = (uint8)(fingerThreshold >> 1u);
  47              		.loc 1 241 0
  48 000e 0648     		ldr	r0, .L2+12
  49 0010 C154     		strb	r1, [r0, r3]
 242:Generated_Source\PSoC4/CapSense_SMS.c ****         CapSense_hysteresis[widget] = (uint8)(fingerThreshold >> 3u);
  50              		.loc 1 242 0
  51 0012 D208     		lsrs	r2, r2, #3
  52              	.LVL4:
  53 0014 0549     		ldr	r1, .L2+16
  54 0016 CA54     		strb	r2, [r1, r3]
 243:Generated_Source\PSoC4/CapSense_SMS.c ****     #else
 244:Generated_Source\PSoC4/CapSense_SMS.c ****         /* Calculate Finger Threshold and Noise Threshold with Smartsense (automatic) */
 245:Generated_Source\PSoC4/CapSense_SMS.c ****         CalculateThresholds_P4_v2_60(&CapSense_config, (uint8)sensor, (uint8)widget, CapSense_finge
 246:Generated_Source\PSoC4/CapSense_SMS.c **** 
 247:Generated_Source\PSoC4/CapSense_SMS.c ****         fingerThreshold = CapSense_fingerThreshold[widget];
 248:Generated_Source\PSoC4/CapSense_SMS.c **** 
 249:Generated_Source\PSoC4/CapSense_SMS.c ****         /* Update Threshold based on calculated with Smartsense (automatic) */
 250:Generated_Source\PSoC4/CapSense_SMS.c ****         CapSense_negativeNoiseThreshold[widget] = CapSense_noiseThreshold[widget];
 251:Generated_Source\PSoC4/CapSense_SMS.c **** 
 252:Generated_Source\PSoC4/CapSense_SMS.c ****         if(fingerThreshold < CapSense_THRESHOLD_1)
 253:Generated_Source\PSoC4/CapSense_SMS.c ****         {
 254:Generated_Source\PSoC4/CapSense_SMS.c ****             CapSense_hysteresis[widget] = (uint8)(fingerThreshold >> 3u);
 255:Generated_Source\PSoC4/CapSense_SMS.c ****         }
 256:Generated_Source\PSoC4/CapSense_SMS.c ****         else if(fingerThreshold <  CapSense_THRESHOLD_2)
 257:Generated_Source\PSoC4/CapSense_SMS.c ****         {
 258:Generated_Source\PSoC4/CapSense_SMS.c ****             CapSense_hysteresis[widget] = (uint8)(fingerThreshold >> 4u);
 259:Generated_Source\PSoC4/CapSense_SMS.c ****         }
 260:Generated_Source\PSoC4/CapSense_SMS.c ****         else if(fingerThreshold <  CapSense_THRESHOLD_3)
 261:Generated_Source\PSoC4/CapSense_SMS.c ****         {
 262:Generated_Source\PSoC4/CapSense_SMS.c ****             CapSense_hysteresis[widget] = (uint8)(fingerThreshold >> 5u);
 263:Generated_Source\PSoC4/CapSense_SMS.c ****         }
 264:Generated_Source\PSoC4/CapSense_SMS.c ****         else if(fingerThreshold <  CapSense_THRESHOLD_4)
 265:Generated_Source\PSoC4/CapSense_SMS.c ****         {
 266:Generated_Source\PSoC4/CapSense_SMS.c ****             CapSense_hysteresis[widget] = (uint8)(fingerThreshold >> 6u);
 267:Generated_Source\PSoC4/CapSense_SMS.c ****         }
 268:Generated_Source\PSoC4/CapSense_SMS.c ****         else
 269:Generated_Source\PSoC4/CapSense_SMS.c ****         {
 270:Generated_Source\PSoC4/CapSense_SMS.c ****             CapSense_hysteresis[widget] = 0u;
 271:Generated_Source\PSoC4/CapSense_SMS.c ****         }
 272:Generated_Source\PSoC4/CapSense_SMS.c ****     #endif /* (0u != CapSense_FLEXIBLE_THRESHOLDS_EN)  */
 273:Generated_Source\PSoC4/CapSense_SMS.c **** }
  55              		.loc 1 273 0
  56              		@ sp needed
  57 0018 7047     		bx	lr
  58              	.L3:
  59 001a C046     		.align	2
  60              	.L2:
  61 001c 00000000 		.word	CapSense_widgetNumber
  62 0020 00000000 		.word	CapSense_fingerThreshold
  63 0024 00000000 		.word	CapSense_noiseThreshold
  64 0028 00000000 		.word	CapSense_negativeNoiseThreshold
  65 002c 00000000 		.word	CapSense_hysteresis
  66              		.cfi_endproc
  67              	.LFE33:
  68              		.size	CapSense_UpdateThresholds, .-CapSense_UpdateThresholds
  69              		.section	.text.CapSense_SetAnalogSwitchesSrcDirect,"ax",%progbits
ARM GAS  C:\Users\SHOZO\AppData\Local\Temp\ccinm8ur.s 			page 7


  70              		.align	2
  71              		.global	CapSense_SetAnalogSwitchesSrcDirect
  72              		.code	16
  73              		.thumb_func
  74              		.type	CapSense_SetAnalogSwitchesSrcDirect, %function
  75              	CapSense_SetAnalogSwitchesSrcDirect:
  76              	.LFB34:
 274:Generated_Source\PSoC4/CapSense_SMS.c **** 
 275:Generated_Source\PSoC4/CapSense_SMS.c **** /*******************************************************************************
 276:Generated_Source\PSoC4/CapSense_SMS.c **** * Function Name: CapSense_SetAnalogSwitchesSrcDirect
 277:Generated_Source\PSoC4/CapSense_SMS.c **** ********************************************************************************
 278:Generated_Source\PSoC4/CapSense_SMS.c **** *
 279:Generated_Source\PSoC4/CapSense_SMS.c **** * Summary:
 280:Generated_Source\PSoC4/CapSense_SMS.c **** *  This API switches the charge clock source to prescaler.
 281:Generated_Source\PSoC4/CapSense_SMS.c **** *
 282:Generated_Source\PSoC4/CapSense_SMS.c **** * Parameters:
 283:Generated_Source\PSoC4/CapSense_SMS.c **** *  None
 284:Generated_Source\PSoC4/CapSense_SMS.c **** *
 285:Generated_Source\PSoC4/CapSense_SMS.c **** * Return:
 286:Generated_Source\PSoC4/CapSense_SMS.c **** *  None
 287:Generated_Source\PSoC4/CapSense_SMS.c **** *
 288:Generated_Source\PSoC4/CapSense_SMS.c **** * Global Variables:
 289:Generated_Source\PSoC4/CapSense_SMS.c **** *  None
 290:Generated_Source\PSoC4/CapSense_SMS.c **** *
 291:Generated_Source\PSoC4/CapSense_SMS.c **** * Side Effects:
 292:Generated_Source\PSoC4/CapSense_SMS.c **** *  None
 293:Generated_Source\PSoC4/CapSense_SMS.c **** *
 294:Generated_Source\PSoC4/CapSense_SMS.c **** *******************************************************************************/
 295:Generated_Source\PSoC4/CapSense_SMS.c **** void CapSense_SetAnalogSwitchesSrcDirect(void)
 296:Generated_Source\PSoC4/CapSense_SMS.c **** {
  77              		.loc 1 296 0
  78              		.cfi_startproc
  79              		@ args = 0, pretend = 0, frame = 0
  80              		@ frame_needed = 0, uses_anonymous_args = 0
  81              		@ link register save eliminated.
 297:Generated_Source\PSoC4/CapSense_SMS.c ****     CapSense_CSD_CFG_REG &= ~(CapSense_CSD_CFG_PRS_SELECT);
  82              		.loc 1 297 0
  83 0000 024A     		ldr	r2, .L5
  84 0002 1368     		ldr	r3, [r2]
  85 0004 4021     		movs	r1, #64
  86 0006 8B43     		bics	r3, r1
  87 0008 1360     		str	r3, [r2]
 298:Generated_Source\PSoC4/CapSense_SMS.c **** }
  88              		.loc 1 298 0
  89              		@ sp needed
  90 000a 7047     		bx	lr
  91              	.L6:
  92              		.align	2
  93              	.L5:
  94 000c 04000840 		.word	1074266116
  95              		.cfi_endproc
  96              	.LFE34:
  97              		.size	CapSense_SetAnalogSwitchesSrcDirect, .-CapSense_SetAnalogSwitchesSrcDirect
  98              		.section	.text.CapSense_DisableBaselineIDAC,"ax",%progbits
  99              		.align	2
 100              		.global	CapSense_DisableBaselineIDAC
 101              		.code	16
ARM GAS  C:\Users\SHOZO\AppData\Local\Temp\ccinm8ur.s 			page 8


 102              		.thumb_func
 103              		.type	CapSense_DisableBaselineIDAC, %function
 104              	CapSense_DisableBaselineIDAC:
 105              	.LFB35:
 299:Generated_Source\PSoC4/CapSense_SMS.c **** 
 300:Generated_Source\PSoC4/CapSense_SMS.c **** 
 301:Generated_Source\PSoC4/CapSense_SMS.c **** /*******************************************************************************
 302:Generated_Source\PSoC4/CapSense_SMS.c **** * Function Name: CapSense_DisableBaselineIDAC
 303:Generated_Source\PSoC4/CapSense_SMS.c **** ********************************************************************************
 304:Generated_Source\PSoC4/CapSense_SMS.c **** *
 305:Generated_Source\PSoC4/CapSense_SMS.c **** * Summary:
 306:Generated_Source\PSoC4/CapSense_SMS.c **** *  The API disables the Compensation IDAC.
 307:Generated_Source\PSoC4/CapSense_SMS.c **** *
 308:Generated_Source\PSoC4/CapSense_SMS.c **** * Parameters:
 309:Generated_Source\PSoC4/CapSense_SMS.c **** *  None
 310:Generated_Source\PSoC4/CapSense_SMS.c **** *
 311:Generated_Source\PSoC4/CapSense_SMS.c **** * Return:
 312:Generated_Source\PSoC4/CapSense_SMS.c **** *  None
 313:Generated_Source\PSoC4/CapSense_SMS.c **** *
 314:Generated_Source\PSoC4/CapSense_SMS.c **** * Global Variables:
 315:Generated_Source\PSoC4/CapSense_SMS.c **** *  None
 316:Generated_Source\PSoC4/CapSense_SMS.c **** *
 317:Generated_Source\PSoC4/CapSense_SMS.c **** * Side Effects:
 318:Generated_Source\PSoC4/CapSense_SMS.c **** *  None
 319:Generated_Source\PSoC4/CapSense_SMS.c **** *
 320:Generated_Source\PSoC4/CapSense_SMS.c **** *******************************************************************************/
 321:Generated_Source\PSoC4/CapSense_SMS.c **** void CapSense_DisableBaselineIDAC(void)
 322:Generated_Source\PSoC4/CapSense_SMS.c **** {
 106              		.loc 1 322 0
 107              		.cfi_startproc
 108              		@ args = 0, pretend = 0, frame = 0
 109              		@ frame_needed = 0, uses_anonymous_args = 0
 110              		@ link register save eliminated.
 323:Generated_Source\PSoC4/CapSense_SMS.c ****     uint32 newRegValue;
 324:Generated_Source\PSoC4/CapSense_SMS.c **** 
 325:Generated_Source\PSoC4/CapSense_SMS.c ****     newRegValue = CapSense_CSD_IDAC_REG;
 111              		.loc 1 325 0
 112 0000 044A     		ldr	r2, .L8
 113 0002 1168     		ldr	r1, [r2]
 114              	.LVL5:
 326:Generated_Source\PSoC4/CapSense_SMS.c **** 
 327:Generated_Source\PSoC4/CapSense_SMS.c ****     newRegValue &= ~(CapSense_CSD_IDAC1_MODE_MASK | CapSense_CSD_IDAC2_MODE_MASK);
 115              		.loc 1 327 0
 116 0004 044B     		ldr	r3, .L8+4
 117 0006 0B40     		ands	r3, r1
 118              	.LVL6:
 328:Generated_Source\PSoC4/CapSense_SMS.c ****     newRegValue |= CapSense_CSD_IDAC1_MODE_VARIABLE;
 119              		.loc 1 328 0
 120 0008 8021     		movs	r1, #128
 121 000a 8900     		lsls	r1, r1, #2
 122 000c 0B43     		orrs	r3, r1
 123              	.LVL7:
 329:Generated_Source\PSoC4/CapSense_SMS.c **** 
 330:Generated_Source\PSoC4/CapSense_SMS.c ****     CapSense_CSD_IDAC_REG = newRegValue;
 124              		.loc 1 330 0
 125 000e 1360     		str	r3, [r2]
 331:Generated_Source\PSoC4/CapSense_SMS.c **** }
ARM GAS  C:\Users\SHOZO\AppData\Local\Temp\ccinm8ur.s 			page 9


 126              		.loc 1 331 0
 127              		@ sp needed
 128 0010 7047     		bx	lr
 129              	.L9:
 130 0012 C046     		.align	2
 131              	.L8:
 132 0014 08000840 		.word	1074266120
 133 0018 FFFCFFFC 		.word	-50332417
 134              		.cfi_endproc
 135              	.LFE35:
 136              		.size	CapSense_DisableBaselineIDAC, .-CapSense_DisableBaselineIDAC
 137              		.section	.text.CapSense_EnableBaselineIDAC,"ax",%progbits
 138              		.align	2
 139              		.global	CapSense_EnableBaselineIDAC
 140              		.code	16
 141              		.thumb_func
 142              		.type	CapSense_EnableBaselineIDAC, %function
 143              	CapSense_EnableBaselineIDAC:
 144              	.LFB36:
 332:Generated_Source\PSoC4/CapSense_SMS.c **** 
 333:Generated_Source\PSoC4/CapSense_SMS.c **** 
 334:Generated_Source\PSoC4/CapSense_SMS.c **** /*******************************************************************************
 335:Generated_Source\PSoC4/CapSense_SMS.c **** * Function Name: CapSense_EnableBaselineIDAC
 336:Generated_Source\PSoC4/CapSense_SMS.c **** ********************************************************************************
 337:Generated_Source\PSoC4/CapSense_SMS.c **** *
 338:Generated_Source\PSoC4/CapSense_SMS.c **** * Summary:
 339:Generated_Source\PSoC4/CapSense_SMS.c **** *  The API enables the Compensation IDAC.
 340:Generated_Source\PSoC4/CapSense_SMS.c **** *
 341:Generated_Source\PSoC4/CapSense_SMS.c **** * Parameters:
 342:Generated_Source\PSoC4/CapSense_SMS.c **** *  None
 343:Generated_Source\PSoC4/CapSense_SMS.c **** *
 344:Generated_Source\PSoC4/CapSense_SMS.c **** * Return:
 345:Generated_Source\PSoC4/CapSense_SMS.c **** *  None
 346:Generated_Source\PSoC4/CapSense_SMS.c **** *
 347:Generated_Source\PSoC4/CapSense_SMS.c **** * Global Variables:
 348:Generated_Source\PSoC4/CapSense_SMS.c **** *  CapSense_compensationIDAC[] - used to store a 7-bit idac value for all the sensors.
 349:Generated_Source\PSoC4/CapSense_SMS.c **** *
 350:Generated_Source\PSoC4/CapSense_SMS.c **** * Side Effects:
 351:Generated_Source\PSoC4/CapSense_SMS.c **** *  None
 352:Generated_Source\PSoC4/CapSense_SMS.c **** *
 353:Generated_Source\PSoC4/CapSense_SMS.c **** *******************************************************************************/
 354:Generated_Source\PSoC4/CapSense_SMS.c **** void  CapSense_EnableBaselineIDAC(const CapSense_CONFIG_TYPE_P4_v2_60 *config)
 355:Generated_Source\PSoC4/CapSense_SMS.c **** {
 145              		.loc 1 355 0
 146              		.cfi_startproc
 147              		@ args = 0, pretend = 0, frame = 0
 148              		@ frame_needed = 0, uses_anonymous_args = 0
 149              	.LVL8:
 150 0000 70B5     		push	{r4, r5, r6, lr}
 151              		.cfi_def_cfa_offset 16
 152              		.cfi_offset 4, -16
 153              		.cfi_offset 5, -12
 154              		.cfi_offset 6, -8
 155              		.cfi_offset 14, -4
 156              	.LVL9:
 356:Generated_Source\PSoC4/CapSense_SMS.c ****     uint32 curSensor;
 357:Generated_Source\PSoC4/CapSense_SMS.c ****     uint32 newRegValue;
ARM GAS  C:\Users\SHOZO\AppData\Local\Temp\ccinm8ur.s 			page 10


 358:Generated_Source\PSoC4/CapSense_SMS.c **** 
 359:Generated_Source\PSoC4/CapSense_SMS.c ****     for(curSensor = 0u; curSensor < config->totalScanslotsNum; curSensor++)
 157              		.loc 1 359 0
 158 0002 0022     		movs	r2, #0
 159 0004 08E0     		b	.L11
 160              	.LVL10:
 161              	.L12:
 360:Generated_Source\PSoC4/CapSense_SMS.c ****     {
 361:Generated_Source\PSoC4/CapSense_SMS.c ****         CapSense_compensationIDAC[curSensor] = CapSense_modulationIDAC[curSensor] / 2u;
 162              		.loc 1 361 0 discriminator 3
 163 0006 0D49     		ldr	r1, .L13
 164 0008 8B5C     		ldrb	r3, [r1, r2]
 165 000a 5D08     		lsrs	r5, r3, #1
 166 000c 0C4C     		ldr	r4, .L13+4
 167 000e A554     		strb	r5, [r4, r2]
 362:Generated_Source\PSoC4/CapSense_SMS.c ****         CapSense_modulationIDAC[curSensor] = (CapSense_modulationIDAC[curSensor] + 1u) / 2u;
 168              		.loc 1 362 0 discriminator 3
 169 0010 0133     		adds	r3, r3, #1
 170 0012 5B08     		lsrs	r3, r3, #1
 171 0014 8B54     		strb	r3, [r1, r2]
 359:Generated_Source\PSoC4/CapSense_SMS.c ****     {
 172              		.loc 1 359 0 discriminator 3
 173 0016 0132     		adds	r2, r2, #1
 174              	.LVL11:
 175              	.L11:
 359:Generated_Source\PSoC4/CapSense_SMS.c ****     {
 176              		.loc 1 359 0 is_stmt 0 discriminator 1
 177 0018 0378     		ldrb	r3, [r0]
 178 001a 9A42     		cmp	r2, r3
 179 001c F3D3     		bcc	.L12
 363:Generated_Source\PSoC4/CapSense_SMS.c ****     }
 364:Generated_Source\PSoC4/CapSense_SMS.c **** 
 365:Generated_Source\PSoC4/CapSense_SMS.c ****     CyIntDisable(CapSense_ISR_NUMBER);
 180              		.loc 1 365 0 is_stmt 1
 181 001e 0F20     		movs	r0, #15
 182              	.LVL12:
 183 0020 FFF7FEFF 		bl	CyIntDisable
 184              	.LVL13:
 366:Generated_Source\PSoC4/CapSense_SMS.c **** 
 367:Generated_Source\PSoC4/CapSense_SMS.c ****     newRegValue = CapSense_CSD_IDAC_REG;
 185              		.loc 1 367 0
 186 0024 074A     		ldr	r2, .L13+8
 187 0026 1168     		ldr	r1, [r2]
 188              	.LVL14:
 368:Generated_Source\PSoC4/CapSense_SMS.c ****     newRegValue &= ~(CapSense_CSD_IDAC1_MODE_MASK | CapSense_CSD_IDAC2_MODE_MASK);
 189              		.loc 1 368 0
 190 0028 074B     		ldr	r3, .L13+12
 191 002a 0B40     		ands	r3, r1
 192              	.LVL15:
 369:Generated_Source\PSoC4/CapSense_SMS.c ****     newRegValue |= (CapSense_CSD_IDAC1_MODE_VARIABLE | CapSense_CSD_IDAC2_MODE_FIXED);
 193              		.loc 1 369 0
 194 002c 0749     		ldr	r1, .L13+16
 195 002e 0B43     		orrs	r3, r1
 196              	.LVL16:
 370:Generated_Source\PSoC4/CapSense_SMS.c ****     CapSense_CSD_IDAC_REG = newRegValue;
 197              		.loc 1 370 0
 198 0030 1360     		str	r3, [r2]
ARM GAS  C:\Users\SHOZO\AppData\Local\Temp\ccinm8ur.s 			page 11


 371:Generated_Source\PSoC4/CapSense_SMS.c **** 
 372:Generated_Source\PSoC4/CapSense_SMS.c ****     CyIntEnable(CapSense_ISR_NUMBER);
 199              		.loc 1 372 0
 200 0032 0F20     		movs	r0, #15
 201 0034 FFF7FEFF 		bl	CyIntEnable
 202              	.LVL17:
 373:Generated_Source\PSoC4/CapSense_SMS.c **** }
 203              		.loc 1 373 0
 204              		@ sp needed
 205 0038 70BD     		pop	{r4, r5, r6, pc}
 206              	.L14:
 207 003a C046     		.align	2
 208              	.L13:
 209 003c 00000000 		.word	CapSense_modulationIDAC
 210 0040 00000000 		.word	CapSense_compensationIDAC
 211 0044 08000840 		.word	1074266120
 212 0048 FFFCFFFC 		.word	-50332417
 213 004c 00020001 		.word	16777728
 214              		.cfi_endproc
 215              	.LFE36:
 216              		.size	CapSense_EnableBaselineIDAC, .-CapSense_EnableBaselineIDAC
 217              		.section	.text.CapSense_AutoTune,"ax",%progbits
 218              		.align	2
 219              		.global	CapSense_AutoTune
 220              		.code	16
 221              		.thumb_func
 222              		.type	CapSense_AutoTune, %function
 223              	CapSense_AutoTune:
 224              	.LFB32:
 146:Generated_Source\PSoC4/CapSense_SMS.c ****     uint32 curSensor;
 225              		.loc 1 146 0
 226              		.cfi_startproc
 227              		@ args = 0, pretend = 0, frame = 0
 228              		@ frame_needed = 0, uses_anonymous_args = 0
 229 0000 70B5     		push	{r4, r5, r6, lr}
 230              		.cfi_def_cfa_offset 16
 231              		.cfi_offset 4, -16
 232              		.cfi_offset 5, -12
 233              		.cfi_offset 6, -8
 234              		.cfi_offset 14, -4
 150:Generated_Source\PSoC4/CapSense_SMS.c ****     CapSense_config.totalWidgetsNum = CapSense_END_OF_WIDGETS_INDEX;
 235              		.loc 1 150 0
 236 0002 274B     		ldr	r3, .L22
 237 0004 0622     		movs	r2, #6
 238 0006 1A70     		strb	r2, [r3]
 151:Generated_Source\PSoC4/CapSense_SMS.c ****     CapSense_config.totalSensorsNum = CapSense_TOTAL_SENSOR_COUNT;
 239              		.loc 1 151 0
 240 0008 0121     		movs	r1, #1
 241 000a 5970     		strb	r1, [r3, #1]
 152:Generated_Source\PSoC4/CapSense_SMS.c **** 
 242              		.loc 1 152 0
 243 000c 9A70     		strb	r2, [r3, #2]
 154:Generated_Source\PSoC4/CapSense_SMS.c ****     CapSense_config.sensetivitySeed = CapSense_SENSETIVITY_FACTOR;
 244              		.loc 1 154 0
 245 000e 1232     		adds	r2, r2, #18
 246 0010 DA80     		strh	r2, [r3, #6]
 155:Generated_Source\PSoC4/CapSense_SMS.c **** 
ARM GAS  C:\Users\SHOZO\AppData\Local\Temp\ccinm8ur.s 			page 12


 247              		.loc 1 155 0
 248 0012 244A     		ldr	r2, .L22+4
 249 0014 9A80     		strh	r2, [r3, #4]
 157:Generated_Source\PSoC4/CapSense_SMS.c **** 
 250              		.loc 1 157 0
 251 0016 244A     		ldr	r2, .L22+8
 252 0018 9A60     		str	r2, [r3, #8]
 159:Generated_Source\PSoC4/CapSense_SMS.c **** 
 253              		.loc 1 159 0
 254 001a FFF7FEFF 		bl	CapSense_SetAnalogSwitchesSrcDirect
 255              	.LVL18:
 161:Generated_Source\PSoC4/CapSense_SMS.c ****     {
 256              		.loc 1 161 0
 257 001e 0023     		movs	r3, #0
 258 0020 04E0     		b	.L16
 259              	.LVL19:
 260              	.L17:
 163:Generated_Source\PSoC4/CapSense_SMS.c ****     }
 261              		.loc 1 163 0 discriminator 3
 262 0022 9900     		lsls	r1, r3, #2
 263 0024 2148     		ldr	r0, .L22+12
 264 0026 224A     		ldr	r2, .L22+16
 265 0028 8850     		str	r0, [r1, r2]
 161:Generated_Source\PSoC4/CapSense_SMS.c ****     {
 266              		.loc 1 161 0 discriminator 3
 267 002a 0133     		adds	r3, r3, #1
 268              	.LVL20:
 269              	.L16:
 161:Generated_Source\PSoC4/CapSense_SMS.c ****     {
 270              		.loc 1 161 0 is_stmt 0 discriminator 1
 271 002c 1C4A     		ldr	r2, .L22
 272 002e 5278     		ldrb	r2, [r2, #1]
 273 0030 9342     		cmp	r3, r2
 274 0032 F6D3     		bcc	.L17
 275 0034 0023     		movs	r3, #0
 276              	.LVL21:
 277 0036 06E0     		b	.L18
 278              	.LVL22:
 279              	.L19:
 169:Generated_Source\PSoC4/CapSense_SMS.c ****         CapSense_sampleClkDividerVal[curSensor] = CapSense_CALIBRATION_MD;
 280              		.loc 1 169 0 is_stmt 1 discriminator 3
 281 0038 0421     		movs	r1, #4
 282 003a 1E4A     		ldr	r2, .L22+20
 283 003c D154     		strb	r1, [r2, r3]
 170:Generated_Source\PSoC4/CapSense_SMS.c ****     }
 284              		.loc 1 170 0 discriminator 3
 285 003e 0239     		subs	r1, r1, #2
 286 0040 1D4A     		ldr	r2, .L22+24
 287 0042 D154     		strb	r1, [r2, r3]
 167:Generated_Source\PSoC4/CapSense_SMS.c ****     {
 288              		.loc 1 167 0 discriminator 3
 289 0044 0133     		adds	r3, r3, #1
 290              	.LVL23:
 291              	.L18:
 167:Generated_Source\PSoC4/CapSense_SMS.c ****     {
 292              		.loc 1 167 0 is_stmt 0 discriminator 1
 293 0046 052B     		cmp	r3, #5
ARM GAS  C:\Users\SHOZO\AppData\Local\Temp\ccinm8ur.s 			page 13


 294 0048 F6D9     		bls	.L19
 173:Generated_Source\PSoC4/CapSense_SMS.c **** 
 295              		.loc 1 173 0 is_stmt 1
 296 004a FFF7FEFF 		bl	CapSense_DisableBaselineIDAC
 297              	.LVL24:
 175:Generated_Source\PSoC4/CapSense_SMS.c **** 
 298              		.loc 1 175 0
 299 004e 1B4E     		ldr	r6, .L22+28
 300 0050 134C     		ldr	r4, .L22
 301 0052 3100     		movs	r1, r6
 302 0054 2000     		movs	r0, r4
 303 0056 FFF7FEFF 		bl	CalibrateSensors_P4_v2_60
 304              	.LVL25:
 178:Generated_Source\PSoC4/CapSense_SMS.c ****     #endif /* (0u != CapSense_TOTAL_CENTROIDS_COUNT)  */
 305              		.loc 1 178 0
 306 005a 194D     		ldr	r5, .L22+32
 307 005c 2900     		movs	r1, r5
 308 005e 0120     		movs	r0, #1
 309 0060 FFF7FEFF 		bl	CapSense_NormalizeWidgets
 310              	.LVL26:
 181:Generated_Source\PSoC4/CapSense_SMS.c **** 
 311              		.loc 1 181 0
 312 0064 2000     		movs	r0, r4
 313 0066 FFF7FEFF 		bl	TunePrescalers_P4_v2_60
 314              	.LVL27:
 184:Generated_Source\PSoC4/CapSense_SMS.c ****     #endif /* (CapSense_PRS_OPTIONS == CapSense__PRS_NONE) */
 315              		.loc 1 184 0
 316 006a 0122     		movs	r2, #1
 317 006c 154B     		ldr	r3, .L22+36
 318 006e 1A70     		strb	r2, [r3]
 187:Generated_Source\PSoC4/CapSense_SMS.c ****     #if(0u != CapSense_TOTAL_CENTROIDS_COUNT)
 319              		.loc 1 187 0
 320 0070 3100     		movs	r1, r6
 321 0072 2000     		movs	r0, r4
 322 0074 FFF7FEFF 		bl	CalibrateSensors_P4_v2_60
 323              	.LVL28:
 189:Generated_Source\PSoC4/CapSense_SMS.c ****     #endif /* (0u != CapSense_TOTAL_CENTROIDS_COUNT)  */
 324              		.loc 1 189 0
 325 0078 2900     		movs	r1, r5
 326 007a 0120     		movs	r0, #1
 327 007c FFF7FEFF 		bl	CapSense_NormalizeWidgets
 328              	.LVL29:
 191:Generated_Source\PSoC4/CapSense_SMS.c **** 
 329              		.loc 1 191 0
 330 0080 2000     		movs	r0, r4
 331 0082 FFF7FEFF 		bl	TuneSensitivity_P4_v2_60
 332              	.LVL30:
 193:Generated_Source\PSoC4/CapSense_SMS.c **** 
 333              		.loc 1 193 0
 334 0086 2000     		movs	r0, r4
 335 0088 FFF7FEFF 		bl	CapSense_EnableBaselineIDAC
 336              	.LVL31:
 195:Generated_Source\PSoC4/CapSense_SMS.c ****     {
 337              		.loc 1 195 0
 338 008c 0024     		movs	r4, #0
 339 008e 03E0     		b	.L20
 340              	.LVL32:
ARM GAS  C:\Users\SHOZO\AppData\Local\Temp\ccinm8ur.s 			page 14


 341              	.L21:
 197:Generated_Source\PSoC4/CapSense_SMS.c ****     }
 342              		.loc 1 197 0 discriminator 3
 343 0090 2000     		movs	r0, r4
 344 0092 FFF7FEFF 		bl	CapSense_UpdateThresholds
 345              	.LVL33:
 195:Generated_Source\PSoC4/CapSense_SMS.c ****     {
 346              		.loc 1 195 0 discriminator 3
 347 0096 0134     		adds	r4, r4, #1
 348              	.LVL34:
 349              	.L20:
 195:Generated_Source\PSoC4/CapSense_SMS.c ****     {
 350              		.loc 1 195 0 is_stmt 0 discriminator 1
 351 0098 052C     		cmp	r4, #5
 352 009a F9D9     		bls	.L21
 199:Generated_Source\PSoC4/CapSense_SMS.c **** 
 353              		.loc 1 199 0 is_stmt 1
 354              		@ sp needed
 355              	.LVL35:
 356 009c 70BD     		pop	{r4, r5, r6, pc}
 357              	.L23:
 358 009e C046     		.align	2
 359              	.L22:
 360 00a0 00000000 		.word	CapSense_config
 361 00a4 66020000 		.word	614
 362 00a8 00000000 		.word	.LANCHOR0
 363 00ac 0000FF0F 		.word	268369920
 364 00b0 00000000 		.word	CapSense_widgetResolution
 365 00b4 00000000 		.word	CapSense_senseClkDividerVal
 366 00b8 00000000 		.word	CapSense_sampleClkDividerVal
 367 00bc 9A0D0000 		.word	3482
 368 00c0 00000000 		.word	CapSense_modulationIDAC
 369 00c4 00000000 		.word	CapSense_prescalersTuningDone
 370              		.cfi_endproc
 371              	.LFE32:
 372              		.size	CapSense_AutoTune, .-CapSense_AutoTune
 373              		.section	.text.CapSense_SetSensitivity,"ax",%progbits
 374              		.align	2
 375              		.global	CapSense_SetSensitivity
 376              		.code	16
 377              		.thumb_func
 378              		.type	CapSense_SetSensitivity, %function
 379              	CapSense_SetSensitivity:
 380              	.LFB37:
 374:Generated_Source\PSoC4/CapSense_SMS.c **** 
 375:Generated_Source\PSoC4/CapSense_SMS.c **** 
 376:Generated_Source\PSoC4/CapSense_SMS.c **** /*******************************************************************************
 377:Generated_Source\PSoC4/CapSense_SMS.c **** * Function Name: CapSense_SetSensitivity
 378:Generated_Source\PSoC4/CapSense_SMS.c **** ********************************************************************************
 379:Generated_Source\PSoC4/CapSense_SMS.c **** *
 380:Generated_Source\PSoC4/CapSense_SMS.c **** * Summary:
 381:Generated_Source\PSoC4/CapSense_SMS.c **** *  This API sets the sensitivity value for the sensor. The sensitivity
 382:Generated_Source\PSoC4/CapSense_SMS.c **** *  value is used during the auto-tuning algorithm executed as part of the CapSense_Start API.
 383:Generated_Source\PSoC4/CapSense_SMS.c **** *  This API is called by the application layer prior to calling the CapSense_Start API.
 384:Generated_Source\PSoC4/CapSense_SMS.c **** *  Calling this API after execution of CapSense_Start API has no effect.
 385:Generated_Source\PSoC4/CapSense_SMS.c **** *
 386:Generated_Source\PSoC4/CapSense_SMS.c **** * Parameters:
ARM GAS  C:\Users\SHOZO\AppData\Local\Temp\ccinm8ur.s 			page 15


 387:Generated_Source\PSoC4/CapSense_SMS.c **** *  sensor  Sensor index
 388:Generated_Source\PSoC4/CapSense_SMS.c **** *  data    Sensitivity of the sensor. Possible values are below
 389:Generated_Source\PSoC4/CapSense_SMS.c **** *  1 - 0.1pf sensitivity
 390:Generated_Source\PSoC4/CapSense_SMS.c **** *  2 - 0.2pf sensitivity
 391:Generated_Source\PSoC4/CapSense_SMS.c **** *  3 - 0.3pf sensitivity
 392:Generated_Source\PSoC4/CapSense_SMS.c **** *  4 - 0.4pf sensitivity
 393:Generated_Source\PSoC4/CapSense_SMS.c **** *  5 - 0.5pf sensitivity
 394:Generated_Source\PSoC4/CapSense_SMS.c **** *  6 - 0.6pf sensitivity
 395:Generated_Source\PSoC4/CapSense_SMS.c **** *  7 - 0.7pf sensitivity
 396:Generated_Source\PSoC4/CapSense_SMS.c **** *  8 - 0.8pf sensitivity
 397:Generated_Source\PSoC4/CapSense_SMS.c **** *  9 - 0.9pf sensitivity
 398:Generated_Source\PSoC4/CapSense_SMS.c **** *  10 - 1.0pf sensitivity
 399:Generated_Source\PSoC4/CapSense_SMS.c **** *  All other values, set sensitivity to 1.0pf
 400:Generated_Source\PSoC4/CapSense_SMS.c **** *
 401:Generated_Source\PSoC4/CapSense_SMS.c **** *  Return Value:
 402:Generated_Source\PSoC4/CapSense_SMS.c **** *   None
 403:Generated_Source\PSoC4/CapSense_SMS.c **** *
 404:Generated_Source\PSoC4/CapSense_SMS.c **** * Global Variables:
 405:Generated_Source\PSoC4/CapSense_SMS.c **** * CapSense_sensorSensitivity[] - This 8-bits array contains Sensitivity in the LSB nibble
 406:Generated_Source\PSoC4/CapSense_SMS.c **** *                                and Noise Reset Counter value in the MSB nibble.
 407:Generated_Source\PSoC4/CapSense_SMS.c **** *
 408:Generated_Source\PSoC4/CapSense_SMS.c **** * Side Effects:
 409:Generated_Source\PSoC4/CapSense_SMS.c **** *  None
 410:Generated_Source\PSoC4/CapSense_SMS.c **** *
 411:Generated_Source\PSoC4/CapSense_SMS.c **** *******************************************************************************/
 412:Generated_Source\PSoC4/CapSense_SMS.c **** void CapSense_SetSensitivity(uint32 sensor, uint32 value)
 413:Generated_Source\PSoC4/CapSense_SMS.c **** {
 381              		.loc 1 413 0
 382              		.cfi_startproc
 383              		@ args = 0, pretend = 0, frame = 0
 384              		@ frame_needed = 0, uses_anonymous_args = 0
 385              	.LVL36:
 386 0000 10B5     		push	{r4, lr}
 387              		.cfi_def_cfa_offset 8
 388              		.cfi_offset 4, -8
 389              		.cfi_offset 14, -4
 414:Generated_Source\PSoC4/CapSense_SMS.c ****     if(value > 10u)
 390              		.loc 1 414 0
 391 0002 0A29     		cmp	r1, #10
 392 0004 00D9     		bls	.L25
 415:Generated_Source\PSoC4/CapSense_SMS.c ****     {
 416:Generated_Source\PSoC4/CapSense_SMS.c ****         value = 10u;
 393              		.loc 1 416 0
 394 0006 0A21     		movs	r1, #10
 395              	.LVL37:
 396              	.L25:
 417:Generated_Source\PSoC4/CapSense_SMS.c ****     }
 418:Generated_Source\PSoC4/CapSense_SMS.c **** 
 419:Generated_Source\PSoC4/CapSense_SMS.c ****     /* Clear SensorSensitivity value in LSB nibble */
 420:Generated_Source\PSoC4/CapSense_SMS.c ****     CapSense_sensorSensitivity[sensor] &= (uint8)~CapSense_SENSITIVITY_MASK;
 397              		.loc 1 420 0
 398 0008 034A     		ldr	r2, .L27
 399 000a 135C     		ldrb	r3, [r2, r0]
 400 000c 0F24     		movs	r4, #15
 401 000e A343     		bics	r3, r4
 421:Generated_Source\PSoC4/CapSense_SMS.c ****     /* Set SensorSensitivity value in LSB nibble */
 422:Generated_Source\PSoC4/CapSense_SMS.c ****     CapSense_sensorSensitivity[sensor] |= (uint8)value;
ARM GAS  C:\Users\SHOZO\AppData\Local\Temp\ccinm8ur.s 			page 16


 402              		.loc 1 422 0
 403 0010 1943     		orrs	r1, r3
 404              	.LVL38:
 405 0012 1154     		strb	r1, [r2, r0]
 423:Generated_Source\PSoC4/CapSense_SMS.c **** }
 406              		.loc 1 423 0
 407              		@ sp needed
 408 0014 10BD     		pop	{r4, pc}
 409              	.L28:
 410 0016 C046     		.align	2
 411              	.L27:
 412 0018 00000000 		.word	.LANCHOR1
 413              		.cfi_endproc
 414              	.LFE37:
 415              		.size	CapSense_SetSensitivity, .-CapSense_SetSensitivity
 416              		.section	.text.CapSense_GetSensitivityCoefficient,"ax",%progbits
 417              		.align	2
 418              		.global	CapSense_GetSensitivityCoefficient
 419              		.code	16
 420              		.thumb_func
 421              		.type	CapSense_GetSensitivityCoefficient, %function
 422              	CapSense_GetSensitivityCoefficient:
 423              	.LFB38:
 424:Generated_Source\PSoC4/CapSense_SMS.c **** 
 425:Generated_Source\PSoC4/CapSense_SMS.c **** 
 426:Generated_Source\PSoC4/CapSense_SMS.c **** /*******************************************************************************
 427:Generated_Source\PSoC4/CapSense_SMS.c **** * Function Name: CapSense_GetSensitivityCoefficient
 428:Generated_Source\PSoC4/CapSense_SMS.c **** ********************************************************************************
 429:Generated_Source\PSoC4/CapSense_SMS.c **** *
 430:Generated_Source\PSoC4/CapSense_SMS.c **** * Summary:
 431:Generated_Source\PSoC4/CapSense_SMS.c **** *  This API returns the K coefficient for the appropriate sensor.
 432:Generated_Source\PSoC4/CapSense_SMS.c **** *
 433:Generated_Source\PSoC4/CapSense_SMS.c **** * Parameters:
 434:Generated_Source\PSoC4/CapSense_SMS.c **** *  sensor:  Sensor index
 435:Generated_Source\PSoC4/CapSense_SMS.c **** *
 436:Generated_Source\PSoC4/CapSense_SMS.c **** *  Return Value:
 437:Generated_Source\PSoC4/CapSense_SMS.c **** *   K - value for the appropriate sensor.
 438:Generated_Source\PSoC4/CapSense_SMS.c **** *
 439:Generated_Source\PSoC4/CapSense_SMS.c **** * Global Variables:
 440:Generated_Source\PSoC4/CapSense_SMS.c **** *  CapSense_kValueTbl[] - This 8-bits array contains the K value for each sensor.
 441:Generated_Source\PSoC4/CapSense_SMS.c **** *
 442:Generated_Source\PSoC4/CapSense_SMS.c **** * Side Effects:
 443:Generated_Source\PSoC4/CapSense_SMS.c **** *  None
 444:Generated_Source\PSoC4/CapSense_SMS.c **** *
 445:Generated_Source\PSoC4/CapSense_SMS.c **** *******************************************************************************/
 446:Generated_Source\PSoC4/CapSense_SMS.c **** uint8 CapSense_GetSensitivityCoefficient(uint32 sensor)
 447:Generated_Source\PSoC4/CapSense_SMS.c **** {
 424              		.loc 1 447 0
 425              		.cfi_startproc
 426              		@ args = 0, pretend = 0, frame = 0
 427              		@ frame_needed = 0, uses_anonymous_args = 0
 428              		@ link register save eliminated.
 429              	.LVL39:
 448:Generated_Source\PSoC4/CapSense_SMS.c ****     return (CapSense_kValueTbl[sensor]);
 430              		.loc 1 448 0
 431 0000 014B     		ldr	r3, .L30
 432 0002 185C     		ldrb	r0, [r3, r0]
ARM GAS  C:\Users\SHOZO\AppData\Local\Temp\ccinm8ur.s 			page 17


 433              	.LVL40:
 449:Generated_Source\PSoC4/CapSense_SMS.c **** }
 434              		.loc 1 449 0
 435              		@ sp needed
 436 0004 7047     		bx	lr
 437              	.L31:
 438 0006 C046     		.align	2
 439              	.L30:
 440 0008 00000000 		.word	CapSense_kValueTbl
 441              		.cfi_endproc
 442              	.LFE38:
 443              		.size	CapSense_GetSensitivityCoefficient, .-CapSense_GetSensitivityCoefficient
 444              		.section	.text.CapSense_GetNoiseEnvelope,"ax",%progbits
 445              		.align	2
 446              		.global	CapSense_GetNoiseEnvelope
 447              		.code	16
 448              		.thumb_func
 449              		.type	CapSense_GetNoiseEnvelope, %function
 450              	CapSense_GetNoiseEnvelope:
 451              	.LFB39:
 450:Generated_Source\PSoC4/CapSense_SMS.c **** 
 451:Generated_Source\PSoC4/CapSense_SMS.c **** 
 452:Generated_Source\PSoC4/CapSense_SMS.c **** /*******************************************************************************
 453:Generated_Source\PSoC4/CapSense_SMS.c **** * Function Name: CapSense_GetNoiseEnvelope
 454:Generated_Source\PSoC4/CapSense_SMS.c **** ********************************************************************************
 455:Generated_Source\PSoC4/CapSense_SMS.c **** *
 456:Generated_Source\PSoC4/CapSense_SMS.c **** * Summary:
 457:Generated_Source\PSoC4/CapSense_SMS.c **** *  This function returns the noise value of a
 458:Generated_Source\PSoC4/CapSense_SMS.c **** *  component.
 459:Generated_Source\PSoC4/CapSense_SMS.c **** *
 460:Generated_Source\PSoC4/CapSense_SMS.c **** * Parameters:
 461:Generated_Source\PSoC4/CapSense_SMS.c **** *  sensor - Sensor number.
 462:Generated_Source\PSoC4/CapSense_SMS.c **** *
 463:Generated_Source\PSoC4/CapSense_SMS.c **** * Return:
 464:Generated_Source\PSoC4/CapSense_SMS.c **** *  The noise envelope value of the sensor
 465:Generated_Source\PSoC4/CapSense_SMS.c **** *  indicated by argument.
 466:Generated_Source\PSoC4/CapSense_SMS.c **** *
 467:Generated_Source\PSoC4/CapSense_SMS.c **** * Global Variables:
 468:Generated_Source\PSoC4/CapSense_SMS.c **** *  CapSense_noiseEnvelopeTbl[] - array with Noise Envelope.
 469:Generated_Source\PSoC4/CapSense_SMS.c **** *
 470:Generated_Source\PSoC4/CapSense_SMS.c **** * Side Effects:
 471:Generated_Source\PSoC4/CapSense_SMS.c **** *  None
 472:Generated_Source\PSoC4/CapSense_SMS.c **** *
 473:Generated_Source\PSoC4/CapSense_SMS.c **** *******************************************************************************/
 474:Generated_Source\PSoC4/CapSense_SMS.c **** uint16 CapSense_GetNoiseEnvelope(uint32 sensor)
 475:Generated_Source\PSoC4/CapSense_SMS.c **** {
 452              		.loc 1 475 0
 453              		.cfi_startproc
 454              		@ args = 0, pretend = 0, frame = 0
 455              		@ frame_needed = 0, uses_anonymous_args = 0
 456              		@ link register save eliminated.
 457              	.LVL41:
 476:Generated_Source\PSoC4/CapSense_SMS.c ****     return((uint16)((uint16)CapSense_noiseEnvelopeTbl[sensor] << 1u) + 1u);
 458              		.loc 1 476 0
 459 0000 024B     		ldr	r3, .L33
 460 0002 185C     		ldrb	r0, [r3, r0]
 461              	.LVL42:
ARM GAS  C:\Users\SHOZO\AppData\Local\Temp\ccinm8ur.s 			page 18


 462 0004 4000     		lsls	r0, r0, #1
 463 0006 0130     		adds	r0, r0, #1
 477:Generated_Source\PSoC4/CapSense_SMS.c **** }
 464              		.loc 1 477 0
 465              		@ sp needed
 466 0008 7047     		bx	lr
 467              	.L34:
 468 000a C046     		.align	2
 469              	.L33:
 470 000c 00000000 		.word	CapSense_noiseEnvelopeTbl
 471              		.cfi_endproc
 472              	.LFE39:
 473              		.size	CapSense_GetNoiseEnvelope, .-CapSense_GetNoiseEnvelope
 474              		.global	__aeabi_uidiv
 475              		.section	.text.CapSense_GetNormalizedDiffCountData,"ax",%progbits
 476              		.align	2
 477              		.global	CapSense_GetNormalizedDiffCountData
 478              		.code	16
 479              		.thumb_func
 480              		.type	CapSense_GetNormalizedDiffCountData, %function
 481              	CapSense_GetNormalizedDiffCountData:
 482              	.LFB40:
 478:Generated_Source\PSoC4/CapSense_SMS.c **** 
 479:Generated_Source\PSoC4/CapSense_SMS.c **** 
 480:Generated_Source\PSoC4/CapSense_SMS.c **** /*******************************************************************************
 481:Generated_Source\PSoC4/CapSense_SMS.c **** * Function Name: CapSense_GetNormalizedDiffCountData
 482:Generated_Source\PSoC4/CapSense_SMS.c **** ********************************************************************************
 483:Generated_Source\PSoC4/CapSense_SMS.c **** *
 484:Generated_Source\PSoC4/CapSense_SMS.c **** * Summary:
 485:Generated_Source\PSoC4/CapSense_SMS.c **** *  This API returns normalized difference count data.
 486:Generated_Source\PSoC4/CapSense_SMS.c **** *
 487:Generated_Source\PSoC4/CapSense_SMS.c **** * Parameters:
 488:Generated_Source\PSoC4/CapSense_SMS.c **** *  sensor:  Sensor number.
 489:Generated_Source\PSoC4/CapSense_SMS.c **** *
 490:Generated_Source\PSoC4/CapSense_SMS.c **** * Return:
 491:Generated_Source\PSoC4/CapSense_SMS.c **** *  This API returns a normalized count value of the sensor indicated by the
 492:Generated_Source\PSoC4/CapSense_SMS.c **** *  argument.
 493:Generated_Source\PSoC4/CapSense_SMS.c **** *
 494:Generated_Source\PSoC4/CapSense_SMS.c **** * Global Variables:
 495:Generated_Source\PSoC4/CapSense_SMS.c **** *  CapSense_sensorSignal[] - array with difference counts for sensors
 496:Generated_Source\PSoC4/CapSense_SMS.c **** *
 497:Generated_Source\PSoC4/CapSense_SMS.c **** * Side Effects:
 498:Generated_Source\PSoC4/CapSense_SMS.c **** *  None
 499:Generated_Source\PSoC4/CapSense_SMS.c **** *
 500:Generated_Source\PSoC4/CapSense_SMS.c **** *******************************************************************************/
 501:Generated_Source\PSoC4/CapSense_SMS.c **** uint16 CapSense_GetNormalizedDiffCountData(uint32 sensor)
 502:Generated_Source\PSoC4/CapSense_SMS.c **** {
 483              		.loc 1 502 0
 484              		.cfi_startproc
 485              		@ args = 0, pretend = 0, frame = 0
 486              		@ frame_needed = 0, uses_anonymous_args = 0
 487              	.LVL43:
 488 0000 10B5     		push	{r4, lr}
 489              		.cfi_def_cfa_offset 8
 490              		.cfi_offset 4, -8
 491              		.cfi_offset 14, -4
 492 0002 0200     		movs	r2, r0
ARM GAS  C:\Users\SHOZO\AppData\Local\Temp\ccinm8ur.s 			page 19


 503:Generated_Source\PSoC4/CapSense_SMS.c ****     return (uint16)(((uint32)CapSense_sensorSignal[sensor] << 7u) / CapSense_kValueTbl[sensor]);
 493              		.loc 1 503 0
 494 0004 044B     		ldr	r3, .L36
 495 0006 1B5C     		ldrb	r3, [r3, r0]
 496 0008 D801     		lsls	r0, r3, #7
 497              	.LVL44:
 498 000a 044B     		ldr	r3, .L36+4
 499 000c 995C     		ldrb	r1, [r3, r2]
 500 000e FFF7FEFF 		bl	__aeabi_uidiv
 501              	.LVL45:
 502 0012 80B2     		uxth	r0, r0
 504:Generated_Source\PSoC4/CapSense_SMS.c **** }
 503              		.loc 1 504 0
 504              		@ sp needed
 505 0014 10BD     		pop	{r4, pc}
 506              	.L37:
 507 0016 C046     		.align	2
 508              	.L36:
 509 0018 00000000 		.word	CapSense_sensorSignal
 510 001c 00000000 		.word	CapSense_kValueTbl
 511              		.cfi_endproc
 512              	.LFE40:
 513              		.size	CapSense_GetNormalizedDiffCountData, .-CapSense_GetNormalizedDiffCountData
 514              		.global	CapSense_configPointers
 515              		.comm	CapSense_config,12,4
 516              		.global	CapSense_sensorSensitivity
 517              		.comm	CapSense_kValueTbl,6,4
 518              		.comm	CapSense_previousSampleTbl,12,4
 519              		.comm	CapSense_sampleMaxTbl,12,4
 520              		.comm	CapSense_sampleMinTbl,12,4
 521              		.comm	CapSense_signRegisterTbl,6,4
 522              		.comm	CapSense_runningDifferenceTbl,6,4
 523              		.comm	CapSense_noiseEnvelopeTbl,6,4
 524              		.global	CapSense_prescalerTable
 525              		.section	.rodata
 526              		.align	2
 527              		.set	.LANCHOR0,. + 0
 528              		.type	CapSense_configPointers, %object
 529              		.size	CapSense_configPointers, 92
 530              	CapSense_configPointers:
 531 0000 00000000 		.word	CapSense_modulationIDAC
 532 0004 00000000 		.word	CapSense_compensationIDAC
 533 0008 00000000 		.word	CapSense_sensorSensitivity
 534 000c 00000000 		.word	CapSense_senseClkDividerVal
 535 0010 00000000 		.word	CapSense_sampleClkDividerVal
 536 0014 00000000 		.word	CapSense_widgetNumber
 537 0018 00000000 		.word	CapSense_widgetResolution
 538 001c 00000000 		.word	CapSense_noiseEnvelopeTbl
 539 0020 00000000 		.word	CapSense_runningDifferenceTbl
 540 0024 00000000 		.word	CapSense_signRegisterTbl
 541 0028 00000000 		.word	CapSense_sampleMinTbl
 542 002c 00000000 		.word	CapSense_sampleMaxTbl
 543 0030 00000000 		.word	CapSense_previousSampleTbl
 544 0034 00000000 		.word	CapSense_kValueTbl
 545 0038 00000000 		.word	CapSense_scanSpeedTbl
 546 003c 00000000 		.word	CapSense_prescalerTable
 547 0040 00000000 		.word	CapSense_rawDataIndex
ARM GAS  C:\Users\SHOZO\AppData\Local\Temp\ccinm8ur.s 			page 20


 548 0044 00000000 		.word	CapSense_numberOfSensors
 549 0048 00000000 		.word	CapSense_GetSensorRaw
 550 004c 00000000 		.word	CapSense_PreScan
 551 0050 00000000 		.word	CapSense_ReadSensorRaw
 552 0054 00000000 		.word	CapSense_GetBitValue
 553 0058 00000000 		.word	CapSense_SetBitValue
 554              		.type	CapSense_prescalerTable, %object
 555              		.size	CapSense_prescalerTable, 16
 556              	CapSense_prescalerTable:
 557 005c 01       		.byte	1
 558 005d 01       		.byte	1
 559 005e 01       		.byte	1
 560 005f 02       		.byte	2
 561 0060 02       		.byte	2
 562 0061 02       		.byte	2
 563 0062 02       		.byte	2
 564 0063 04       		.byte	4
 565 0064 04       		.byte	4
 566 0065 04       		.byte	4
 567 0066 04       		.byte	4
 568 0067 04       		.byte	4
 569 0068 04       		.byte	4
 570 0069 04       		.byte	4
 571 006a 04       		.byte	4
 572 006b 04       		.byte	4
 573              		.data
 574              		.align	2
 575              		.set	.LANCHOR1,. + 0
 576              		.type	CapSense_sensorSensitivity, %object
 577              		.size	CapSense_sensorSensitivity, 6
 578              	CapSense_sensorSensitivity:
 579 0000 02       		.byte	2
 580 0001 02       		.byte	2
 581 0002 02       		.byte	2
 582 0003 02       		.byte	2
 583 0004 02       		.byte	2
 584 0005 02       		.byte	2
 585              		.text
 586              	.Letext0:
 587              		.file 2 "Generated_Source\\PSoC4\\cytypes.h"
 588              		.file 3 "Generated_Source\\PSoC4\\CapSense_PVT.h"
 589              		.file 4 "Generated_Source\\PSoC4\\CapSense.h"
 590              		.file 5 "Generated_Source\\PSoC4\\CapSense_CSHL.h"
 591              		.file 6 "Generated_Source\\PSoC4\\CyLib.h"