ARM GAS  C:\Users\SHOZO\AppData\Local\Temp\ccsrjLaI.s 			page 1


   1              		.syntax unified
   2              		.cpu cortex-m0
   3              		.fpu softvfp
   4              		.eabi_attribute 20, 1
   5              		.eabi_attribute 21, 1
   6              		.eabi_attribute 23, 3
   7              		.eabi_attribute 24, 1
   8              		.eabi_attribute 25, 1
   9              		.eabi_attribute 26, 1
  10              		.eabi_attribute 30, 1
  11              		.eabi_attribute 34, 0
  12              		.eabi_attribute 18, 4
  13              		.thumb
  14              		.syntax unified
  15              		.file	"CapSense_CSHL.c"
  16              		.text
  17              	.Ltext0:
  18              		.cfi_sections	.debug_frame
  19              		.section	.text.CapSense_BaseInit,"ax",%progbits
  20              		.align	2
  21              		.global	CapSense_BaseInit
  22              		.code	16
  23              		.thumb_func
  24              		.type	CapSense_BaseInit, %function
  25              	CapSense_BaseInit:
  26              	.LFB32:
  27              		.file 1 "Generated_Source\\PSoC4\\CapSense_CSHL.c"
   1:Generated_Source\PSoC4/CapSense_CSHL.c **** /*******************************************************************************
   2:Generated_Source\PSoC4/CapSense_CSHL.c **** * File Name: CapSense_CSHL.c
   3:Generated_Source\PSoC4/CapSense_CSHL.c **** * Version 2.60
   4:Generated_Source\PSoC4/CapSense_CSHL.c **** *
   5:Generated_Source\PSoC4/CapSense_CSHL.c **** * Description:
   6:Generated_Source\PSoC4/CapSense_CSHL.c **** *  This file provides the source code to the High Level APIs for the CapSesne
   7:Generated_Source\PSoC4/CapSense_CSHL.c **** *  CSD component.
   8:Generated_Source\PSoC4/CapSense_CSHL.c **** *
   9:Generated_Source\PSoC4/CapSense_CSHL.c **** * Note:
  10:Generated_Source\PSoC4/CapSense_CSHL.c **** *
  11:Generated_Source\PSoC4/CapSense_CSHL.c **** ********************************************************************************
  12:Generated_Source\PSoC4/CapSense_CSHL.c **** * Copyright 2013-2016, Cypress Semiconductor Corporation.  All rights reserved.
  13:Generated_Source\PSoC4/CapSense_CSHL.c **** * You may use this file only in accordance with the license, terms, conditions,
  14:Generated_Source\PSoC4/CapSense_CSHL.c **** * disclaimers, and limitations in the end user license agreement accompanying
  15:Generated_Source\PSoC4/CapSense_CSHL.c **** * the software package with which this file was provided.
  16:Generated_Source\PSoC4/CapSense_CSHL.c **** *******************************************************************************/
  17:Generated_Source\PSoC4/CapSense_CSHL.c **** 
  18:Generated_Source\PSoC4/CapSense_CSHL.c **** #include "CapSense_CSHL.h"
  19:Generated_Source\PSoC4/CapSense_CSHL.c **** #include "CapSense_PVT.h"
  20:Generated_Source\PSoC4/CapSense_CSHL.c **** 
  21:Generated_Source\PSoC4/CapSense_CSHL.c **** /* SmartSense functions */
  22:Generated_Source\PSoC4/CapSense_CSHL.c **** #if (CapSense_TUNING_METHOD == CapSense__TUNING_AUTO)
  23:Generated_Source\PSoC4/CapSense_CSHL.c ****     extern void CapSense_UpdateThresholds(uint32 sensor);
  24:Generated_Source\PSoC4/CapSense_CSHL.c **** #endif /* (CapSense_TUNING_METHOD == CapSense__TUNING_AUTO) */
  25:Generated_Source\PSoC4/CapSense_CSHL.c **** 
  26:Generated_Source\PSoC4/CapSense_CSHL.c **** /* Storage of filters data */
  27:Generated_Source\PSoC4/CapSense_CSHL.c **** #if ( (0u != (CapSense_RAW_FILTER_MASK & CapSense_MEDIAN_FILTER)) || \
  28:Generated_Source\PSoC4/CapSense_CSHL.c ****       (0u != (CapSense_RAW_FILTER_MASK & CapSense_AVERAGING_FILTER)) )
  29:Generated_Source\PSoC4/CapSense_CSHL.c **** 
  30:Generated_Source\PSoC4/CapSense_CSHL.c ****     uint16 CapSense_rawFilterData1[CapSense_TOTAL_SENSOR_COUNT];
ARM GAS  C:\Users\SHOZO\AppData\Local\Temp\ccsrjLaI.s 			page 2


  31:Generated_Source\PSoC4/CapSense_CSHL.c ****     uint16 CapSense_rawFilterData2[CapSense_TOTAL_SENSOR_COUNT];
  32:Generated_Source\PSoC4/CapSense_CSHL.c **** 
  33:Generated_Source\PSoC4/CapSense_CSHL.c **** #elif ( (0u != (CapSense_RAW_FILTER_MASK & CapSense_IIR2_FILTER))   || \
  34:Generated_Source\PSoC4/CapSense_CSHL.c ****         (0u != (CapSense_RAW_FILTER_MASK & CapSense_IIR4_FILTER))   || \
  35:Generated_Source\PSoC4/CapSense_CSHL.c ****         (0u != (CapSense_RAW_FILTER_MASK & CapSense_JITTER_FILTER)) || \
  36:Generated_Source\PSoC4/CapSense_CSHL.c ****         (0u != (CapSense_RAW_FILTER_MASK & CapSense_IIR8_FILTER))   || \
  37:Generated_Source\PSoC4/CapSense_CSHL.c ****         (0u != (CapSense_RAW_FILTER_MASK & CapSense_IIR16_FILTER)) )
  38:Generated_Source\PSoC4/CapSense_CSHL.c **** 
  39:Generated_Source\PSoC4/CapSense_CSHL.c ****     uint16 CapSense_rawFilterData1[CapSense_TOTAL_SENSOR_COUNT];
  40:Generated_Source\PSoC4/CapSense_CSHL.c **** #endif  /* ( (CapSense_RAW_FILTER_MASK & CapSense_MEDIAN_FILTER) || \
  41:Generated_Source\PSoC4/CapSense_CSHL.c ****         *    (CapSense_RAW_FILTER_MASK & CapSense_AVERAGING_FILTER) )
  42:Generated_Source\PSoC4/CapSense_CSHL.c ****         */
  43:Generated_Source\PSoC4/CapSense_CSHL.c **** 
  44:Generated_Source\PSoC4/CapSense_CSHL.c **** extern uint16 CapSense_sensorRaw[CapSense_TOTAL_SENSOR_COUNT];
  45:Generated_Source\PSoC4/CapSense_CSHL.c **** extern uint8 CapSense_sensorEnableMask[CapSense_TOTAL_SENSOR_MASK];
  46:Generated_Source\PSoC4/CapSense_CSHL.c **** extern const uint8 CapSense_widgetNumber[CapSense_TOTAL_SENSOR_COUNT];
  47:Generated_Source\PSoC4/CapSense_CSHL.c **** 
  48:Generated_Source\PSoC4/CapSense_CSHL.c **** #if (CapSense_TUNING_METHOD != CapSense__TUNING_NONE)
  49:Generated_Source\PSoC4/CapSense_CSHL.c ****     extern uint32 CapSense_widgetResolution[CapSense_RESOLUTIONS_TBL_SIZE];
  50:Generated_Source\PSoC4/CapSense_CSHL.c **** #endif /* (CapSense_TUNING_METHOD != CapSense__TUNING_NONE) */
  51:Generated_Source\PSoC4/CapSense_CSHL.c **** 
  52:Generated_Source\PSoC4/CapSense_CSHL.c **** uint16 CapSense_sensorBaseline[CapSense_TOTAL_SENSOR_COUNT] = {0u};
  53:Generated_Source\PSoC4/CapSense_CSHL.c **** uint8 CapSense_sensorBaselineLow[CapSense_TOTAL_SENSOR_COUNT] = {0u};
  54:Generated_Source\PSoC4/CapSense_CSHL.c **** uint8 CapSense_sensorSignal[CapSense_TOTAL_SENSOR_COUNT] = {0u};
  55:Generated_Source\PSoC4/CapSense_CSHL.c **** uint8 CapSense_sensorOnMask[CapSense_TOTAL_SENSOR_MASK] = {0u};
  56:Generated_Source\PSoC4/CapSense_CSHL.c **** 
  57:Generated_Source\PSoC4/CapSense_CSHL.c **** uint8 CapSense_lowBaselineResetCnt[CapSense_TOTAL_SENSOR_COUNT];
  58:Generated_Source\PSoC4/CapSense_CSHL.c **** uint8 CapSense_lowBaselineReset[CapSense_TOTAL_SENSOR_COUNT] = {
  59:Generated_Source\PSoC4/CapSense_CSHL.c ****     5u, 5u, 5u, 5u, 5u, 
  60:Generated_Source\PSoC4/CapSense_CSHL.c **** };
  61:Generated_Source\PSoC4/CapSense_CSHL.c **** 
  62:Generated_Source\PSoC4/CapSense_CSHL.c **** 
  63:Generated_Source\PSoC4/CapSense_CSHL.c **** 
  64:Generated_Source\PSoC4/CapSense_CSHL.c **** #if (CapSense_TUNING_METHOD == CapSense__TUNING_AUTO)
  65:Generated_Source\PSoC4/CapSense_CSHL.c ****     extern CapSense_CONFIG_TYPE_P4_v2_60 CapSense_config;
  66:Generated_Source\PSoC4/CapSense_CSHL.c **** #endif  /* (CapSense_TUNING_METHOD == CapSense__TUNING_AUTO) */
  67:Generated_Source\PSoC4/CapSense_CSHL.c **** 
  68:Generated_Source\PSoC4/CapSense_CSHL.c **** #if (CapSense_RAW_FILTER_MASK != 0u)
  69:Generated_Source\PSoC4/CapSense_CSHL.c **** uint8 CapSense_enableRawFilters = CapSense_RAW_FILTERS_ENABLED;
  70:Generated_Source\PSoC4/CapSense_CSHL.c **** #endif  /* (CapSense_RAW_FILTER_MASK != 0u) */
  71:Generated_Source\PSoC4/CapSense_CSHL.c **** 
  72:Generated_Source\PSoC4/CapSense_CSHL.c **** /* Generated by Customizer */
  73:Generated_Source\PSoC4/CapSense_CSHL.c **** const uint8 CapSense_fingerThreshold[] = {
  74:Generated_Source\PSoC4/CapSense_CSHL.c ****     20u, 
  75:Generated_Source\PSoC4/CapSense_CSHL.c **** };
  76:Generated_Source\PSoC4/CapSense_CSHL.c **** 
  77:Generated_Source\PSoC4/CapSense_CSHL.c **** const uint8 CapSense_noiseThreshold[] = {
  78:Generated_Source\PSoC4/CapSense_CSHL.c ****     5u, 
  79:Generated_Source\PSoC4/CapSense_CSHL.c **** };
  80:Generated_Source\PSoC4/CapSense_CSHL.c **** 
  81:Generated_Source\PSoC4/CapSense_CSHL.c **** const uint8 CapSense_hysteresis[] = {
  82:Generated_Source\PSoC4/CapSense_CSHL.c ****     0u, 
  83:Generated_Source\PSoC4/CapSense_CSHL.c **** };
  84:Generated_Source\PSoC4/CapSense_CSHL.c **** 
  85:Generated_Source\PSoC4/CapSense_CSHL.c **** const uint8 CapSense_debounce[] = {
  86:Generated_Source\PSoC4/CapSense_CSHL.c ****     1u, 
  87:Generated_Source\PSoC4/CapSense_CSHL.c **** };
ARM GAS  C:\Users\SHOZO\AppData\Local\Temp\ccsrjLaI.s 			page 3


  88:Generated_Source\PSoC4/CapSense_CSHL.c **** 
  89:Generated_Source\PSoC4/CapSense_CSHL.c **** const uint8 CapSense_rawDataIndex[] = {
  90:Generated_Source\PSoC4/CapSense_CSHL.c ****     0u, /* LinearSlider0__LS */
  91:Generated_Source\PSoC4/CapSense_CSHL.c **** };
  92:Generated_Source\PSoC4/CapSense_CSHL.c **** 
  93:Generated_Source\PSoC4/CapSense_CSHL.c **** const uint8 CapSense_numberOfSensors[] = {
  94:Generated_Source\PSoC4/CapSense_CSHL.c ****     5u, /* LinearSlider0__LS */
  95:Generated_Source\PSoC4/CapSense_CSHL.c **** };
  96:Generated_Source\PSoC4/CapSense_CSHL.c **** 
  97:Generated_Source\PSoC4/CapSense_CSHL.c **** static const uint16 CapSense_centroidMult[] = {
  98:Generated_Source\PSoC4/CapSense_CSHL.c ****     6400u, 
  99:Generated_Source\PSoC4/CapSense_CSHL.c **** };
 100:Generated_Source\PSoC4/CapSense_CSHL.c **** 
 101:Generated_Source\PSoC4/CapSense_CSHL.c **** static const uint8 CapSense_posFiltersMask[] = {
 102:Generated_Source\PSoC4/CapSense_CSHL.c ****     0x8u, 
 103:Generated_Source\PSoC4/CapSense_CSHL.c **** };
 104:Generated_Source\PSoC4/CapSense_CSHL.c **** 
 105:Generated_Source\PSoC4/CapSense_CSHL.c **** static uint8 CapSense_posFiltersData[] = {
 106:Generated_Source\PSoC4/CapSense_CSHL.c ****     1u, 0u, 0u, 
 107:Generated_Source\PSoC4/CapSense_CSHL.c **** };
 108:Generated_Source\PSoC4/CapSense_CSHL.c **** 
 109:Generated_Source\PSoC4/CapSense_CSHL.c **** 
 110:Generated_Source\PSoC4/CapSense_CSHL.c **** 
 111:Generated_Source\PSoC4/CapSense_CSHL.c **** 
 112:Generated_Source\PSoC4/CapSense_CSHL.c **** /*******************************************************************************
 113:Generated_Source\PSoC4/CapSense_CSHL.c **** * Function Name: CapSense_BaseInit
 114:Generated_Source\PSoC4/CapSense_CSHL.c **** ********************************************************************************
 115:Generated_Source\PSoC4/CapSense_CSHL.c **** *
 116:Generated_Source\PSoC4/CapSense_CSHL.c **** * Summary:
 117:Generated_Source\PSoC4/CapSense_CSHL.c **** *  Loads the CapSense_sensorBaseline[sensor] array element with an
 118:Generated_Source\PSoC4/CapSense_CSHL.c **** *  initial value which is equal to the raw count value.
 119:Generated_Source\PSoC4/CapSense_CSHL.c **** *  Resets to zero CapSense_sensorBaselineLow[sensor] and
 120:Generated_Source\PSoC4/CapSense_CSHL.c **** *  CapSense_sensorSignal[sensor] array element.
 121:Generated_Source\PSoC4/CapSense_CSHL.c **** *  Loads the CapSense_rawFilterData2[sensor] and
 122:Generated_Source\PSoC4/CapSense_CSHL.c **** *  CapSense_rawFilterData2[sensor] array element with an
 123:Generated_Source\PSoC4/CapSense_CSHL.c **** *  initial value which is equal to the raw count value if the raw data filter is enabled.
 124:Generated_Source\PSoC4/CapSense_CSHL.c **** *
 125:Generated_Source\PSoC4/CapSense_CSHL.c **** * Parameters:
 126:Generated_Source\PSoC4/CapSense_CSHL.c **** *  sensor:  Sensor number.
 127:Generated_Source\PSoC4/CapSense_CSHL.c **** *
 128:Generated_Source\PSoC4/CapSense_CSHL.c **** * Return:
 129:Generated_Source\PSoC4/CapSense_CSHL.c **** *  None
 130:Generated_Source\PSoC4/CapSense_CSHL.c **** *
 131:Generated_Source\PSoC4/CapSense_CSHL.c **** * Global Variables:
 132:Generated_Source\PSoC4/CapSense_CSHL.c **** *  CapSense_sensorBaseline[]    - used to store the baseline value.
 133:Generated_Source\PSoC4/CapSense_CSHL.c **** *  CapSense_sensorBaselineLow[] - used to store the fraction byte of
 134:Generated_Source\PSoC4/CapSense_CSHL.c **** *  the baseline value.
 135:Generated_Source\PSoC4/CapSense_CSHL.c **** *  CapSense_sensorSignal[]      - used to store a difference between
 136:Generated_Source\PSoC4/CapSense_CSHL.c **** *  the current value of raw data and the previous value of the baseline.
 137:Generated_Source\PSoC4/CapSense_CSHL.c **** *  CapSense_rawFilterData1[]    - used to store a previous sample of
 138:Generated_Source\PSoC4/CapSense_CSHL.c **** *  any enabled raw data filter.
 139:Generated_Source\PSoC4/CapSense_CSHL.c **** *  CapSense_rawFilterData2[]    - used to store before a previous sample
 140:Generated_Source\PSoC4/CapSense_CSHL.c **** *  of the enabled raw data filter. Required only for median or average filters.
 141:Generated_Source\PSoC4/CapSense_CSHL.c **** *
 142:Generated_Source\PSoC4/CapSense_CSHL.c **** * Side Effects:
 143:Generated_Source\PSoC4/CapSense_CSHL.c **** *  None
 144:Generated_Source\PSoC4/CapSense_CSHL.c **** *
ARM GAS  C:\Users\SHOZO\AppData\Local\Temp\ccsrjLaI.s 			page 4


 145:Generated_Source\PSoC4/CapSense_CSHL.c **** *******************************************************************************/
 146:Generated_Source\PSoC4/CapSense_CSHL.c **** void CapSense_BaseInit(uint32 sensor)
 147:Generated_Source\PSoC4/CapSense_CSHL.c **** {
  28              		.loc 1 147 0
  29              		.cfi_startproc
  30              		@ args = 0, pretend = 0, frame = 0
  31              		@ frame_needed = 0, uses_anonymous_args = 0
  32              		@ link register save eliminated.
  33              	.LVL0:
 148:Generated_Source\PSoC4/CapSense_CSHL.c ****     #if ((CapSense_TOTAL_BUTTONS_COUNT) || (CapSense_TOTAL_MATRIX_BUTTONS_COUNT) || \
 149:Generated_Source\PSoC4/CapSense_CSHL.c ****          (CapSense_TOTAL_GENERICS_COUNT))
 150:Generated_Source\PSoC4/CapSense_CSHL.c ****         uint8 widget = CapSense_widgetNumber[sensor];
 151:Generated_Source\PSoC4/CapSense_CSHL.c ****     #endif /* ((CapSense_TOTAL_MATRIX_BUTTONS_COUNT) || (CapSense_TOTAL_MATRIX_BUTTONS_COUNT)) */
 152:Generated_Source\PSoC4/CapSense_CSHL.c **** 
 153:Generated_Source\PSoC4/CapSense_CSHL.c ****     #if (CapSense_TOTAL_MATRIX_BUTTONS_COUNT)
 154:Generated_Source\PSoC4/CapSense_CSHL.c ****         uint8 debounceIndex;
 155:Generated_Source\PSoC4/CapSense_CSHL.c ****     #endif  /* (CapSense_TOTAL_MATRIX_BUTTONS_COUNT) */
 156:Generated_Source\PSoC4/CapSense_CSHL.c **** 
 157:Generated_Source\PSoC4/CapSense_CSHL.c ****     #if (CapSense_TOTAL_GENERICS_COUNT)
 158:Generated_Source\PSoC4/CapSense_CSHL.c ****         /* Exclude generic widget */
 159:Generated_Source\PSoC4/CapSense_CSHL.c ****         if(widget < CapSense_END_OF_WIDGETS_INDEX)
 160:Generated_Source\PSoC4/CapSense_CSHL.c ****         {
 161:Generated_Source\PSoC4/CapSense_CSHL.c ****     #endif  /* CapSense_TOTAL_GENERICS_COUNT */
 162:Generated_Source\PSoC4/CapSense_CSHL.c **** 
 163:Generated_Source\PSoC4/CapSense_CSHL.c ****     /* Initialize Baseline */
 164:Generated_Source\PSoC4/CapSense_CSHL.c ****     CapSense_sensorBaseline[sensor] = CapSense_sensorRaw[sensor];
  34              		.loc 1 164 0
  35 0000 4300     		lsls	r3, r0, #1
  36 0002 054A     		ldr	r2, .L2
  37 0004 9A5A     		ldrh	r2, [r3, r2]
  38 0006 0549     		ldr	r1, .L2+4
  39 0008 5A52     		strh	r2, [r3, r1]
 165:Generated_Source\PSoC4/CapSense_CSHL.c ****     CapSense_sensorBaselineLow[sensor] = 0u;
  40              		.loc 1 165 0
  41 000a 0818     		adds	r0, r1, r0
  42              	.LVL1:
  43 000c 0021     		movs	r1, #0
  44 000e 0173     		strb	r1, [r0, #12]
 166:Generated_Source\PSoC4/CapSense_CSHL.c ****     CapSense_sensorSignal[sensor] = 0u;
  45              		.loc 1 166 0
  46 0010 0175     		strb	r1, [r0, #20]
 167:Generated_Source\PSoC4/CapSense_CSHL.c **** 
 168:Generated_Source\PSoC4/CapSense_CSHL.c **** 
 169:Generated_Source\PSoC4/CapSense_CSHL.c **** 
 170:Generated_Source\PSoC4/CapSense_CSHL.c ****     #if ((0u != (CapSense_RAW_FILTER_MASK & CapSense_MEDIAN_FILTER)) ||\
 171:Generated_Source\PSoC4/CapSense_CSHL.c ****          (0u != (CapSense_RAW_FILTER_MASK & CapSense_AVERAGING_FILTER)))
 172:Generated_Source\PSoC4/CapSense_CSHL.c **** 
 173:Generated_Source\PSoC4/CapSense_CSHL.c ****         CapSense_rawFilterData1[sensor] = CapSense_sensorRaw[sensor];
 174:Generated_Source\PSoC4/CapSense_CSHL.c ****         CapSense_rawFilterData2[sensor] = CapSense_sensorRaw[sensor];
 175:Generated_Source\PSoC4/CapSense_CSHL.c **** 
 176:Generated_Source\PSoC4/CapSense_CSHL.c ****     #elif ((CapSense_RAW_FILTER_MASK & CapSense_IIR2_FILTER) ||\
 177:Generated_Source\PSoC4/CapSense_CSHL.c ****            (CapSense_RAW_FILTER_MASK & CapSense_IIR4_FILTER) ||\
 178:Generated_Source\PSoC4/CapSense_CSHL.c ****            (CapSense_RAW_FILTER_MASK & CapSense_JITTER_FILTER) ||\
 179:Generated_Source\PSoC4/CapSense_CSHL.c ****            (CapSense_RAW_FILTER_MASK & CapSense_IIR8_FILTER) ||\
 180:Generated_Source\PSoC4/CapSense_CSHL.c ****            (CapSense_RAW_FILTER_MASK & CapSense_IIR16_FILTER))
 181:Generated_Source\PSoC4/CapSense_CSHL.c **** 
 182:Generated_Source\PSoC4/CapSense_CSHL.c ****         CapSense_rawFilterData1[sensor] = CapSense_sensorRaw[sensor];
ARM GAS  C:\Users\SHOZO\AppData\Local\Temp\ccsrjLaI.s 			page 5


  47              		.loc 1 182 0
  48 0012 0349     		ldr	r1, .L2+8
  49 0014 5A52     		strh	r2, [r3, r1]
 183:Generated_Source\PSoC4/CapSense_CSHL.c **** 
 184:Generated_Source\PSoC4/CapSense_CSHL.c ****     #else
 185:Generated_Source\PSoC4/CapSense_CSHL.c ****         /* No Raw filters */
 186:Generated_Source\PSoC4/CapSense_CSHL.c ****     #endif  /* ((CapSense_RAW_FILTER_MASK & CapSense_MEDIAN_FILTER) || \
 187:Generated_Source\PSoC4/CapSense_CSHL.c ****             *   (CapSense_RAW_FILTER_MASK & CapSense_AVERAGING_FILTER))
 188:Generated_Source\PSoC4/CapSense_CSHL.c ****             */
 189:Generated_Source\PSoC4/CapSense_CSHL.c **** 
 190:Generated_Source\PSoC4/CapSense_CSHL.c ****     #if (CapSense_TOTAL_GENERICS_COUNT)
 191:Generated_Source\PSoC4/CapSense_CSHL.c ****         /* Exclude generic widget */
 192:Generated_Source\PSoC4/CapSense_CSHL.c ****         }
 193:Generated_Source\PSoC4/CapSense_CSHL.c ****     #endif  /* CapSense_TOTAL_GENERICS_COUNT */
 194:Generated_Source\PSoC4/CapSense_CSHL.c **** }
  50              		.loc 1 194 0
  51              		@ sp needed
  52 0016 7047     		bx	lr
  53              	.L3:
  54              		.align	2
  55              	.L2:
  56 0018 00000000 		.word	CapSense_sensorRaw
  57 001c 00000000 		.word	.LANCHOR0
  58 0020 00000000 		.word	CapSense_rawFilterData1
  59              		.cfi_endproc
  60              	.LFE32:
  61              		.size	CapSense_BaseInit, .-CapSense_BaseInit
  62              		.section	.text.CapSense_InitializeSensorBaseline,"ax",%progbits
  63              		.align	2
  64              		.global	CapSense_InitializeSensorBaseline
  65              		.code	16
  66              		.thumb_func
  67              		.type	CapSense_InitializeSensorBaseline, %function
  68              	CapSense_InitializeSensorBaseline:
  69              	.LFB33:
 195:Generated_Source\PSoC4/CapSense_CSHL.c **** 
 196:Generated_Source\PSoC4/CapSense_CSHL.c **** 
 197:Generated_Source\PSoC4/CapSense_CSHL.c **** /*******************************************************************************
 198:Generated_Source\PSoC4/CapSense_CSHL.c **** * Function Name: CapSense_InitializeSensorBaseline
 199:Generated_Source\PSoC4/CapSense_CSHL.c **** ********************************************************************************
 200:Generated_Source\PSoC4/CapSense_CSHL.c **** *
 201:Generated_Source\PSoC4/CapSense_CSHL.c **** * Summary:
 202:Generated_Source\PSoC4/CapSense_CSHL.c **** *  Loads the CapSense_sensorBaseline[sensor] array element with an
 203:Generated_Source\PSoC4/CapSense_CSHL.c **** *  initial value by scanning the selected sensor (one channel design) or a pair
 204:Generated_Source\PSoC4/CapSense_CSHL.c **** *  of sensors (two channels designs). The raw count value is copied into the
 205:Generated_Source\PSoC4/CapSense_CSHL.c **** *  baseline array for each sensor. The raw data filters are initialized if
 206:Generated_Source\PSoC4/CapSense_CSHL.c **** *  enabled.
 207:Generated_Source\PSoC4/CapSense_CSHL.c **** *
 208:Generated_Source\PSoC4/CapSense_CSHL.c **** * Parameters:
 209:Generated_Source\PSoC4/CapSense_CSHL.c **** *  sensor:  Sensor number.
 210:Generated_Source\PSoC4/CapSense_CSHL.c **** *
 211:Generated_Source\PSoC4/CapSense_CSHL.c **** * Return:
 212:Generated_Source\PSoC4/CapSense_CSHL.c **** *  None
 213:Generated_Source\PSoC4/CapSense_CSHL.c **** *
 214:Generated_Source\PSoC4/CapSense_CSHL.c **** * Global Variables:
 215:Generated_Source\PSoC4/CapSense_CSHL.c **** *  None
 216:Generated_Source\PSoC4/CapSense_CSHL.c **** *
ARM GAS  C:\Users\SHOZO\AppData\Local\Temp\ccsrjLaI.s 			page 6


 217:Generated_Source\PSoC4/CapSense_CSHL.c **** * Side Effects:
 218:Generated_Source\PSoC4/CapSense_CSHL.c **** *  None
 219:Generated_Source\PSoC4/CapSense_CSHL.c **** *
 220:Generated_Source\PSoC4/CapSense_CSHL.c **** *******************************************************************************/
 221:Generated_Source\PSoC4/CapSense_CSHL.c **** void CapSense_InitializeSensorBaseline(uint32 sensor)
 222:Generated_Source\PSoC4/CapSense_CSHL.c **** {
  70              		.loc 1 222 0
  71              		.cfi_startproc
  72              		@ args = 0, pretend = 0, frame = 0
  73              		@ frame_needed = 0, uses_anonymous_args = 0
  74              	.LVL2:
  75 0000 10B5     		push	{r4, lr}
  76              		.cfi_def_cfa_offset 8
  77              		.cfi_offset 4, -8
  78              		.cfi_offset 14, -4
  79 0002 0400     		movs	r4, r0
 223:Generated_Source\PSoC4/CapSense_CSHL.c ****     /* Scan sensor */
 224:Generated_Source\PSoC4/CapSense_CSHL.c ****     CapSense_ScanSensor(sensor);
  80              		.loc 1 224 0
  81 0004 FFF7FEFF 		bl	CapSense_ScanSensor
  82              	.LVL3:
  83              	.L5:
 225:Generated_Source\PSoC4/CapSense_CSHL.c ****     while(CapSense_IsBusy() != 0u)
  84              		.loc 1 225 0 discriminator 1
  85 0008 FFF7FEFF 		bl	CapSense_IsBusy
  86              	.LVL4:
  87 000c 0028     		cmp	r0, #0
  88 000e FBD1     		bne	.L5
 226:Generated_Source\PSoC4/CapSense_CSHL.c ****     {
 227:Generated_Source\PSoC4/CapSense_CSHL.c ****         /* Wait while sensor is busy */
 228:Generated_Source\PSoC4/CapSense_CSHL.c ****     }
 229:Generated_Source\PSoC4/CapSense_CSHL.c **** 
 230:Generated_Source\PSoC4/CapSense_CSHL.c ****     /* Initialize Baseline, Signal and debounce counters */
 231:Generated_Source\PSoC4/CapSense_CSHL.c ****     CapSense_BaseInit(sensor);
  89              		.loc 1 231 0
  90 0010 2000     		movs	r0, r4
  91 0012 FFF7FEFF 		bl	CapSense_BaseInit
  92              	.LVL5:
 232:Generated_Source\PSoC4/CapSense_CSHL.c **** }
  93              		.loc 1 232 0
  94              		@ sp needed
  95              	.LVL6:
  96 0016 10BD     		pop	{r4, pc}
  97              		.cfi_endproc
  98              	.LFE33:
  99              		.size	CapSense_InitializeSensorBaseline, .-CapSense_InitializeSensorBaseline
 100              		.section	.text.CapSense_InitializeAllBaselines,"ax",%progbits
 101              		.align	2
 102              		.global	CapSense_InitializeAllBaselines
 103              		.code	16
 104              		.thumb_func
 105              		.type	CapSense_InitializeAllBaselines, %function
 106              	CapSense_InitializeAllBaselines:
 107              	.LFB34:
 233:Generated_Source\PSoC4/CapSense_CSHL.c **** 
 234:Generated_Source\PSoC4/CapSense_CSHL.c **** 
 235:Generated_Source\PSoC4/CapSense_CSHL.c **** /*******************************************************************************
ARM GAS  C:\Users\SHOZO\AppData\Local\Temp\ccsrjLaI.s 			page 7


 236:Generated_Source\PSoC4/CapSense_CSHL.c **** * Function Name: CapSense_InitializeAllBaselines
 237:Generated_Source\PSoC4/CapSense_CSHL.c **** ********************************************************************************
 238:Generated_Source\PSoC4/CapSense_CSHL.c **** *
 239:Generated_Source\PSoC4/CapSense_CSHL.c **** * Summary:
 240:Generated_Source\PSoC4/CapSense_CSHL.c **** *  Uses the CapSense_InitializeSensorBaseline function to load the
 241:Generated_Source\PSoC4/CapSense_CSHL.c **** *  CapSense_sensorBaseline[] array with an initial values by scanning
 242:Generated_Source\PSoC4/CapSense_CSHL.c **** *  all the sensors. The raw count values are copied into the baseline array for
 243:Generated_Source\PSoC4/CapSense_CSHL.c **** *  all the sensors. The raw data filters are initialized if enabled.
 244:Generated_Source\PSoC4/CapSense_CSHL.c **** *
 245:Generated_Source\PSoC4/CapSense_CSHL.c **** * Parameters:
 246:Generated_Source\PSoC4/CapSense_CSHL.c **** *  None
 247:Generated_Source\PSoC4/CapSense_CSHL.c **** *
 248:Generated_Source\PSoC4/CapSense_CSHL.c **** * Return:
 249:Generated_Source\PSoC4/CapSense_CSHL.c **** *  None
 250:Generated_Source\PSoC4/CapSense_CSHL.c **** *
 251:Generated_Source\PSoC4/CapSense_CSHL.c **** * Global Variables:
 252:Generated_Source\PSoC4/CapSense_CSHL.c **** *  None
 253:Generated_Source\PSoC4/CapSense_CSHL.c **** *
 254:Generated_Source\PSoC4/CapSense_CSHL.c **** * Side Effects:
 255:Generated_Source\PSoC4/CapSense_CSHL.c **** *  None
 256:Generated_Source\PSoC4/CapSense_CSHL.c **** *
 257:Generated_Source\PSoC4/CapSense_CSHL.c **** *******************************************************************************/
 258:Generated_Source\PSoC4/CapSense_CSHL.c **** void CapSense_InitializeAllBaselines(void)
 259:Generated_Source\PSoC4/CapSense_CSHL.c **** {
 108              		.loc 1 259 0
 109              		.cfi_startproc
 110              		@ args = 0, pretend = 0, frame = 0
 111              		@ frame_needed = 0, uses_anonymous_args = 0
 112 0000 10B5     		push	{r4, lr}
 113              		.cfi_def_cfa_offset 8
 114              		.cfi_offset 4, -8
 115              		.cfi_offset 14, -4
 116              	.LVL7:
 260:Generated_Source\PSoC4/CapSense_CSHL.c ****     uint32 i;
 261:Generated_Source\PSoC4/CapSense_CSHL.c **** 
 262:Generated_Source\PSoC4/CapSense_CSHL.c ****     for(i = 0u; i < CapSense_TOTAL_SCANSLOT_COUNT; i++)
 117              		.loc 1 262 0
 118 0002 0024     		movs	r4, #0
 119 0004 03E0     		b	.L7
 120              	.LVL8:
 121              	.L8:
 263:Generated_Source\PSoC4/CapSense_CSHL.c ****     {
 264:Generated_Source\PSoC4/CapSense_CSHL.c ****         CapSense_InitializeSensorBaseline(i);
 122              		.loc 1 264 0 discriminator 3
 123 0006 2000     		movs	r0, r4
 124 0008 FFF7FEFF 		bl	CapSense_InitializeSensorBaseline
 125              	.LVL9:
 262:Generated_Source\PSoC4/CapSense_CSHL.c ****     {
 126              		.loc 1 262 0 discriminator 3
 127 000c 0134     		adds	r4, r4, #1
 128              	.LVL10:
 129              	.L7:
 262:Generated_Source\PSoC4/CapSense_CSHL.c ****     {
 130              		.loc 1 262 0 is_stmt 0 discriminator 1
 131 000e 042C     		cmp	r4, #4
 132 0010 F9D9     		bls	.L8
 265:Generated_Source\PSoC4/CapSense_CSHL.c ****     }
ARM GAS  C:\Users\SHOZO\AppData\Local\Temp\ccsrjLaI.s 			page 8


 266:Generated_Source\PSoC4/CapSense_CSHL.c **** }
 133              		.loc 1 266 0 is_stmt 1
 134              		@ sp needed
 135              	.LVL11:
 136 0012 10BD     		pop	{r4, pc}
 137              		.cfi_endproc
 138              	.LFE34:
 139              		.size	CapSense_InitializeAllBaselines, .-CapSense_InitializeAllBaselines
 140              		.section	.text.CapSense_InitializeEnabledBaselines,"ax",%progbits
 141              		.align	2
 142              		.global	CapSense_InitializeEnabledBaselines
 143              		.code	16
 144              		.thumb_func
 145              		.type	CapSense_InitializeEnabledBaselines, %function
 146              	CapSense_InitializeEnabledBaselines:
 147              	.LFB35:
 267:Generated_Source\PSoC4/CapSense_CSHL.c **** 
 268:Generated_Source\PSoC4/CapSense_CSHL.c **** 
 269:Generated_Source\PSoC4/CapSense_CSHL.c **** /*******************************************************************************
 270:Generated_Source\PSoC4/CapSense_CSHL.c **** * Function Name: CapSense_InitializeEnabledBaselines
 271:Generated_Source\PSoC4/CapSense_CSHL.c **** ********************************************************************************
 272:Generated_Source\PSoC4/CapSense_CSHL.c **** *
 273:Generated_Source\PSoC4/CapSense_CSHL.c **** * Summary:
 274:Generated_Source\PSoC4/CapSense_CSHL.c **** *  Scans all the enabled widgets and the raw count values are copied into the
 275:Generated_Source\PSoC4/CapSense_CSHL.c **** *  baseline array for all the sensors enabled in the scanning process. The baselines
 276:Generated_Source\PSoC4/CapSense_CSHL.c **** *  are initialized with zero values for sensors disabled from the scanning process.
 277:Generated_Source\PSoC4/CapSense_CSHL.c **** *  The raw data filters are initialized if enabled.
 278:Generated_Source\PSoC4/CapSense_CSHL.c **** *
 279:Generated_Source\PSoC4/CapSense_CSHL.c **** * Parameters:
 280:Generated_Source\PSoC4/CapSense_CSHL.c **** *  None
 281:Generated_Source\PSoC4/CapSense_CSHL.c **** *
 282:Generated_Source\PSoC4/CapSense_CSHL.c **** * Return:
 283:Generated_Source\PSoC4/CapSense_CSHL.c **** *  None
 284:Generated_Source\PSoC4/CapSense_CSHL.c **** *
 285:Generated_Source\PSoC4/CapSense_CSHL.c **** * Global Variables:
 286:Generated_Source\PSoC4/CapSense_CSHL.c **** *  CapSense_sensorRaw[] - used to store the sensors raw data.
 287:Generated_Source\PSoC4/CapSense_CSHL.c **** *  CapSense_sensorEnableMask[ ] - used to store bit masks of the enabled sensors.
 288:Generated_Source\PSoC4/CapSense_CSHL.c **** *
 289:Generated_Source\PSoC4/CapSense_CSHL.c **** * Side Effects:
 290:Generated_Source\PSoC4/CapSense_CSHL.c **** *  None
 291:Generated_Source\PSoC4/CapSense_CSHL.c **** *
 292:Generated_Source\PSoC4/CapSense_CSHL.c **** *******************************************************************************/
 293:Generated_Source\PSoC4/CapSense_CSHL.c **** void CapSense_InitializeEnabledBaselines(void)
 294:Generated_Source\PSoC4/CapSense_CSHL.c **** {
 148              		.loc 1 294 0
 149              		.cfi_startproc
 150              		@ args = 0, pretend = 0, frame = 0
 151              		@ frame_needed = 0, uses_anonymous_args = 0
 152 0000 10B5     		push	{r4, lr}
 153              		.cfi_def_cfa_offset 8
 154              		.cfi_offset 4, -8
 155              		.cfi_offset 14, -4
 295:Generated_Source\PSoC4/CapSense_CSHL.c ****     uint32 i;
 296:Generated_Source\PSoC4/CapSense_CSHL.c ****     uint32 isSensorEnabled;
 297:Generated_Source\PSoC4/CapSense_CSHL.c **** 
 298:Generated_Source\PSoC4/CapSense_CSHL.c ****     CapSense_ScanEnabledWidgets();
 156              		.loc 1 298 0
ARM GAS  C:\Users\SHOZO\AppData\Local\Temp\ccsrjLaI.s 			page 9


 157 0002 FFF7FEFF 		bl	CapSense_ScanEnabledWidgets
 158              	.LVL12:
 159              	.L10:
 299:Generated_Source\PSoC4/CapSense_CSHL.c ****     while(CapSense_IsBusy() != 0u)
 160              		.loc 1 299 0 discriminator 1
 161 0006 FFF7FEFF 		bl	CapSense_IsBusy
 162              	.LVL13:
 163 000a 0028     		cmp	r0, #0
 164 000c FBD1     		bne	.L10
 165 000e 0024     		movs	r4, #0
 166 0010 09E0     		b	.L11
 167              	.LVL14:
 168              	.L13:
 300:Generated_Source\PSoC4/CapSense_CSHL.c ****     {
 301:Generated_Source\PSoC4/CapSense_CSHL.c ****         /* Wait while sensor is busy */
 302:Generated_Source\PSoC4/CapSense_CSHL.c ****     }
 303:Generated_Source\PSoC4/CapSense_CSHL.c **** 
 304:Generated_Source\PSoC4/CapSense_CSHL.c ****     for(i = 0u; i < CapSense_TOTAL_SENSOR_COUNT; i++)
 305:Generated_Source\PSoC4/CapSense_CSHL.c ****     {
 306:Generated_Source\PSoC4/CapSense_CSHL.c ****         isSensorEnabled = CapSense_GetBitValue(CapSense_sensorEnableMask, i);
 169              		.loc 1 306 0
 170 0012 2100     		movs	r1, r4
 171 0014 0548     		ldr	r0, .L14
 172 0016 FFF7FEFF 		bl	CapSense_GetBitValue
 173              	.LVL15:
 307:Generated_Source\PSoC4/CapSense_CSHL.c **** 
 308:Generated_Source\PSoC4/CapSense_CSHL.c ****         /* Clear raw data if sensor is disabled from scanning process */
 309:Generated_Source\PSoC4/CapSense_CSHL.c ****         if(isSensorEnabled != 0u)
 174              		.loc 1 309 0
 175 001a 0028     		cmp	r0, #0
 176 001c 02D0     		beq	.L12
 310:Generated_Source\PSoC4/CapSense_CSHL.c ****         {
 311:Generated_Source\PSoC4/CapSense_CSHL.c ****             /* Initialize baselines */
 312:Generated_Source\PSoC4/CapSense_CSHL.c ****             CapSense_BaseInit(i);
 177              		.loc 1 312 0
 178 001e 2000     		movs	r0, r4
 179              	.LVL16:
 180 0020 FFF7FEFF 		bl	CapSense_BaseInit
 181              	.LVL17:
 182              	.L12:
 304:Generated_Source\PSoC4/CapSense_CSHL.c ****     {
 183              		.loc 1 304 0 discriminator 2
 184 0024 0134     		adds	r4, r4, #1
 185              	.LVL18:
 186              	.L11:
 304:Generated_Source\PSoC4/CapSense_CSHL.c ****     {
 187              		.loc 1 304 0 is_stmt 0 discriminator 1
 188 0026 042C     		cmp	r4, #4
 189 0028 F3D9     		bls	.L13
 313:Generated_Source\PSoC4/CapSense_CSHL.c ****         }
 314:Generated_Source\PSoC4/CapSense_CSHL.c ****     }
 315:Generated_Source\PSoC4/CapSense_CSHL.c **** }
 190              		.loc 1 315 0 is_stmt 1
 191              		@ sp needed
 192              	.LVL19:
 193 002a 10BD     		pop	{r4, pc}
 194              	.L15:
ARM GAS  C:\Users\SHOZO\AppData\Local\Temp\ccsrjLaI.s 			page 10


 195              		.align	2
 196              	.L14:
 197 002c 00000000 		.word	CapSense_sensorEnableMask
 198              		.cfi_endproc
 199              	.LFE35:
 200              		.size	CapSense_InitializeEnabledBaselines, .-CapSense_InitializeEnabledBaselines
 201              		.section	.text.CapSense_GetBaselineData,"ax",%progbits
 202              		.align	2
 203              		.global	CapSense_GetBaselineData
 204              		.code	16
 205              		.thumb_func
 206              		.type	CapSense_GetBaselineData, %function
 207              	CapSense_GetBaselineData:
 208              	.LFB40:
 316:Generated_Source\PSoC4/CapSense_CSHL.c **** 
 317:Generated_Source\PSoC4/CapSense_CSHL.c **** 
 318:Generated_Source\PSoC4/CapSense_CSHL.c **** /*******************************************************************************
 319:Generated_Source\PSoC4/CapSense_CSHL.c **** * Function Name: CapSense_UpdateBaselineNoThreshold
 320:Generated_Source\PSoC4/CapSense_CSHL.c **** ********************************************************************************
 321:Generated_Source\PSoC4/CapSense_CSHL.c **** *
 322:Generated_Source\PSoC4/CapSense_CSHL.c **** * Summary:
 323:Generated_Source\PSoC4/CapSense_CSHL.c **** *  Updates the CapSense_sensorBaseline[sensor] array element using the
 324:Generated_Source\PSoC4/CapSense_CSHL.c **** *  LP filter with k = 256. The signal calculates the difference of count by
 325:Generated_Source\PSoC4/CapSense_CSHL.c **** *  subtracting the previous baseline from the current raw count value and stores
 326:Generated_Source\PSoC4/CapSense_CSHL.c **** *  it in CapSense_sensorSignal[sensor].
 327:Generated_Source\PSoC4/CapSense_CSHL.c **** *  If the auto reset option is enabled, the baseline updated regards the noise threshold.
 328:Generated_Source\PSoC4/CapSense_CSHL.c **** *  If the auto reset option is disabled, the baseline stops updating; baseline is loaded
 329:Generated_Source\PSoC4/CapSense_CSHL.c **** *  with a raw count value if a signal is greater than zero and if signal is less
 330:Generated_Source\PSoC4/CapSense_CSHL.c **** *  than noise threshold.
 331:Generated_Source\PSoC4/CapSense_CSHL.c **** *  Raw data filters are applied to the values if enabled before baseline
 332:Generated_Source\PSoC4/CapSense_CSHL.c **** *  calculation.
 333:Generated_Source\PSoC4/CapSense_CSHL.c **** *
 334:Generated_Source\PSoC4/CapSense_CSHL.c **** *  This API does not update the thresholds in the Smartsense Mode.
 335:Generated_Source\PSoC4/CapSense_CSHL.c **** *
 336:Generated_Source\PSoC4/CapSense_CSHL.c **** * Parameters:
 337:Generated_Source\PSoC4/CapSense_CSHL.c **** *  sensor:  Sensor number.
 338:Generated_Source\PSoC4/CapSense_CSHL.c **** *
 339:Generated_Source\PSoC4/CapSense_CSHL.c **** * Return:
 340:Generated_Source\PSoC4/CapSense_CSHL.c **** *  None
 341:Generated_Source\PSoC4/CapSense_CSHL.c **** *
 342:Generated_Source\PSoC4/CapSense_CSHL.c **** * Global Variables:
 343:Generated_Source\PSoC4/CapSense_CSHL.c **** *  CapSense_widgetNumber[]  - stores widget numbers.
 344:Generated_Source\PSoC4/CapSense_CSHL.c **** *  CapSense_sensorBaseline[]    - used to store baseline value.
 345:Generated_Source\PSoC4/CapSense_CSHL.c **** *  CapSense_sensorBaselineLow[] - used to store fraction byte of
 346:Generated_Source\PSoC4/CapSense_CSHL.c **** *  baseline value.
 347:Generated_Source\PSoC4/CapSense_CSHL.c **** *  CapSense_sensorSignal[]      - used to store difference between
 348:Generated_Source\PSoC4/CapSense_CSHL.c **** *  current value of raw data and previous value of baseline.
 349:Generated_Source\PSoC4/CapSense_CSHL.c **** *  CapSense_rawFilterData1[]    - used to store previous sample of
 350:Generated_Source\PSoC4/CapSense_CSHL.c **** *  any enabled raw data filter.
 351:Generated_Source\PSoC4/CapSense_CSHL.c **** *  CapSense_rawFilterData2[]    - used to store before previous sample
 352:Generated_Source\PSoC4/CapSense_CSHL.c **** *  of enabled raw data filter. Only required for median or average filters.
 353:Generated_Source\PSoC4/CapSense_CSHL.c **** *
 354:Generated_Source\PSoC4/CapSense_CSHL.c **** * Side Effects:
 355:Generated_Source\PSoC4/CapSense_CSHL.c **** *  None
 356:Generated_Source\PSoC4/CapSense_CSHL.c **** *
 357:Generated_Source\PSoC4/CapSense_CSHL.c **** *******************************************************************************/
 358:Generated_Source\PSoC4/CapSense_CSHL.c **** void CapSense_UpdateBaselineNoThreshold(uint32 sensor)
ARM GAS  C:\Users\SHOZO\AppData\Local\Temp\ccsrjLaI.s 			page 11


 359:Generated_Source\PSoC4/CapSense_CSHL.c **** {
 360:Generated_Source\PSoC4/CapSense_CSHL.c ****     uint32 calc;
 361:Generated_Source\PSoC4/CapSense_CSHL.c ****     uint32 sign;
 362:Generated_Source\PSoC4/CapSense_CSHL.c ****     uint16 tempRaw;
 363:Generated_Source\PSoC4/CapSense_CSHL.c ****     uint16 filteredRawData;
 364:Generated_Source\PSoC4/CapSense_CSHL.c ****     uint8 widget = CapSense_widgetNumber[sensor];
 365:Generated_Source\PSoC4/CapSense_CSHL.c ****     uint8 noiseThreshold;
 366:Generated_Source\PSoC4/CapSense_CSHL.c **** 
 367:Generated_Source\PSoC4/CapSense_CSHL.c ****     #if (CapSense_TOTAL_GENERICS_COUNT)
 368:Generated_Source\PSoC4/CapSense_CSHL.c ****         /* Exclude generic widget */
 369:Generated_Source\PSoC4/CapSense_CSHL.c ****         if(widget < CapSense_END_OF_WIDGETS_INDEX)
 370:Generated_Source\PSoC4/CapSense_CSHL.c ****         {
 371:Generated_Source\PSoC4/CapSense_CSHL.c ****     #endif  /* CapSense_TOTAL_GENERICS_COUNT */
 372:Generated_Source\PSoC4/CapSense_CSHL.c **** 
 373:Generated_Source\PSoC4/CapSense_CSHL.c ****     noiseThreshold = CapSense_noiseThreshold[widget];
 374:Generated_Source\PSoC4/CapSense_CSHL.c ****     filteredRawData = CapSense_sensorRaw[sensor];
 375:Generated_Source\PSoC4/CapSense_CSHL.c **** 
 376:Generated_Source\PSoC4/CapSense_CSHL.c ****     #if (CapSense_RAW_FILTER_MASK != 0u)
 377:Generated_Source\PSoC4/CapSense_CSHL.c ****     if(CapSense_enableRawFilters != 0u)
 378:Generated_Source\PSoC4/CapSense_CSHL.c ****     {
 379:Generated_Source\PSoC4/CapSense_CSHL.c ****         #if (CapSense_RAW_FILTER_MASK & CapSense_MEDIAN_FILTER)
 380:Generated_Source\PSoC4/CapSense_CSHL.c ****             tempRaw = filteredRawData;
 381:Generated_Source\PSoC4/CapSense_CSHL.c ****             filteredRawData = CapSense_MedianFilter(filteredRawData, CapSense_rawFilterData1[sensor
 382:Generated_Source\PSoC4/CapSense_CSHL.c ****                                                             CapSense_rawFilterData2[sensor]);
 383:Generated_Source\PSoC4/CapSense_CSHL.c ****             CapSense_rawFilterData2[sensor] = CapSense_rawFilterData1[sensor];
 384:Generated_Source\PSoC4/CapSense_CSHL.c ****             CapSense_rawFilterData1[sensor] = tempRaw;
 385:Generated_Source\PSoC4/CapSense_CSHL.c **** 
 386:Generated_Source\PSoC4/CapSense_CSHL.c ****         #elif (CapSense_RAW_FILTER_MASK & CapSense_AVERAGING_FILTER)
 387:Generated_Source\PSoC4/CapSense_CSHL.c ****             tempRaw = filteredRawData;
 388:Generated_Source\PSoC4/CapSense_CSHL.c ****             filteredRawData = CapSense_AveragingFilter(filteredRawData, CapSense_rawFilterData1[sen
 389:Generated_Source\PSoC4/CapSense_CSHL.c ****                                                                CapSense_rawFilterData2[sensor]);
 390:Generated_Source\PSoC4/CapSense_CSHL.c ****             CapSense_rawFilterData2[sensor] = CapSense_rawFilterData1[sensor];
 391:Generated_Source\PSoC4/CapSense_CSHL.c ****             CapSense_rawFilterData1[sensor] = tempRaw;
 392:Generated_Source\PSoC4/CapSense_CSHL.c **** 
 393:Generated_Source\PSoC4/CapSense_CSHL.c ****         #elif (CapSense_RAW_FILTER_MASK & CapSense_IIR2_FILTER)
 394:Generated_Source\PSoC4/CapSense_CSHL.c ****             filteredRawData = CapSense_IIR2Filter(filteredRawData, CapSense_rawFilterData1[sensor])
 395:Generated_Source\PSoC4/CapSense_CSHL.c ****             CapSense_rawFilterData1[sensor] = filteredRawData;
 396:Generated_Source\PSoC4/CapSense_CSHL.c **** 
 397:Generated_Source\PSoC4/CapSense_CSHL.c ****         #elif (CapSense_RAW_FILTER_MASK & CapSense_IIR4_FILTER)
 398:Generated_Source\PSoC4/CapSense_CSHL.c ****             filteredRawData = CapSense_IIR4Filter(filteredRawData, CapSense_rawFilterData1[sensor])
 399:Generated_Source\PSoC4/CapSense_CSHL.c ****             CapSense_rawFilterData1[sensor] = filteredRawData;
 400:Generated_Source\PSoC4/CapSense_CSHL.c **** 
 401:Generated_Source\PSoC4/CapSense_CSHL.c ****         #elif (CapSense_RAW_FILTER_MASK & CapSense_JITTER_FILTER)
 402:Generated_Source\PSoC4/CapSense_CSHL.c ****             filteredRawData = CapSense_JitterFilter(filteredRawData, CapSense_rawFilterData1[sensor
 403:Generated_Source\PSoC4/CapSense_CSHL.c ****             CapSense_rawFilterData1[sensor] = filteredRawData;
 404:Generated_Source\PSoC4/CapSense_CSHL.c **** 
 405:Generated_Source\PSoC4/CapSense_CSHL.c ****         #elif (CapSense_RAW_FILTER_MASK & CapSense_IIR8_FILTER)
 406:Generated_Source\PSoC4/CapSense_CSHL.c ****             filteredRawData = CapSense_IIR8Filter(filteredRawData, CapSense_rawFilterData1[sensor])
 407:Generated_Source\PSoC4/CapSense_CSHL.c ****             CapSense_rawFilterData1[sensor] = filteredRawData;
 408:Generated_Source\PSoC4/CapSense_CSHL.c **** 
 409:Generated_Source\PSoC4/CapSense_CSHL.c ****         #elif (CapSense_RAW_FILTER_MASK & CapSense_IIR16_FILTER)
 410:Generated_Source\PSoC4/CapSense_CSHL.c ****             filteredRawData = CapSense_IIR16Filter(filteredRawData, CapSense_rawFilterData1[sensor]
 411:Generated_Source\PSoC4/CapSense_CSHL.c ****             CapSense_rawFilterData1[sensor] = filteredRawData;
 412:Generated_Source\PSoC4/CapSense_CSHL.c **** 
 413:Generated_Source\PSoC4/CapSense_CSHL.c ****         #else
 414:Generated_Source\PSoC4/CapSense_CSHL.c ****             /* No Raw filters */
 415:Generated_Source\PSoC4/CapSense_CSHL.c ****         #endif  /* (CapSense_RAW_FILTER_MASK & CapSense_MEDIAN_FILTER) */
ARM GAS  C:\Users\SHOZO\AppData\Local\Temp\ccsrjLaI.s 			page 12


 416:Generated_Source\PSoC4/CapSense_CSHL.c ****     }
 417:Generated_Source\PSoC4/CapSense_CSHL.c ****     #endif  /* (CapSense_RAW_FILTER_MASK != 0u) */
 418:Generated_Source\PSoC4/CapSense_CSHL.c **** 
 419:Generated_Source\PSoC4/CapSense_CSHL.c ****     #if (CapSense_TUNING_METHOD == CapSense__TUNING_AUTO)
 420:Generated_Source\PSoC4/CapSense_CSHL.c ****         MeasureNoiseEnvelope_P4_v2_60(&CapSense_config, (uint8)sensor, CapSense_sensorRaw);
 421:Generated_Source\PSoC4/CapSense_CSHL.c ****     #endif /* (CapSense_TUNING_METHOD == CapSense__TUNING_AUTO) */
 422:Generated_Source\PSoC4/CapSense_CSHL.c **** 
 423:Generated_Source\PSoC4/CapSense_CSHL.c ****     /* Baseline calculation */
 424:Generated_Source\PSoC4/CapSense_CSHL.c ****     /* Calculate difference RawData[cur] - Baseline[prev] */
 425:Generated_Source\PSoC4/CapSense_CSHL.c ****     if(filteredRawData >= CapSense_sensorBaseline[sensor])
 426:Generated_Source\PSoC4/CapSense_CSHL.c ****     {
 427:Generated_Source\PSoC4/CapSense_CSHL.c ****         CapSense_lowBaselineResetCnt[sensor] = 0u;
 428:Generated_Source\PSoC4/CapSense_CSHL.c ****         tempRaw = filteredRawData - CapSense_sensorBaseline[sensor];
 429:Generated_Source\PSoC4/CapSense_CSHL.c ****         sign = 1u;    /* Positive difference - Calculate the Signal */
 430:Generated_Source\PSoC4/CapSense_CSHL.c ****     }
 431:Generated_Source\PSoC4/CapSense_CSHL.c ****     else
 432:Generated_Source\PSoC4/CapSense_CSHL.c ****     {
 433:Generated_Source\PSoC4/CapSense_CSHL.c ****         tempRaw = CapSense_sensorBaseline[sensor] - filteredRawData;
 434:Generated_Source\PSoC4/CapSense_CSHL.c ****         sign = 0u;    /* Negative difference - Do NOT calculate the Signal */
 435:Generated_Source\PSoC4/CapSense_CSHL.c ****     }
 436:Generated_Source\PSoC4/CapSense_CSHL.c **** 
 437:Generated_Source\PSoC4/CapSense_CSHL.c ****     #if (CapSense_TUNING_METHOD != CapSense__TUNING_NONE)
 438:Generated_Source\PSoC4/CapSense_CSHL.c ****     if((sign == 0u) && (tempRaw > (uint16) CapSense_negativeNoiseThreshold[widget]))
 439:Generated_Source\PSoC4/CapSense_CSHL.c ****     #else
 440:Generated_Source\PSoC4/CapSense_CSHL.c ****     if((sign == 0u) && (tempRaw > (uint16) CapSense_NEGATIVE_NOISE_THRESHOLD))
 441:Generated_Source\PSoC4/CapSense_CSHL.c ****     #endif /* (CapSense_TUNING_METHOD != CapSense__TUNING_NONE) */
 442:Generated_Source\PSoC4/CapSense_CSHL.c ****     {
 443:Generated_Source\PSoC4/CapSense_CSHL.c ****         if(CapSense_lowBaselineResetCnt[sensor] >= CapSense_lowBaselineReset[sensor])
 444:Generated_Source\PSoC4/CapSense_CSHL.c ****         {
 445:Generated_Source\PSoC4/CapSense_CSHL.c ****             CapSense_BaseInit(sensor);
 446:Generated_Source\PSoC4/CapSense_CSHL.c ****             CapSense_lowBaselineResetCnt[sensor] = 0u;
 447:Generated_Source\PSoC4/CapSense_CSHL.c ****         }
 448:Generated_Source\PSoC4/CapSense_CSHL.c ****         else
 449:Generated_Source\PSoC4/CapSense_CSHL.c ****         {
 450:Generated_Source\PSoC4/CapSense_CSHL.c ****             CapSense_lowBaselineResetCnt[sensor]++;
 451:Generated_Source\PSoC4/CapSense_CSHL.c ****         }
 452:Generated_Source\PSoC4/CapSense_CSHL.c ****     }
 453:Generated_Source\PSoC4/CapSense_CSHL.c ****     else
 454:Generated_Source\PSoC4/CapSense_CSHL.c ****     {
 455:Generated_Source\PSoC4/CapSense_CSHL.c ****         #if (CapSense_AUTO_RESET == CapSense_AUTO_RESET_DISABLE)
 456:Generated_Source\PSoC4/CapSense_CSHL.c ****         #if (CapSense_TUNING_METHOD != CapSense__TUNING_NONE)
 457:Generated_Source\PSoC4/CapSense_CSHL.c ****             /* Update Baseline if lower than noiseThreshold */
 458:Generated_Source\PSoC4/CapSense_CSHL.c ****             if ( (tempRaw <= noiseThreshold) ||
 459:Generated_Source\PSoC4/CapSense_CSHL.c ****              ((tempRaw < (uint16) CapSense_negativeNoiseThreshold[widget])
 460:Generated_Source\PSoC4/CapSense_CSHL.c ****                && (sign == 0u)))
 461:Generated_Source\PSoC4/CapSense_CSHL.c ****             {
 462:Generated_Source\PSoC4/CapSense_CSHL.c ****         #else
 463:Generated_Source\PSoC4/CapSense_CSHL.c ****             /* Update Baseline if lower than noiseThreshold */
 464:Generated_Source\PSoC4/CapSense_CSHL.c ****             if ( (tempRaw <= noiseThreshold) ||
 465:Generated_Source\PSoC4/CapSense_CSHL.c ****                  ((tempRaw < (uint16) CapSense_NEGATIVE_NOISE_THRESHOLD)
 466:Generated_Source\PSoC4/CapSense_CSHL.c ****                    && (sign == 0u)))
 467:Generated_Source\PSoC4/CapSense_CSHL.c ****             {
 468:Generated_Source\PSoC4/CapSense_CSHL.c ****         #endif /* (CapSense_TUNING_METHOD != CapSense__TUNING_NONE) */
 469:Generated_Source\PSoC4/CapSense_CSHL.c ****         #endif /* (CapSense_AUTO_RESET == CapSense_AUTO_RESET_DISABLE) */
 470:Generated_Source\PSoC4/CapSense_CSHL.c ****                 /* Make full Baseline 23 bits */
 471:Generated_Source\PSoC4/CapSense_CSHL.c ****                 calc = (uint32) CapSense_sensorBaseline[sensor] << 8u;
 472:Generated_Source\PSoC4/CapSense_CSHL.c ****                 calc |= (uint32) CapSense_sensorBaselineLow[sensor];
ARM GAS  C:\Users\SHOZO\AppData\Local\Temp\ccsrjLaI.s 			page 13


 473:Generated_Source\PSoC4/CapSense_CSHL.c **** 
 474:Generated_Source\PSoC4/CapSense_CSHL.c ****                 /* Add Raw Data to Baseline */
 475:Generated_Source\PSoC4/CapSense_CSHL.c ****                 calc += filteredRawData;
 476:Generated_Source\PSoC4/CapSense_CSHL.c **** 
 477:Generated_Source\PSoC4/CapSense_CSHL.c ****                 /* Sub the high Baseline */
 478:Generated_Source\PSoC4/CapSense_CSHL.c ****                 calc -= CapSense_sensorBaseline[sensor];
 479:Generated_Source\PSoC4/CapSense_CSHL.c **** 
 480:Generated_Source\PSoC4/CapSense_CSHL.c ****                 /* Put Baseline and BaselineLow */
 481:Generated_Source\PSoC4/CapSense_CSHL.c ****                 CapSense_sensorBaseline[sensor] = ((uint16) (calc >> 8u));
 482:Generated_Source\PSoC4/CapSense_CSHL.c ****                 CapSense_sensorBaselineLow[sensor] = ((uint8) calc);
 483:Generated_Source\PSoC4/CapSense_CSHL.c **** 
 484:Generated_Source\PSoC4/CapSense_CSHL.c ****                 CapSense_lowBaselineResetCnt[sensor] = 0u;
 485:Generated_Source\PSoC4/CapSense_CSHL.c ****         #if (CapSense_AUTO_RESET == CapSense_AUTO_RESET_DISABLE)
 486:Generated_Source\PSoC4/CapSense_CSHL.c ****             }
 487:Generated_Source\PSoC4/CapSense_CSHL.c ****         #endif /* (CapSense_AUTO_RESET == CapSense_AUTO_RESET_DISABLE) */
 488:Generated_Source\PSoC4/CapSense_CSHL.c ****     }
 489:Generated_Source\PSoC4/CapSense_CSHL.c **** 
 490:Generated_Source\PSoC4/CapSense_CSHL.c ****     /* Calculate Signal if positive difference > noiseThreshold */
 491:Generated_Source\PSoC4/CapSense_CSHL.c ****     if((tempRaw > (uint16) noiseThreshold) && (sign != 0u))
 492:Generated_Source\PSoC4/CapSense_CSHL.c ****     {
 493:Generated_Source\PSoC4/CapSense_CSHL.c ****         #if (CapSense_SIGNAL_SIZE == CapSense_SIGNAL_SIZE_UINT8)
 494:Generated_Source\PSoC4/CapSense_CSHL.c ****             /* Over flow defence for uint8 */
 495:Generated_Source\PSoC4/CapSense_CSHL.c ****             if (tempRaw > 0xFFu)
 496:Generated_Source\PSoC4/CapSense_CSHL.c ****             {
 497:Generated_Source\PSoC4/CapSense_CSHL.c ****                 CapSense_sensorSignal[sensor] = 0xFFu;
 498:Generated_Source\PSoC4/CapSense_CSHL.c ****             }
 499:Generated_Source\PSoC4/CapSense_CSHL.c ****             else
 500:Generated_Source\PSoC4/CapSense_CSHL.c ****             {
 501:Generated_Source\PSoC4/CapSense_CSHL.c ****                 CapSense_sensorSignal[sensor] = ((uint8) tempRaw);
 502:Generated_Source\PSoC4/CapSense_CSHL.c ****             }
 503:Generated_Source\PSoC4/CapSense_CSHL.c ****         #else
 504:Generated_Source\PSoC4/CapSense_CSHL.c ****             CapSense_sensorSignal[sensor] = ((uint16) tempRaw);
 505:Generated_Source\PSoC4/CapSense_CSHL.c ****         #endif  /* (CapSense_SIGNAL_SIZE == CapSense_SIGNAL_SIZE_UINT8) */
 506:Generated_Source\PSoC4/CapSense_CSHL.c ****     }
 507:Generated_Source\PSoC4/CapSense_CSHL.c ****     else
 508:Generated_Source\PSoC4/CapSense_CSHL.c ****     {
 509:Generated_Source\PSoC4/CapSense_CSHL.c ****         /* Signal is zero */
 510:Generated_Source\PSoC4/CapSense_CSHL.c ****         CapSense_sensorSignal[sensor] = 0u;
 511:Generated_Source\PSoC4/CapSense_CSHL.c ****     }
 512:Generated_Source\PSoC4/CapSense_CSHL.c **** 
 513:Generated_Source\PSoC4/CapSense_CSHL.c ****     #if (CapSense_TOTAL_GENERICS_COUNT)
 514:Generated_Source\PSoC4/CapSense_CSHL.c ****         /* Exclude generic widget */
 515:Generated_Source\PSoC4/CapSense_CSHL.c ****         }
 516:Generated_Source\PSoC4/CapSense_CSHL.c ****     #endif  /* CapSense_TOTAL_GENERICS_COUNT */
 517:Generated_Source\PSoC4/CapSense_CSHL.c **** }
 518:Generated_Source\PSoC4/CapSense_CSHL.c **** 
 519:Generated_Source\PSoC4/CapSense_CSHL.c **** 
 520:Generated_Source\PSoC4/CapSense_CSHL.c **** /*******************************************************************************
 521:Generated_Source\PSoC4/CapSense_CSHL.c **** * Function Name: CapSense_UpdateSensorBaseline
 522:Generated_Source\PSoC4/CapSense_CSHL.c **** ********************************************************************************
 523:Generated_Source\PSoC4/CapSense_CSHL.c **** *
 524:Generated_Source\PSoC4/CapSense_CSHL.c **** * Summary:
 525:Generated_Source\PSoC4/CapSense_CSHL.c **** *  Updates the CapSense_sensorBaseline[sensor] array element using the
 526:Generated_Source\PSoC4/CapSense_CSHL.c **** *  LP filter with k = 256. The signal calculates the difference of count by
 527:Generated_Source\PSoC4/CapSense_CSHL.c **** *  subtracting the previous baseline from the current raw count value and stores
 528:Generated_Source\PSoC4/CapSense_CSHL.c **** *  it in CapSense_sensorSignal[sensor].
 529:Generated_Source\PSoC4/CapSense_CSHL.c **** *  If the auto reset option is enabled, the baseline updated regards the noise threshold.
ARM GAS  C:\Users\SHOZO\AppData\Local\Temp\ccsrjLaI.s 			page 14


 530:Generated_Source\PSoC4/CapSense_CSHL.c **** *  If the auto reset option is disabled, the baseline stops updating.
 531:Generated_Source\PSoC4/CapSense_CSHL.c **** *  Baseline is loaded with raw count value if a signal is greater than zero and
 532:Generated_Source\PSoC4/CapSense_CSHL.c **** *  if signal is less than noise threshold.
 533:Generated_Source\PSoC4/CapSense_CSHL.c **** *  Raw data filters are applied to the values if enabled before baseline
 534:Generated_Source\PSoC4/CapSense_CSHL.c **** *  calculation.
 535:Generated_Source\PSoC4/CapSense_CSHL.c **** *  This API updates the thresholds in the Smartsense Mode.
 536:Generated_Source\PSoC4/CapSense_CSHL.c **** *
 537:Generated_Source\PSoC4/CapSense_CSHL.c **** * Parameters:
 538:Generated_Source\PSoC4/CapSense_CSHL.c **** *  sensor:  Sensor number.
 539:Generated_Source\PSoC4/CapSense_CSHL.c **** *
 540:Generated_Source\PSoC4/CapSense_CSHL.c **** * Return:
 541:Generated_Source\PSoC4/CapSense_CSHL.c **** *  None
 542:Generated_Source\PSoC4/CapSense_CSHL.c **** *
 543:Generated_Source\PSoC4/CapSense_CSHL.c **** * Global Variables:
 544:Generated_Source\PSoC4/CapSense_CSHL.c **** *  CapSense_widgetNumber[]  - stores widget numbers.
 545:Generated_Source\PSoC4/CapSense_CSHL.c **** *
 546:Generated_Source\PSoC4/CapSense_CSHL.c **** * Side Effects:
 547:Generated_Source\PSoC4/CapSense_CSHL.c **** *  None
 548:Generated_Source\PSoC4/CapSense_CSHL.c **** *
 549:Generated_Source\PSoC4/CapSense_CSHL.c **** *******************************************************************************/
 550:Generated_Source\PSoC4/CapSense_CSHL.c ****  void CapSense_UpdateSensorBaseline(uint32 sensor)
 551:Generated_Source\PSoC4/CapSense_CSHL.c **** {
 552:Generated_Source\PSoC4/CapSense_CSHL.c ****     #if (CapSense_TOTAL_GENERICS_COUNT)
 553:Generated_Source\PSoC4/CapSense_CSHL.c ****         uint32 widget;
 554:Generated_Source\PSoC4/CapSense_CSHL.c **** 
 555:Generated_Source\PSoC4/CapSense_CSHL.c ****         widget = CapSense_widgetNumber[sensor];
 556:Generated_Source\PSoC4/CapSense_CSHL.c **** 
 557:Generated_Source\PSoC4/CapSense_CSHL.c ****         /* Exclude generic widget */
 558:Generated_Source\PSoC4/CapSense_CSHL.c ****         if(widget < CapSense_END_OF_WIDGETS_INDEX)
 559:Generated_Source\PSoC4/CapSense_CSHL.c ****         {
 560:Generated_Source\PSoC4/CapSense_CSHL.c ****     #endif  /* CapSense_TOTAL_GENERICS_COUNT */
 561:Generated_Source\PSoC4/CapSense_CSHL.c **** 
 562:Generated_Source\PSoC4/CapSense_CSHL.c ****     #if (CapSense_TUNING_METHOD == CapSense__TUNING_AUTO)
 563:Generated_Source\PSoC4/CapSense_CSHL.c ****         CapSense_UpdateThresholds(sensor);
 564:Generated_Source\PSoC4/CapSense_CSHL.c ****     #endif /* (CapSense_TUNING_METHOD == CapSense__TUNING_AUTO) */
 565:Generated_Source\PSoC4/CapSense_CSHL.c **** 
 566:Generated_Source\PSoC4/CapSense_CSHL.c ****     CapSense_UpdateBaselineNoThreshold(sensor);
 567:Generated_Source\PSoC4/CapSense_CSHL.c **** 
 568:Generated_Source\PSoC4/CapSense_CSHL.c ****     #if (CapSense_TOTAL_GENERICS_COUNT)
 569:Generated_Source\PSoC4/CapSense_CSHL.c ****         /* Exclude generic widget */
 570:Generated_Source\PSoC4/CapSense_CSHL.c ****         }
 571:Generated_Source\PSoC4/CapSense_CSHL.c ****     #endif  /* CapSense_TOTAL_GENERICS_COUNT */
 572:Generated_Source\PSoC4/CapSense_CSHL.c **** }
 573:Generated_Source\PSoC4/CapSense_CSHL.c **** 
 574:Generated_Source\PSoC4/CapSense_CSHL.c **** 
 575:Generated_Source\PSoC4/CapSense_CSHL.c **** /*******************************************************************************
 576:Generated_Source\PSoC4/CapSense_CSHL.c **** * Function Name: CapSense_UpdateEnabledBaselines
 577:Generated_Source\PSoC4/CapSense_CSHL.c **** ********************************************************************************
 578:Generated_Source\PSoC4/CapSense_CSHL.c **** *
 579:Generated_Source\PSoC4/CapSense_CSHL.c **** * Summary:
 580:Generated_Source\PSoC4/CapSense_CSHL.c **** *  Checks CapSense_sensorEnableMask[] array and calls the
 581:Generated_Source\PSoC4/CapSense_CSHL.c **** *  CapSense_UpdateSensorBaseline function to update the baselines
 582:Generated_Source\PSoC4/CapSense_CSHL.c **** *  for the enabled sensors.
 583:Generated_Source\PSoC4/CapSense_CSHL.c **** *
 584:Generated_Source\PSoC4/CapSense_CSHL.c **** * Parameters:
 585:Generated_Source\PSoC4/CapSense_CSHL.c **** *  None
 586:Generated_Source\PSoC4/CapSense_CSHL.c **** *
ARM GAS  C:\Users\SHOZO\AppData\Local\Temp\ccsrjLaI.s 			page 15


 587:Generated_Source\PSoC4/CapSense_CSHL.c **** * Return:
 588:Generated_Source\PSoC4/CapSense_CSHL.c **** *  None
 589:Generated_Source\PSoC4/CapSense_CSHL.c **** *
 590:Generated_Source\PSoC4/CapSense_CSHL.c **** * Global Variables:
 591:Generated_Source\PSoC4/CapSense_CSHL.c **** *  CapSense_sensorEnableMask[] - used to store the sensor scanning
 592:Generated_Source\PSoC4/CapSense_CSHL.c **** *  state.
 593:Generated_Source\PSoC4/CapSense_CSHL.c **** *  CapSense_sensorEnableMask[0] contains the masked bits for sensors
 594:Generated_Source\PSoC4/CapSense_CSHL.c **** *   0 through 7 (sensor 0 is bit 0, sensor 1 is bit 1).
 595:Generated_Source\PSoC4/CapSense_CSHL.c **** *  CapSense_sensorEnableMask[1] contains the masked bits for
 596:Generated_Source\PSoC4/CapSense_CSHL.c **** *  sensors 8 through 15 (if needed), and so on.
 597:Generated_Source\PSoC4/CapSense_CSHL.c **** *  0 - sensor doesn't scan by CapSense_ScanEnabledWidgets().
 598:Generated_Source\PSoC4/CapSense_CSHL.c **** *  1 - sensor scans by CapSense_ScanEnabledWidgets().
 599:Generated_Source\PSoC4/CapSense_CSHL.c **** *
 600:Generated_Source\PSoC4/CapSense_CSHL.c **** * Side Effects:
 601:Generated_Source\PSoC4/CapSense_CSHL.c **** *  None
 602:Generated_Source\PSoC4/CapSense_CSHL.c **** *
 603:Generated_Source\PSoC4/CapSense_CSHL.c **** *******************************************************************************/
 604:Generated_Source\PSoC4/CapSense_CSHL.c ****  void CapSense_UpdateEnabledBaselines(void)
 605:Generated_Source\PSoC4/CapSense_CSHL.c **** {
 606:Generated_Source\PSoC4/CapSense_CSHL.c ****     uint32 i;
 607:Generated_Source\PSoC4/CapSense_CSHL.c ****     uint32 isSensorEnabled;
 608:Generated_Source\PSoC4/CapSense_CSHL.c **** 
 609:Generated_Source\PSoC4/CapSense_CSHL.c ****     for(i = 0u; i < CapSense_TOTAL_SENSOR_COUNT; i++)
 610:Generated_Source\PSoC4/CapSense_CSHL.c ****     {
 611:Generated_Source\PSoC4/CapSense_CSHL.c ****         isSensorEnabled = CapSense_GetBitValue(CapSense_sensorEnableMask, i);
 612:Generated_Source\PSoC4/CapSense_CSHL.c **** 
 613:Generated_Source\PSoC4/CapSense_CSHL.c ****         if(0u != isSensorEnabled)
 614:Generated_Source\PSoC4/CapSense_CSHL.c ****         {
 615:Generated_Source\PSoC4/CapSense_CSHL.c ****             CapSense_UpdateSensorBaseline(i);
 616:Generated_Source\PSoC4/CapSense_CSHL.c ****         }
 617:Generated_Source\PSoC4/CapSense_CSHL.c ****     }
 618:Generated_Source\PSoC4/CapSense_CSHL.c **** }
 619:Generated_Source\PSoC4/CapSense_CSHL.c **** 
 620:Generated_Source\PSoC4/CapSense_CSHL.c **** /*******************************************************************************
 621:Generated_Source\PSoC4/CapSense_CSHL.c **** * Function Name: CapSense_UpdateWidgetBaseline
 622:Generated_Source\PSoC4/CapSense_CSHL.c **** ********************************************************************************
 623:Generated_Source\PSoC4/CapSense_CSHL.c **** *
 624:Generated_Source\PSoC4/CapSense_CSHL.c **** * Summary:
 625:Generated_Source\PSoC4/CapSense_CSHL.c **** *  Checks CapSense_sensorEnableMask[] array and calls the
 626:Generated_Source\PSoC4/CapSense_CSHL.c **** *  CapSense_UpdateSensorBaseline function to update the baselines
 627:Generated_Source\PSoC4/CapSense_CSHL.c **** *  for the enabled sensors that belong to widget.
 628:Generated_Source\PSoC4/CapSense_CSHL.c **** *
 629:Generated_Source\PSoC4/CapSense_CSHL.c **** * Parameters:
 630:Generated_Source\PSoC4/CapSense_CSHL.c **** *  widget:  Widget number.
 631:Generated_Source\PSoC4/CapSense_CSHL.c **** *
 632:Generated_Source\PSoC4/CapSense_CSHL.c **** * Return:
 633:Generated_Source\PSoC4/CapSense_CSHL.c **** *  None
 634:Generated_Source\PSoC4/CapSense_CSHL.c **** *
 635:Generated_Source\PSoC4/CapSense_CSHL.c **** * Global Variables:
 636:Generated_Source\PSoC4/CapSense_CSHL.c **** *  CapSense_sensorEnableMask[] - used to store the sensor scanning
 637:Generated_Source\PSoC4/CapSense_CSHL.c **** *  state.
 638:Generated_Source\PSoC4/CapSense_CSHL.c **** *  CapSense_sensorEnableMask[0] contains the masked bits for sensors
 639:Generated_Source\PSoC4/CapSense_CSHL.c **** *   0 through 7 (sensor 0 is bit 0, sensor 1 is bit 1).
 640:Generated_Source\PSoC4/CapSense_CSHL.c **** *  CapSense_sensorEnableMask[1] contains the masked bits for
 641:Generated_Source\PSoC4/CapSense_CSHL.c **** *  sensors 8 through 15 (if needed), and so on.
 642:Generated_Source\PSoC4/CapSense_CSHL.c **** *  0 - sensor doesn't scan by CapSense_ScanEnabledWidgets().
 643:Generated_Source\PSoC4/CapSense_CSHL.c **** *  1 - sensor scans by CapSense_ScanEnabledWidgets().
ARM GAS  C:\Users\SHOZO\AppData\Local\Temp\ccsrjLaI.s 			page 16


 644:Generated_Source\PSoC4/CapSense_CSHL.c **** *
 645:Generated_Source\PSoC4/CapSense_CSHL.c **** * Side Effects:
 646:Generated_Source\PSoC4/CapSense_CSHL.c **** *  None
 647:Generated_Source\PSoC4/CapSense_CSHL.c **** *
 648:Generated_Source\PSoC4/CapSense_CSHL.c **** *******************************************************************************/
 649:Generated_Source\PSoC4/CapSense_CSHL.c **** void CapSense_UpdateWidgetBaseline(uint32 widget)
 650:Generated_Source\PSoC4/CapSense_CSHL.c **** {
 651:Generated_Source\PSoC4/CapSense_CSHL.c ****     uint32 sensorsPerWidget;
 652:Generated_Source\PSoC4/CapSense_CSHL.c ****     uint32 firstSensor;
 653:Generated_Source\PSoC4/CapSense_CSHL.c ****     uint32 lastSensor;
 654:Generated_Source\PSoC4/CapSense_CSHL.c ****     uint32 i;
 655:Generated_Source\PSoC4/CapSense_CSHL.c ****     uint32 isSensorEnabled;
 656:Generated_Source\PSoC4/CapSense_CSHL.c **** 
 657:Generated_Source\PSoC4/CapSense_CSHL.c ****     /* Get number of sensors in widget */
 658:Generated_Source\PSoC4/CapSense_CSHL.c ****     sensorsPerWidget = CapSense_numberOfSensors[widget];
 659:Generated_Source\PSoC4/CapSense_CSHL.c **** 
 660:Generated_Source\PSoC4/CapSense_CSHL.c ****     /* Get first sensor in widget */
 661:Generated_Source\PSoC4/CapSense_CSHL.c ****     firstSensor = CapSense_rawDataIndex[widget];
 662:Generated_Source\PSoC4/CapSense_CSHL.c **** 
 663:Generated_Source\PSoC4/CapSense_CSHL.c ****     /* Get last sensor in widget */
 664:Generated_Source\PSoC4/CapSense_CSHL.c ****     lastSensor = (CapSense_rawDataIndex[widget] + sensorsPerWidget);
 665:Generated_Source\PSoC4/CapSense_CSHL.c **** 
 666:Generated_Source\PSoC4/CapSense_CSHL.c ****     for(i = firstSensor; i < lastSensor; i++)
 667:Generated_Source\PSoC4/CapSense_CSHL.c ****     {
 668:Generated_Source\PSoC4/CapSense_CSHL.c ****         isSensorEnabled = CapSense_GetBitValue(CapSense_sensorEnableMask, i);
 669:Generated_Source\PSoC4/CapSense_CSHL.c **** 
 670:Generated_Source\PSoC4/CapSense_CSHL.c ****         if(0u != isSensorEnabled)
 671:Generated_Source\PSoC4/CapSense_CSHL.c ****         {
 672:Generated_Source\PSoC4/CapSense_CSHL.c ****             CapSense_UpdateSensorBaseline(i);
 673:Generated_Source\PSoC4/CapSense_CSHL.c ****         }
 674:Generated_Source\PSoC4/CapSense_CSHL.c ****     }
 675:Generated_Source\PSoC4/CapSense_CSHL.c **** }
 676:Generated_Source\PSoC4/CapSense_CSHL.c **** 
 677:Generated_Source\PSoC4/CapSense_CSHL.c **** 
 678:Generated_Source\PSoC4/CapSense_CSHL.c **** /*******************************************************************************
 679:Generated_Source\PSoC4/CapSense_CSHL.c **** * Function Name: CapSense_GetBaselineData
 680:Generated_Source\PSoC4/CapSense_CSHL.c **** ********************************************************************************
 681:Generated_Source\PSoC4/CapSense_CSHL.c **** *
 682:Generated_Source\PSoC4/CapSense_CSHL.c **** * Summary:
 683:Generated_Source\PSoC4/CapSense_CSHL.c **** *  This function reads the sensor baseline from the component.
 684:Generated_Source\PSoC4/CapSense_CSHL.c **** *
 685:Generated_Source\PSoC4/CapSense_CSHL.c **** * Parameters:
 686:Generated_Source\PSoC4/CapSense_CSHL.c **** *  sensor:  Sensor number.
 687:Generated_Source\PSoC4/CapSense_CSHL.c **** *
 688:Generated_Source\PSoC4/CapSense_CSHL.c **** * Return:
 689:Generated_Source\PSoC4/CapSense_CSHL.c **** *  This API returns the baseline value of the sensor indicated by an argument.
 690:Generated_Source\PSoC4/CapSense_CSHL.c **** *
 691:Generated_Source\PSoC4/CapSense_CSHL.c **** * Global Variables:
 692:Generated_Source\PSoC4/CapSense_CSHL.c **** *  CapSense_sensorBaseline[] - the array with an initial values by scanning
 693:Generated_Source\PSoC4/CapSense_CSHL.c **** *
 694:Generated_Source\PSoC4/CapSense_CSHL.c **** * Side Effects:
 695:Generated_Source\PSoC4/CapSense_CSHL.c **** *  None
 696:Generated_Source\PSoC4/CapSense_CSHL.c **** *
 697:Generated_Source\PSoC4/CapSense_CSHL.c **** *******************************************************************************/
 698:Generated_Source\PSoC4/CapSense_CSHL.c **** uint16 CapSense_GetBaselineData(uint32 sensor)
 699:Generated_Source\PSoC4/CapSense_CSHL.c **** {
 209              		.loc 1 699 0
ARM GAS  C:\Users\SHOZO\AppData\Local\Temp\ccsrjLaI.s 			page 17


 210              		.cfi_startproc
 211              		@ args = 0, pretend = 0, frame = 0
 212              		@ frame_needed = 0, uses_anonymous_args = 0
 213              		@ link register save eliminated.
 214              	.LVL20:
 700:Generated_Source\PSoC4/CapSense_CSHL.c ****     return (CapSense_sensorBaseline[sensor]);
 215              		.loc 1 700 0
 216 0000 4000     		lsls	r0, r0, #1
 217              	.LVL21:
 218 0002 014B     		ldr	r3, .L17
 219 0004 185A     		ldrh	r0, [r3, r0]
 701:Generated_Source\PSoC4/CapSense_CSHL.c **** }
 220              		.loc 1 701 0
 221              		@ sp needed
 222 0006 7047     		bx	lr
 223              	.L18:
 224              		.align	2
 225              	.L17:
 226 0008 00000000 		.word	.LANCHOR0
 227              		.cfi_endproc
 228              	.LFE40:
 229              		.size	CapSense_GetBaselineData, .-CapSense_GetBaselineData
 230              		.section	.text.CapSense_SetBaselineData,"ax",%progbits
 231              		.align	2
 232              		.global	CapSense_SetBaselineData
 233              		.code	16
 234              		.thumb_func
 235              		.type	CapSense_SetBaselineData, %function
 236              	CapSense_SetBaselineData:
 237              	.LFB41:
 702:Generated_Source\PSoC4/CapSense_CSHL.c **** 
 703:Generated_Source\PSoC4/CapSense_CSHL.c **** 
 704:Generated_Source\PSoC4/CapSense_CSHL.c **** /*******************************************************************************
 705:Generated_Source\PSoC4/CapSense_CSHL.c **** * Function Name: CapSense_SetBaselineData
 706:Generated_Source\PSoC4/CapSense_CSHL.c **** ********************************************************************************
 707:Generated_Source\PSoC4/CapSense_CSHL.c **** *
 708:Generated_Source\PSoC4/CapSense_CSHL.c **** * Summary:
 709:Generated_Source\PSoC4/CapSense_CSHL.c **** *  This API writes the data value passed as an argument to the sensor baseline array.
 710:Generated_Source\PSoC4/CapSense_CSHL.c **** *
 711:Generated_Source\PSoC4/CapSense_CSHL.c **** * Parameters:
 712:Generated_Source\PSoC4/CapSense_CSHL.c **** *  sensor:  Sensor number.
 713:Generated_Source\PSoC4/CapSense_CSHL.c **** *  data:    Sensor baseline.
 714:Generated_Source\PSoC4/CapSense_CSHL.c **** *
 715:Generated_Source\PSoC4/CapSense_CSHL.c **** * Return:
 716:Generated_Source\PSoC4/CapSense_CSHL.c **** *  None.
 717:Generated_Source\PSoC4/CapSense_CSHL.c **** *
 718:Generated_Source\PSoC4/CapSense_CSHL.c **** * Global Variables:
 719:Generated_Source\PSoC4/CapSense_CSHL.c **** *  CapSense_sensorBaseline[] - the array with initial values by scanning
 720:Generated_Source\PSoC4/CapSense_CSHL.c **** *
 721:Generated_Source\PSoC4/CapSense_CSHL.c **** * Side Effects:
 722:Generated_Source\PSoC4/CapSense_CSHL.c **** *  None
 723:Generated_Source\PSoC4/CapSense_CSHL.c **** *
 724:Generated_Source\PSoC4/CapSense_CSHL.c **** *******************************************************************************/
 725:Generated_Source\PSoC4/CapSense_CSHL.c **** void CapSense_SetBaselineData(uint32 sensor, uint16 data)
 726:Generated_Source\PSoC4/CapSense_CSHL.c **** {
 238              		.loc 1 726 0
 239              		.cfi_startproc
ARM GAS  C:\Users\SHOZO\AppData\Local\Temp\ccsrjLaI.s 			page 18


 240              		@ args = 0, pretend = 0, frame = 0
 241              		@ frame_needed = 0, uses_anonymous_args = 0
 242              		@ link register save eliminated.
 243              	.LVL22:
 727:Generated_Source\PSoC4/CapSense_CSHL.c ****     CapSense_sensorBaseline[sensor] = data;
 244              		.loc 1 727 0
 245 0000 4000     		lsls	r0, r0, #1
 246              	.LVL23:
 247 0002 014B     		ldr	r3, .L20
 248 0004 C152     		strh	r1, [r0, r3]
 728:Generated_Source\PSoC4/CapSense_CSHL.c **** }
 249              		.loc 1 728 0
 250              		@ sp needed
 251 0006 7047     		bx	lr
 252              	.L21:
 253              		.align	2
 254              	.L20:
 255 0008 00000000 		.word	.LANCHOR0
 256              		.cfi_endproc
 257              	.LFE41:
 258              		.size	CapSense_SetBaselineData, .-CapSense_SetBaselineData
 259              		.section	.text.CapSense_GetDiffCountData,"ax",%progbits
 260              		.align	2
 261              		.global	CapSense_GetDiffCountData
 262              		.code	16
 263              		.thumb_func
 264              		.type	CapSense_GetDiffCountData, %function
 265              	CapSense_GetDiffCountData:
 266              	.LFB42:
 729:Generated_Source\PSoC4/CapSense_CSHL.c **** 
 730:Generated_Source\PSoC4/CapSense_CSHL.c **** 
 731:Generated_Source\PSoC4/CapSense_CSHL.c **** /*******************************************************************************
 732:Generated_Source\PSoC4/CapSense_CSHL.c **** * Function Name: CapSense_GetDiffCountData
 733:Generated_Source\PSoC4/CapSense_CSHL.c **** ********************************************************************************
 734:Generated_Source\PSoC4/CapSense_CSHL.c **** *
 735:Generated_Source\PSoC4/CapSense_CSHL.c **** * Summary:
 736:Generated_Source\PSoC4/CapSense_CSHL.c **** *  This function returns the Sensor Signal from the component.
 737:Generated_Source\PSoC4/CapSense_CSHL.c **** *
 738:Generated_Source\PSoC4/CapSense_CSHL.c **** * Parameters:
 739:Generated_Source\PSoC4/CapSense_CSHL.c **** *  sensor:  Sensor number.
 740:Generated_Source\PSoC4/CapSense_CSHL.c **** *
 741:Generated_Source\PSoC4/CapSense_CSHL.c **** * Return:
 742:Generated_Source\PSoC4/CapSense_CSHL.c **** *  This API returns the difference count value of the sensor indicated by the
 743:Generated_Source\PSoC4/CapSense_CSHL.c **** *  argument.
 744:Generated_Source\PSoC4/CapSense_CSHL.c **** *
 745:Generated_Source\PSoC4/CapSense_CSHL.c **** * Global Variables:
 746:Generated_Source\PSoC4/CapSense_CSHL.c **** *  CapSense_sensorSignal[] - the array with difference counts for sensors
 747:Generated_Source\PSoC4/CapSense_CSHL.c **** *
 748:Generated_Source\PSoC4/CapSense_CSHL.c **** * Side Effects:
 749:Generated_Source\PSoC4/CapSense_CSHL.c **** *  None
 750:Generated_Source\PSoC4/CapSense_CSHL.c **** *
 751:Generated_Source\PSoC4/CapSense_CSHL.c **** *******************************************************************************/
 752:Generated_Source\PSoC4/CapSense_CSHL.c **** uint8 CapSense_GetDiffCountData(uint32 sensor)
 753:Generated_Source\PSoC4/CapSense_CSHL.c **** {
 267              		.loc 1 753 0
 268              		.cfi_startproc
 269              		@ args = 0, pretend = 0, frame = 0
ARM GAS  C:\Users\SHOZO\AppData\Local\Temp\ccsrjLaI.s 			page 19


 270              		@ frame_needed = 0, uses_anonymous_args = 0
 271              		@ link register save eliminated.
 272              	.LVL24:
 754:Generated_Source\PSoC4/CapSense_CSHL.c ****     return (CapSense_sensorSignal[sensor]);
 273              		.loc 1 754 0
 274 0000 014B     		ldr	r3, .L23
 275 0002 1818     		adds	r0, r3, r0
 276              	.LVL25:
 277 0004 007D     		ldrb	r0, [r0, #20]
 755:Generated_Source\PSoC4/CapSense_CSHL.c **** }
 278              		.loc 1 755 0
 279              		@ sp needed
 280 0006 7047     		bx	lr
 281              	.L24:
 282              		.align	2
 283              	.L23:
 284 0008 00000000 		.word	.LANCHOR0
 285              		.cfi_endproc
 286              	.LFE42:
 287              		.size	CapSense_GetDiffCountData, .-CapSense_GetDiffCountData
 288              		.section	.text.CapSense_SetDiffCountData,"ax",%progbits
 289              		.align	2
 290              		.global	CapSense_SetDiffCountData
 291              		.code	16
 292              		.thumb_func
 293              		.type	CapSense_SetDiffCountData, %function
 294              	CapSense_SetDiffCountData:
 295              	.LFB43:
 756:Generated_Source\PSoC4/CapSense_CSHL.c **** 
 757:Generated_Source\PSoC4/CapSense_CSHL.c **** 
 758:Generated_Source\PSoC4/CapSense_CSHL.c **** /*******************************************************************************
 759:Generated_Source\PSoC4/CapSense_CSHL.c **** * Function Name: CapSense_SetDiffCountData
 760:Generated_Source\PSoC4/CapSense_CSHL.c **** ********************************************************************************
 761:Generated_Source\PSoC4/CapSense_CSHL.c **** *
 762:Generated_Source\PSoC4/CapSense_CSHL.c **** * Summary:
 763:Generated_Source\PSoC4/CapSense_CSHL.c **** *  This API writes the data value passed as an argument to the sensor signal array.
 764:Generated_Source\PSoC4/CapSense_CSHL.c **** *
 765:Generated_Source\PSoC4/CapSense_CSHL.c **** * Parameters:
 766:Generated_Source\PSoC4/CapSense_CSHL.c **** *  sensor:  Sensor number.
 767:Generated_Source\PSoC4/CapSense_CSHL.c **** *  value:   Sensor signal.
 768:Generated_Source\PSoC4/CapSense_CSHL.c **** *
 769:Generated_Source\PSoC4/CapSense_CSHL.c **** * Return:
 770:Generated_Source\PSoC4/CapSense_CSHL.c **** *  None.
 771:Generated_Source\PSoC4/CapSense_CSHL.c **** *
 772:Generated_Source\PSoC4/CapSense_CSHL.c **** * Global Variables:
 773:Generated_Source\PSoC4/CapSense_CSHL.c **** *  CapSense_sensorSignal[] - the array with difference counts for sensors
 774:Generated_Source\PSoC4/CapSense_CSHL.c **** *
 775:Generated_Source\PSoC4/CapSense_CSHL.c **** * Side Effects:
 776:Generated_Source\PSoC4/CapSense_CSHL.c **** *  None
 777:Generated_Source\PSoC4/CapSense_CSHL.c **** *
 778:Generated_Source\PSoC4/CapSense_CSHL.c **** *******************************************************************************/
 779:Generated_Source\PSoC4/CapSense_CSHL.c **** void CapSense_SetDiffCountData(uint32 sensor, uint8 value)
 780:Generated_Source\PSoC4/CapSense_CSHL.c **** {
 296              		.loc 1 780 0
 297              		.cfi_startproc
 298              		@ args = 0, pretend = 0, frame = 0
 299              		@ frame_needed = 0, uses_anonymous_args = 0
ARM GAS  C:\Users\SHOZO\AppData\Local\Temp\ccsrjLaI.s 			page 20


 300              		@ link register save eliminated.
 301              	.LVL26:
 781:Generated_Source\PSoC4/CapSense_CSHL.c ****     CapSense_sensorSignal[sensor] = value;
 302              		.loc 1 781 0
 303 0000 014B     		ldr	r3, .L26
 304 0002 1818     		adds	r0, r3, r0
 305              	.LVL27:
 306 0004 0175     		strb	r1, [r0, #20]
 782:Generated_Source\PSoC4/CapSense_CSHL.c **** }
 307              		.loc 1 782 0
 308              		@ sp needed
 309 0006 7047     		bx	lr
 310              	.L27:
 311              		.align	2
 312              	.L26:
 313 0008 00000000 		.word	.LANCHOR0
 314              		.cfi_endproc
 315              	.LFE43:
 316              		.size	CapSense_SetDiffCountData, .-CapSense_SetDiffCountData
 317              		.section	.text.CapSense_GetFingerThreshold,"ax",%progbits
 318              		.align	2
 319              		.global	CapSense_GetFingerThreshold
 320              		.code	16
 321              		.thumb_func
 322              		.type	CapSense_GetFingerThreshold, %function
 323              	CapSense_GetFingerThreshold:
 324              	.LFB44:
 783:Generated_Source\PSoC4/CapSense_CSHL.c **** 
 784:Generated_Source\PSoC4/CapSense_CSHL.c **** 
 785:Generated_Source\PSoC4/CapSense_CSHL.c **** /*******************************************************************************
 786:Generated_Source\PSoC4/CapSense_CSHL.c **** * Function Name: CapSense_GetFingerThreshold
 787:Generated_Source\PSoC4/CapSense_CSHL.c **** ********************************************************************************
 788:Generated_Source\PSoC4/CapSense_CSHL.c **** *
 789:Generated_Source\PSoC4/CapSense_CSHL.c **** * Summary:
 790:Generated_Source\PSoC4/CapSense_CSHL.c **** *  This function reads the finger threshold from the component.
 791:Generated_Source\PSoC4/CapSense_CSHL.c **** *
 792:Generated_Source\PSoC4/CapSense_CSHL.c **** * Parameters:
 793:Generated_Source\PSoC4/CapSense_CSHL.c **** *  widget:  widget number.
 794:Generated_Source\PSoC4/CapSense_CSHL.c **** *
 795:Generated_Source\PSoC4/CapSense_CSHL.c **** * Return:
 796:Generated_Source\PSoC4/CapSense_CSHL.c **** *  This API returns the finger threshold of the widget indicated by the argument.
 797:Generated_Source\PSoC4/CapSense_CSHL.c **** *
 798:Generated_Source\PSoC4/CapSense_CSHL.c **** * Global Variables:
 799:Generated_Source\PSoC4/CapSense_CSHL.c **** *  CapSense_fingerThreshold[] - This array contains the level of signal
 800:Generated_Source\PSoC4/CapSense_CSHL.c **** *  for each widget that is determined if a finger is present on the widget.
 801:Generated_Source\PSoC4/CapSense_CSHL.c **** *
 802:Generated_Source\PSoC4/CapSense_CSHL.c **** * Side Effects:
 803:Generated_Source\PSoC4/CapSense_CSHL.c **** *  None
 804:Generated_Source\PSoC4/CapSense_CSHL.c **** *
 805:Generated_Source\PSoC4/CapSense_CSHL.c **** *******************************************************************************/
 806:Generated_Source\PSoC4/CapSense_CSHL.c **** uint8 CapSense_GetFingerThreshold(uint32 widget)
 807:Generated_Source\PSoC4/CapSense_CSHL.c **** {
 325              		.loc 1 807 0
 326              		.cfi_startproc
 327              		@ args = 0, pretend = 0, frame = 0
 328              		@ frame_needed = 0, uses_anonymous_args = 0
 329              		@ link register save eliminated.
ARM GAS  C:\Users\SHOZO\AppData\Local\Temp\ccsrjLaI.s 			page 21


 330              	.LVL28:
 808:Generated_Source\PSoC4/CapSense_CSHL.c ****     return(CapSense_fingerThreshold[widget]);
 809:Generated_Source\PSoC4/CapSense_CSHL.c **** }
 331              		.loc 1 809 0
 332 0000 1420     		movs	r0, #20
 333              	.LVL29:
 334              		@ sp needed
 335 0002 7047     		bx	lr
 336              		.cfi_endproc
 337              	.LFE44:
 338              		.size	CapSense_GetFingerThreshold, .-CapSense_GetFingerThreshold
 339              		.section	.text.CapSense_GetNoiseThreshold,"ax",%progbits
 340              		.align	2
 341              		.global	CapSense_GetNoiseThreshold
 342              		.code	16
 343              		.thumb_func
 344              		.type	CapSense_GetNoiseThreshold, %function
 345              	CapSense_GetNoiseThreshold:
 346              	.LFB45:
 810:Generated_Source\PSoC4/CapSense_CSHL.c **** 
 811:Generated_Source\PSoC4/CapSense_CSHL.c **** 
 812:Generated_Source\PSoC4/CapSense_CSHL.c **** /*******************************************************************************
 813:Generated_Source\PSoC4/CapSense_CSHL.c **** * Function Name: CapSense_GetNoiseThreshold
 814:Generated_Source\PSoC4/CapSense_CSHL.c **** ********************************************************************************
 815:Generated_Source\PSoC4/CapSense_CSHL.c **** *
 816:Generated_Source\PSoC4/CapSense_CSHL.c **** * Summary:
 817:Generated_Source\PSoC4/CapSense_CSHL.c **** *  This function reads the noise threshold from the component.
 818:Generated_Source\PSoC4/CapSense_CSHL.c **** *
 819:Generated_Source\PSoC4/CapSense_CSHL.c **** * Parameters:
 820:Generated_Source\PSoC4/CapSense_CSHL.c **** *  widget:  widget number.
 821:Generated_Source\PSoC4/CapSense_CSHL.c **** *
 822:Generated_Source\PSoC4/CapSense_CSHL.c **** * Return:
 823:Generated_Source\PSoC4/CapSense_CSHL.c **** *  This API returns the noise threshold of the widget indicated by the argument.
 824:Generated_Source\PSoC4/CapSense_CSHL.c **** *
 825:Generated_Source\PSoC4/CapSense_CSHL.c **** * Global Variables:
 826:Generated_Source\PSoC4/CapSense_CSHL.c **** *  CapSense_noiseThreshold[] - This array contains the level of signal
 827:Generated_Source\PSoC4/CapSense_CSHL.c **** *  for each widget that determines the level of noise in the capacitive scan.
 828:Generated_Source\PSoC4/CapSense_CSHL.c **** *
 829:Generated_Source\PSoC4/CapSense_CSHL.c **** * Side Effects:
 830:Generated_Source\PSoC4/CapSense_CSHL.c **** *  None
 831:Generated_Source\PSoC4/CapSense_CSHL.c **** *
 832:Generated_Source\PSoC4/CapSense_CSHL.c **** *******************************************************************************/
 833:Generated_Source\PSoC4/CapSense_CSHL.c **** uint8 CapSense_GetNoiseThreshold(uint32 widget)
 834:Generated_Source\PSoC4/CapSense_CSHL.c **** {
 347              		.loc 1 834 0
 348              		.cfi_startproc
 349              		@ args = 0, pretend = 0, frame = 0
 350              		@ frame_needed = 0, uses_anonymous_args = 0
 351              		@ link register save eliminated.
 352              	.LVL30:
 835:Generated_Source\PSoC4/CapSense_CSHL.c ****     return (CapSense_noiseThreshold[widget]);
 836:Generated_Source\PSoC4/CapSense_CSHL.c **** }
 353              		.loc 1 836 0
 354 0000 0520     		movs	r0, #5
 355              	.LVL31:
 356              		@ sp needed
 357 0002 7047     		bx	lr
ARM GAS  C:\Users\SHOZO\AppData\Local\Temp\ccsrjLaI.s 			page 22


 358              		.cfi_endproc
 359              	.LFE45:
 360              		.size	CapSense_GetNoiseThreshold, .-CapSense_GetNoiseThreshold
 361              		.section	.text.CapSense_GetFingerHysteresis,"ax",%progbits
 362              		.align	2
 363              		.global	CapSense_GetFingerHysteresis
 364              		.code	16
 365              		.thumb_func
 366              		.type	CapSense_GetFingerHysteresis, %function
 367              	CapSense_GetFingerHysteresis:
 368              	.LFB46:
 837:Generated_Source\PSoC4/CapSense_CSHL.c **** 
 838:Generated_Source\PSoC4/CapSense_CSHL.c **** 
 839:Generated_Source\PSoC4/CapSense_CSHL.c **** /*******************************************************************************
 840:Generated_Source\PSoC4/CapSense_CSHL.c **** * Function Name: CapSense_GetFingerHysteresis
 841:Generated_Source\PSoC4/CapSense_CSHL.c **** ********************************************************************************
 842:Generated_Source\PSoC4/CapSense_CSHL.c **** *
 843:Generated_Source\PSoC4/CapSense_CSHL.c **** * Summary:
 844:Generated_Source\PSoC4/CapSense_CSHL.c **** *  This function reads the Hysteresis value from the component.
 845:Generated_Source\PSoC4/CapSense_CSHL.c **** *
 846:Generated_Source\PSoC4/CapSense_CSHL.c **** * Parameters:
 847:Generated_Source\PSoC4/CapSense_CSHL.c **** *  widget:  widget number.
 848:Generated_Source\PSoC4/CapSense_CSHL.c **** *
 849:Generated_Source\PSoC4/CapSense_CSHL.c **** * Return:
 850:Generated_Source\PSoC4/CapSense_CSHL.c **** *  This API returns the Hysteresis of the widget indicated by the argument.
 851:Generated_Source\PSoC4/CapSense_CSHL.c **** *
 852:Generated_Source\PSoC4/CapSense_CSHL.c **** * Global Variables:
 853:Generated_Source\PSoC4/CapSense_CSHL.c **** *  CapSense_hysteresis[] - This array contains the hysteresis value
 854:Generated_Source\PSoC4/CapSense_CSHL.c **** *   for each widget.
 855:Generated_Source\PSoC4/CapSense_CSHL.c **** *  CapSense_widgetNumberSld - structure with dynamic sliders' parameters.
 856:Generated_Source\PSoC4/CapSense_CSHL.c **** *
 857:Generated_Source\PSoC4/CapSense_CSHL.c **** * Side Effects:
 858:Generated_Source\PSoC4/CapSense_CSHL.c **** *  None
 859:Generated_Source\PSoC4/CapSense_CSHL.c **** *
 860:Generated_Source\PSoC4/CapSense_CSHL.c **** *******************************************************************************/
 861:Generated_Source\PSoC4/CapSense_CSHL.c **** uint8 CapSense_GetFingerHysteresis(uint32 widget)
 862:Generated_Source\PSoC4/CapSense_CSHL.c **** {
 369              		.loc 1 862 0
 370              		.cfi_startproc
 371              		@ args = 0, pretend = 0, frame = 0
 372              		@ frame_needed = 0, uses_anonymous_args = 0
 373              		@ link register save eliminated.
 374              	.LVL32:
 863:Generated_Source\PSoC4/CapSense_CSHL.c ****     return(CapSense_hysteresis[widget]);
 864:Generated_Source\PSoC4/CapSense_CSHL.c **** }
 375              		.loc 1 864 0
 376 0000 0020     		movs	r0, #0
 377              	.LVL33:
 378              		@ sp needed
 379 0002 7047     		bx	lr
 380              		.cfi_endproc
 381              	.LFE46:
 382              		.size	CapSense_GetFingerHysteresis, .-CapSense_GetFingerHysteresis
 383              		.section	.text.CapSense_GetNegativeNoiseThreshold,"ax",%progbits
 384              		.align	2
 385              		.global	CapSense_GetNegativeNoiseThreshold
 386              		.code	16
ARM GAS  C:\Users\SHOZO\AppData\Local\Temp\ccsrjLaI.s 			page 23


 387              		.thumb_func
 388              		.type	CapSense_GetNegativeNoiseThreshold, %function
 389              	CapSense_GetNegativeNoiseThreshold:
 390              	.LFB47:
 865:Generated_Source\PSoC4/CapSense_CSHL.c **** 
 866:Generated_Source\PSoC4/CapSense_CSHL.c **** 
 867:Generated_Source\PSoC4/CapSense_CSHL.c **** /*******************************************************************************
 868:Generated_Source\PSoC4/CapSense_CSHL.c **** * Function Name: CapSense_GetNegativeNoiseThreshold
 869:Generated_Source\PSoC4/CapSense_CSHL.c **** ********************************************************************************
 870:Generated_Source\PSoC4/CapSense_CSHL.c **** *
 871:Generated_Source\PSoC4/CapSense_CSHL.c **** * Summary:
 872:Generated_Source\PSoC4/CapSense_CSHL.c **** *  This function reads the negative noise threshold from the component.
 873:Generated_Source\PSoC4/CapSense_CSHL.c **** *
 874:Generated_Source\PSoC4/CapSense_CSHL.c **** * Parameters:
 875:Generated_Source\PSoC4/CapSense_CSHL.c **** *  None.
 876:Generated_Source\PSoC4/CapSense_CSHL.c **** *
 877:Generated_Source\PSoC4/CapSense_CSHL.c **** * Return Value:
 878:Generated_Source\PSoC4/CapSense_CSHL.c **** *  This API returns the negative noise threshold
 879:Generated_Source\PSoC4/CapSense_CSHL.c **** *
 880:Generated_Source\PSoC4/CapSense_CSHL.c **** * Global Variables:
 881:Generated_Source\PSoC4/CapSense_CSHL.c **** *  CapSense_negativeNoiseThreshold - This variable specifies the negative
 882:Generated_Source\PSoC4/CapSense_CSHL.c **** *   difference between the raw count and baseline levels for Baseline resetting
 883:Generated_Source\PSoC4/CapSense_CSHL.c **** *   to the raw count level.
 884:Generated_Source\PSoC4/CapSense_CSHL.c **** *
 885:Generated_Source\PSoC4/CapSense_CSHL.c **** * Side Effects:
 886:Generated_Source\PSoC4/CapSense_CSHL.c **** *  None
 887:Generated_Source\PSoC4/CapSense_CSHL.c **** *
 888:Generated_Source\PSoC4/CapSense_CSHL.c **** *******************************************************************************/
 889:Generated_Source\PSoC4/CapSense_CSHL.c **** uint8 CapSense_GetNegativeNoiseThreshold(uint32 widget)
 890:Generated_Source\PSoC4/CapSense_CSHL.c **** {
 391              		.loc 1 890 0
 392              		.cfi_startproc
 393              		@ args = 0, pretend = 0, frame = 0
 394              		@ frame_needed = 0, uses_anonymous_args = 0
 395              		@ link register save eliminated.
 396              	.LVL34:
 891:Generated_Source\PSoC4/CapSense_CSHL.c **** #if (CapSense_TUNING_METHOD != CapSense__TUNING_NONE)
 892:Generated_Source\PSoC4/CapSense_CSHL.c ****     return(CapSense_negativeNoiseThreshold[widget]);
 893:Generated_Source\PSoC4/CapSense_CSHL.c **** #else
 894:Generated_Source\PSoC4/CapSense_CSHL.c ****     return(CapSense_NEGATIVE_NOISE_THRESHOLD);
 895:Generated_Source\PSoC4/CapSense_CSHL.c **** #endif /* (CapSense_TUNING_METHOD != CapSense__TUNING_NONE) */
 896:Generated_Source\PSoC4/CapSense_CSHL.c **** }
 397              		.loc 1 896 0
 398 0000 0A20     		movs	r0, #10
 399              	.LVL35:
 400              		@ sp needed
 401 0002 7047     		bx	lr
 402              		.cfi_endproc
 403              	.LFE47:
 404              		.size	CapSense_GetNegativeNoiseThreshold, .-CapSense_GetNegativeNoiseThreshold
 405              		.section	.text.CapSense_CheckIsSensorActive,"ax",%progbits
 406              		.align	2
 407              		.global	CapSense_CheckIsSensorActive
 408              		.code	16
 409              		.thumb_func
 410              		.type	CapSense_CheckIsSensorActive, %function
 411              	CapSense_CheckIsSensorActive:
ARM GAS  C:\Users\SHOZO\AppData\Local\Temp\ccsrjLaI.s 			page 24


 412              	.LFB48:
 897:Generated_Source\PSoC4/CapSense_CSHL.c **** 
 898:Generated_Source\PSoC4/CapSense_CSHL.c **** 
 899:Generated_Source\PSoC4/CapSense_CSHL.c **** #if(CapSense_TUNING_METHOD != CapSense__TUNING_NONE)
 900:Generated_Source\PSoC4/CapSense_CSHL.c ****     /*******************************************************************************
 901:Generated_Source\PSoC4/CapSense_CSHL.c ****     * Function Name: CapSense_SetFingerThreshold
 902:Generated_Source\PSoC4/CapSense_CSHL.c ****     ********************************************************************************
 903:Generated_Source\PSoC4/CapSense_CSHL.c ****     *
 904:Generated_Source\PSoC4/CapSense_CSHL.c ****     * Summary:
 905:Generated_Source\PSoC4/CapSense_CSHL.c ****     *  This API sets the finger threshold value for a widget.
 906:Generated_Source\PSoC4/CapSense_CSHL.c ****     *
 907:Generated_Source\PSoC4/CapSense_CSHL.c ****     * Parameters:
 908:Generated_Source\PSoC4/CapSense_CSHL.c ****     *  sensorNumber:  widget index.
 909:Generated_Source\PSoC4/CapSense_CSHL.c ****     *  value:  Finger threshold value for the widget.
 910:Generated_Source\PSoC4/CapSense_CSHL.c ****     *
 911:Generated_Source\PSoC4/CapSense_CSHL.c ****     * Return Value:
 912:Generated_Source\PSoC4/CapSense_CSHL.c ****     *  None
 913:Generated_Source\PSoC4/CapSense_CSHL.c ****     *
 914:Generated_Source\PSoC4/CapSense_CSHL.c ****     * Global Variables:
 915:Generated_Source\PSoC4/CapSense_CSHL.c ****     *  CapSense_fingerThreshold[] - This array contains the level of signal
 916:Generated_Source\PSoC4/CapSense_CSHL.c ****     *   for each widget that determines if a finger is present on the widget.
 917:Generated_Source\PSoC4/CapSense_CSHL.c ****     *
 918:Generated_Source\PSoC4/CapSense_CSHL.c ****     * Side Effects:
 919:Generated_Source\PSoC4/CapSense_CSHL.c ****     *  None
 920:Generated_Source\PSoC4/CapSense_CSHL.c ****     *
 921:Generated_Source\PSoC4/CapSense_CSHL.c ****     *******************************************************************************/
 922:Generated_Source\PSoC4/CapSense_CSHL.c ****     void CapSense_SetFingerThreshold(uint32 widget, uint8 value)
 923:Generated_Source\PSoC4/CapSense_CSHL.c ****     {
 924:Generated_Source\PSoC4/CapSense_CSHL.c ****         CapSense_fingerThreshold[widget] = value;
 925:Generated_Source\PSoC4/CapSense_CSHL.c ****     }
 926:Generated_Source\PSoC4/CapSense_CSHL.c **** 
 927:Generated_Source\PSoC4/CapSense_CSHL.c **** 
 928:Generated_Source\PSoC4/CapSense_CSHL.c ****     /*******************************************************************************
 929:Generated_Source\PSoC4/CapSense_CSHL.c ****     * Function Name: CapSense_SetNoiseThreshold
 930:Generated_Source\PSoC4/CapSense_CSHL.c ****     ********************************************************************************
 931:Generated_Source\PSoC4/CapSense_CSHL.c ****     *
 932:Generated_Source\PSoC4/CapSense_CSHL.c ****     * Summary:
 933:Generated_Source\PSoC4/CapSense_CSHL.c ****     *  This API sets the Noise Threshold value for each widget.
 934:Generated_Source\PSoC4/CapSense_CSHL.c ****     *
 935:Generated_Source\PSoC4/CapSense_CSHL.c ****     * Parameters:
 936:Generated_Source\PSoC4/CapSense_CSHL.c ****     *  widget:  Sensor index number.
 937:Generated_Source\PSoC4/CapSense_CSHL.c ****     *  value:   Noise Threshold value for widget.
 938:Generated_Source\PSoC4/CapSense_CSHL.c ****     *
 939:Generated_Source\PSoC4/CapSense_CSHL.c ****     * Return Value:
 940:Generated_Source\PSoC4/CapSense_CSHL.c ****     *  None
 941:Generated_Source\PSoC4/CapSense_CSHL.c ****     *
 942:Generated_Source\PSoC4/CapSense_CSHL.c ****     * Global Variables:
 943:Generated_Source\PSoC4/CapSense_CSHL.c ****     *  CapSense_noiseThreshold[] - This array contains the level of signal
 944:Generated_Source\PSoC4/CapSense_CSHL.c ****     *   for each widget that determines the level of noise in the capacitive scan.
 945:Generated_Source\PSoC4/CapSense_CSHL.c ****     *
 946:Generated_Source\PSoC4/CapSense_CSHL.c ****     * Side Effects:
 947:Generated_Source\PSoC4/CapSense_CSHL.c ****     *  None
 948:Generated_Source\PSoC4/CapSense_CSHL.c ****     *
 949:Generated_Source\PSoC4/CapSense_CSHL.c ****     *******************************************************************************/
 950:Generated_Source\PSoC4/CapSense_CSHL.c ****     void CapSense_SetNoiseThreshold(uint32 widget, uint8 value)
 951:Generated_Source\PSoC4/CapSense_CSHL.c ****     {
 952:Generated_Source\PSoC4/CapSense_CSHL.c ****         CapSense_noiseThreshold[widget] = value;
ARM GAS  C:\Users\SHOZO\AppData\Local\Temp\ccsrjLaI.s 			page 25


 953:Generated_Source\PSoC4/CapSense_CSHL.c ****     }
 954:Generated_Source\PSoC4/CapSense_CSHL.c **** 
 955:Generated_Source\PSoC4/CapSense_CSHL.c **** 
 956:Generated_Source\PSoC4/CapSense_CSHL.c ****     /*******************************************************************************
 957:Generated_Source\PSoC4/CapSense_CSHL.c ****     * Function Name: CapSense_SetFingerHysteresis
 958:Generated_Source\PSoC4/CapSense_CSHL.c ****     ********************************************************************************
 959:Generated_Source\PSoC4/CapSense_CSHL.c ****     *
 960:Generated_Source\PSoC4/CapSense_CSHL.c ****     * Summary:
 961:Generated_Source\PSoC4/CapSense_CSHL.c ****     *  This API sets the Hysteresis value of a widget
 962:Generated_Source\PSoC4/CapSense_CSHL.c ****     *
 963:Generated_Source\PSoC4/CapSense_CSHL.c ****     * Parameters:
 964:Generated_Source\PSoC4/CapSense_CSHL.c ****     *  value:  Hysteresis value for widgets.
 965:Generated_Source\PSoC4/CapSense_CSHL.c ****     *  widget:  widget number
 966:Generated_Source\PSoC4/CapSense_CSHL.c ****     *
 967:Generated_Source\PSoC4/CapSense_CSHL.c ****     * Return Value:
 968:Generated_Source\PSoC4/CapSense_CSHL.c ****     *  None
 969:Generated_Source\PSoC4/CapSense_CSHL.c ****     *
 970:Generated_Source\PSoC4/CapSense_CSHL.c ****     * Global Variables:
 971:Generated_Source\PSoC4/CapSense_CSHL.c ****     *  CapSense_hysteresis[] - This array contains the hysteresis value for each widget.
 972:Generated_Source\PSoC4/CapSense_CSHL.c ****     *  CapSense_widgetNumberSld - structure with dynamic sliders' parameters.
 973:Generated_Source\PSoC4/CapSense_CSHL.c ****     *
 974:Generated_Source\PSoC4/CapSense_CSHL.c ****     * Side Effects:
 975:Generated_Source\PSoC4/CapSense_CSHL.c ****     *  None
 976:Generated_Source\PSoC4/CapSense_CSHL.c ****     *
 977:Generated_Source\PSoC4/CapSense_CSHL.c ****     *******************************************************************************/
 978:Generated_Source\PSoC4/CapSense_CSHL.c ****     void CapSense_SetFingerHysteresis(uint32 widget, uint8 value)
 979:Generated_Source\PSoC4/CapSense_CSHL.c ****     {
 980:Generated_Source\PSoC4/CapSense_CSHL.c ****         CapSense_hysteresis[widget] = value;
 981:Generated_Source\PSoC4/CapSense_CSHL.c ****     }
 982:Generated_Source\PSoC4/CapSense_CSHL.c **** 
 983:Generated_Source\PSoC4/CapSense_CSHL.c **** 
 984:Generated_Source\PSoC4/CapSense_CSHL.c ****     /*******************************************************************************
 985:Generated_Source\PSoC4/CapSense_CSHL.c ****     * Function Name: CapSense_SetNegativeNoiseThreshold
 986:Generated_Source\PSoC4/CapSense_CSHL.c ****     ********************************************************************************
 987:Generated_Source\PSoC4/CapSense_CSHL.c ****     *
 988:Generated_Source\PSoC4/CapSense_CSHL.c ****     * Summary:
 989:Generated_Source\PSoC4/CapSense_CSHL.c ****     *  This API sets the Negative Noise Threshold value of a widget
 990:Generated_Source\PSoC4/CapSense_CSHL.c ****     *
 991:Generated_Source\PSoC4/CapSense_CSHL.c ****     * Parameters:
 992:Generated_Source\PSoC4/CapSense_CSHL.c ****     *  value:  Negative Noise Threshold value for widgets.
 993:Generated_Source\PSoC4/CapSense_CSHL.c ****     *  widget: widget number
 994:Generated_Source\PSoC4/CapSense_CSHL.c ****     *
 995:Generated_Source\PSoC4/CapSense_CSHL.c ****     * Return Value:
 996:Generated_Source\PSoC4/CapSense_CSHL.c ****     *  None
 997:Generated_Source\PSoC4/CapSense_CSHL.c ****     *
 998:Generated_Source\PSoC4/CapSense_CSHL.c ****     * Global Variables:
 999:Generated_Source\PSoC4/CapSense_CSHL.c ****     *  CapSense_negativeNoiseThreshold  - This parameter specifies the negative
1000:Generated_Source\PSoC4/CapSense_CSHL.c ****     *   difference between the raw count and baseline levels for Baseline resetting to
1001:Generated_Source\PSoC4/CapSense_CSHL.c ****     *   the raw count level.
1002:Generated_Source\PSoC4/CapSense_CSHL.c ****     *
1003:Generated_Source\PSoC4/CapSense_CSHL.c ****     * Side Effects:
1004:Generated_Source\PSoC4/CapSense_CSHL.c ****     *  None
1005:Generated_Source\PSoC4/CapSense_CSHL.c ****     *
1006:Generated_Source\PSoC4/CapSense_CSHL.c ****     *******************************************************************************/
1007:Generated_Source\PSoC4/CapSense_CSHL.c ****     void CapSense_SetNegativeNoiseThreshold(uint32 widget, uint8 value)
1008:Generated_Source\PSoC4/CapSense_CSHL.c ****     {
1009:Generated_Source\PSoC4/CapSense_CSHL.c ****         CapSense_negativeNoiseThreshold[widget] = value;
ARM GAS  C:\Users\SHOZO\AppData\Local\Temp\ccsrjLaI.s 			page 26


1010:Generated_Source\PSoC4/CapSense_CSHL.c ****     }
1011:Generated_Source\PSoC4/CapSense_CSHL.c **** 
1012:Generated_Source\PSoC4/CapSense_CSHL.c **** 
1013:Generated_Source\PSoC4/CapSense_CSHL.c ****     /*******************************************************************************
1014:Generated_Source\PSoC4/CapSense_CSHL.c ****     * Function Name: CapSense_SetDebounce
1015:Generated_Source\PSoC4/CapSense_CSHL.c ****     ********************************************************************************
1016:Generated_Source\PSoC4/CapSense_CSHL.c ****     *
1017:Generated_Source\PSoC4/CapSense_CSHL.c ****     * Summary:
1018:Generated_Source\PSoC4/CapSense_CSHL.c ****     *  This API sets the debounce value for a widget.
1019:Generated_Source\PSoC4/CapSense_CSHL.c ****     *
1020:Generated_Source\PSoC4/CapSense_CSHL.c ****     * Parameters:
1021:Generated_Source\PSoC4/CapSense_CSHL.c ****     *  value:  Debounce value for widget.
1022:Generated_Source\PSoC4/CapSense_CSHL.c ****     *  widget: widget index.
1023:Generated_Source\PSoC4/CapSense_CSHL.c ****     *
1024:Generated_Source\PSoC4/CapSense_CSHL.c ****     * Return Value:
1025:Generated_Source\PSoC4/CapSense_CSHL.c ****     *  None
1026:Generated_Source\PSoC4/CapSense_CSHL.c ****     *
1027:Generated_Source\PSoC4/CapSense_CSHL.c ****     * Global Variables:
1028:Generated_Source\PSoC4/CapSense_CSHL.c ****     *  CapSense_debounce[] - This array contains the debounce value for each widget.
1029:Generated_Source\PSoC4/CapSense_CSHL.c ****     *  CapSense_widgetNumberSld - structure with dynamic sliders' parameters.
1030:Generated_Source\PSoC4/CapSense_CSHL.c ****     *
1031:Generated_Source\PSoC4/CapSense_CSHL.c ****     * Side Effects:
1032:Generated_Source\PSoC4/CapSense_CSHL.c ****     *  None
1033:Generated_Source\PSoC4/CapSense_CSHL.c ****     *
1034:Generated_Source\PSoC4/CapSense_CSHL.c ****     *******************************************************************************/
1035:Generated_Source\PSoC4/CapSense_CSHL.c ****     void CapSense_SetDebounce(uint32 widget, uint8 value)
1036:Generated_Source\PSoC4/CapSense_CSHL.c ****     {
1037:Generated_Source\PSoC4/CapSense_CSHL.c ****         CapSense_debounce[widget] = value;
1038:Generated_Source\PSoC4/CapSense_CSHL.c ****     }
1039:Generated_Source\PSoC4/CapSense_CSHL.c **** 
1040:Generated_Source\PSoC4/CapSense_CSHL.c **** 
1041:Generated_Source\PSoC4/CapSense_CSHL.c ****     /*******************************************************************************
1042:Generated_Source\PSoC4/CapSense_CSHL.c ****     * Function Name: CapSense_SetLowBaselineReset
1043:Generated_Source\PSoC4/CapSense_CSHL.c ****     ********************************************************************************
1044:Generated_Source\PSoC4/CapSense_CSHL.c ****     *
1045:Generated_Source\PSoC4/CapSense_CSHL.c ****     * Summary:
1046:Generated_Source\PSoC4/CapSense_CSHL.c ****     *  This API sets the low baseline reset threshold value for the sensor.
1047:Generated_Source\PSoC4/CapSense_CSHL.c ****     *
1048:Generated_Source\PSoC4/CapSense_CSHL.c ****     * Parameters:
1049:Generated_Source\PSoC4/CapSense_CSHL.c ****     *  value: low baseline reset threshold value.
1050:Generated_Source\PSoC4/CapSense_CSHL.c ****     *  sensor: Sensor index.
1051:Generated_Source\PSoC4/CapSense_CSHL.c ****     *
1052:Generated_Source\PSoC4/CapSense_CSHL.c ****     * Return Value:
1053:Generated_Source\PSoC4/CapSense_CSHL.c ****     *  None
1054:Generated_Source\PSoC4/CapSense_CSHL.c ****     *
1055:Generated_Source\PSoC4/CapSense_CSHL.c ****     * Global Variables:
1056:Generated_Source\PSoC4/CapSense_CSHL.c ****     *  CapSense_lowBaselineReset[] - This array contains the Baseline update
1057:Generated_Source\PSoC4/CapSense_CSHL.c ****     *  threshold value for each sensor.
1058:Generated_Source\PSoC4/CapSense_CSHL.c ****     *
1059:Generated_Source\PSoC4/CapSense_CSHL.c ****     * Side Effects:
1060:Generated_Source\PSoC4/CapSense_CSHL.c ****     *  None
1061:Generated_Source\PSoC4/CapSense_CSHL.c ****     *
1062:Generated_Source\PSoC4/CapSense_CSHL.c ****     *******************************************************************************/
1063:Generated_Source\PSoC4/CapSense_CSHL.c ****     void CapSense_SetLowBaselineReset(uint32 sensor, uint8 value)
1064:Generated_Source\PSoC4/CapSense_CSHL.c ****     {
1065:Generated_Source\PSoC4/CapSense_CSHL.c ****         CapSense_lowBaselineReset[sensor] = value;
1066:Generated_Source\PSoC4/CapSense_CSHL.c ****     }
ARM GAS  C:\Users\SHOZO\AppData\Local\Temp\ccsrjLaI.s 			page 27


1067:Generated_Source\PSoC4/CapSense_CSHL.c **** #endif /* (CapSense_TUNING_METHOD != CapSense__TUNING_NONE) */
1068:Generated_Source\PSoC4/CapSense_CSHL.c **** 
1069:Generated_Source\PSoC4/CapSense_CSHL.c **** 
1070:Generated_Source\PSoC4/CapSense_CSHL.c **** /*******************************************************************************
1071:Generated_Source\PSoC4/CapSense_CSHL.c **** * Function Name: CapSense_CheckIsSensorActive
1072:Generated_Source\PSoC4/CapSense_CSHL.c **** ********************************************************************************
1073:Generated_Source\PSoC4/CapSense_CSHL.c **** *
1074:Generated_Source\PSoC4/CapSense_CSHL.c **** * Summary:
1075:Generated_Source\PSoC4/CapSense_CSHL.c **** *  Compares the CapSense_sensorSignal[sensor] array element to the finger
1076:Generated_Source\PSoC4/CapSense_CSHL.c **** *  threshold of the widget it belongs to. The hysteresis and debounce are taken into
1077:Generated_Source\PSoC4/CapSense_CSHL.c **** *  account. The hysteresis is added or subtracted from the finger threshold
1078:Generated_Source\PSoC4/CapSense_CSHL.c **** *  based on whether the sensor is currently active.
1079:Generated_Source\PSoC4/CapSense_CSHL.c **** *  If the sensor is active, the threshold is lowered by the hysteresis amount.
1080:Generated_Source\PSoC4/CapSense_CSHL.c **** *  If the sensor is inactive, the threshold is raised by the hysteresis amount.
1081:Generated_Source\PSoC4/CapSense_CSHL.c **** *  The debounce counter is added to the sensor active transition.
1082:Generated_Source\PSoC4/CapSense_CSHL.c **** *  This function updates the CapSense_sensorOnMask[] array element.
1083:Generated_Source\PSoC4/CapSense_CSHL.c **** *
1084:Generated_Source\PSoC4/CapSense_CSHL.c **** * Parameters:
1085:Generated_Source\PSoC4/CapSense_CSHL.c **** *  sensor:  Sensor number.
1086:Generated_Source\PSoC4/CapSense_CSHL.c **** *
1087:Generated_Source\PSoC4/CapSense_CSHL.c **** * Return:
1088:Generated_Source\PSoC4/CapSense_CSHL.c **** *  Returns sensor state 1 if active, 0 if not active.
1089:Generated_Source\PSoC4/CapSense_CSHL.c **** *
1090:Generated_Source\PSoC4/CapSense_CSHL.c **** * Global Variables:
1091:Generated_Source\PSoC4/CapSense_CSHL.c **** *  CapSense_sensorSignal[] - used to store the difference between
1092:Generated_Source\PSoC4/CapSense_CSHL.c **** *  the current value of raw data and a previous value of the baseline.
1093:Generated_Source\PSoC4/CapSense_CSHL.c **** *  CapSense_debounceCounter[]   - used to store the current debounce
1094:Generated_Source\PSoC4/CapSense_CSHL.c **** *  counter of the sensor. the widget which have this parameter are buttons, matrix
1095:Generated_Source\PSoC4/CapSense_CSHL.c **** *  buttons, proximity, and guard. All other widgets don't have the  debounce parameter
1096:Generated_Source\PSoC4/CapSense_CSHL.c **** *  and use the last element of this array with value 0 (it means no debounce).
1097:Generated_Source\PSoC4/CapSense_CSHL.c **** *  CapSense_sensorOnMask[] - used to store the sensors on/off state.
1098:Generated_Source\PSoC4/CapSense_CSHL.c **** *  CapSense_sensorOnMask[0] contains the masked bits for sensors
1099:Generated_Source\PSoC4/CapSense_CSHL.c **** *   0 through 7 (sensor 0 is bit 0, sensor 1 is bit 1).
1100:Generated_Source\PSoC4/CapSense_CSHL.c **** *  CapSense_sensorEnableMask[1] contains the masked bits for
1101:Generated_Source\PSoC4/CapSense_CSHL.c **** *  sensors 8 through 15 (if needed), and so on.
1102:Generated_Source\PSoC4/CapSense_CSHL.c **** *  0 - sensor is inactive.
1103:Generated_Source\PSoC4/CapSense_CSHL.c **** *  1 - sensor is active.
1104:Generated_Source\PSoC4/CapSense_CSHL.c **** *
1105:Generated_Source\PSoC4/CapSense_CSHL.c **** * Side Effects:
1106:Generated_Source\PSoC4/CapSense_CSHL.c **** *  None
1107:Generated_Source\PSoC4/CapSense_CSHL.c **** *
1108:Generated_Source\PSoC4/CapSense_CSHL.c **** *******************************************************************************/
1109:Generated_Source\PSoC4/CapSense_CSHL.c **** uint32 CapSense_CheckIsSensorActive(uint32 sensor)
1110:Generated_Source\PSoC4/CapSense_CSHL.c **** {
 413              		.loc 1 1110 0
 414              		.cfi_startproc
 415              		@ args = 0, pretend = 0, frame = 0
 416              		@ frame_needed = 0, uses_anonymous_args = 0
 417              	.LVL36:
 418 0000 70B5     		push	{r4, r5, r6, lr}
 419              		.cfi_def_cfa_offset 16
 420              		.cfi_offset 4, -16
 421              		.cfi_offset 5, -12
 422              		.cfi_offset 6, -8
 423              		.cfi_offset 14, -4
 424 0002 0400     		movs	r4, r0
 425              	.LVL37:
ARM GAS  C:\Users\SHOZO\AppData\Local\Temp\ccsrjLaI.s 			page 28


1111:Generated_Source\PSoC4/CapSense_CSHL.c ****     uint8 widget;
1112:Generated_Source\PSoC4/CapSense_CSHL.c ****     uint8 debounce;
1113:Generated_Source\PSoC4/CapSense_CSHL.c ****     uint8 debounceIndex;
1114:Generated_Source\PSoC4/CapSense_CSHL.c **** 
1115:Generated_Source\PSoC4/CapSense_CSHL.c ****     uint8 fingerThreshold;
1116:Generated_Source\PSoC4/CapSense_CSHL.c ****     uint8 hysteresis;
1117:Generated_Source\PSoC4/CapSense_CSHL.c ****     static uint8 CapSense_debounceCounter[] = {
1118:Generated_Source\PSoC4/CapSense_CSHL.c ****     0u, 
1119:Generated_Source\PSoC4/CapSense_CSHL.c **** };
1120:Generated_Source\PSoC4/CapSense_CSHL.c **** 
1121:Generated_Source\PSoC4/CapSense_CSHL.c **** 
1122:Generated_Source\PSoC4/CapSense_CSHL.c **** 
1123:Generated_Source\PSoC4/CapSense_CSHL.c ****     /* Prepare to find debounce counter index */
1124:Generated_Source\PSoC4/CapSense_CSHL.c ****     widget = CapSense_widgetNumber[sensor];
1125:Generated_Source\PSoC4/CapSense_CSHL.c **** 
1126:Generated_Source\PSoC4/CapSense_CSHL.c ****     fingerThreshold = CapSense_fingerThreshold[widget];
1127:Generated_Source\PSoC4/CapSense_CSHL.c ****     hysteresis = CapSense_hysteresis[widget];
1128:Generated_Source\PSoC4/CapSense_CSHL.c ****     debounce = CapSense_debounce[widget];
1129:Generated_Source\PSoC4/CapSense_CSHL.c **** 
1130:Generated_Source\PSoC4/CapSense_CSHL.c ****         debounceIndex = CapSense_UNUSED_DEBOUNCE_COUNTER_INDEX;
1131:Generated_Source\PSoC4/CapSense_CSHL.c ****     CapSense_debounceCounter[debounceIndex] = 1u;
 426              		.loc 1 1131 0
 427 0004 1B48     		ldr	r0, .L37
 428              	.LVL38:
 429 0006 0123     		movs	r3, #1
 430 0008 0377     		strb	r3, [r0, #28]
1132:Generated_Source\PSoC4/CapSense_CSHL.c **** 
1133:Generated_Source\PSoC4/CapSense_CSHL.c **** 
1134:Generated_Source\PSoC4/CapSense_CSHL.c ****     /* Was on */
1135:Generated_Source\PSoC4/CapSense_CSHL.c ****     if (0u != CapSense_GetBitValue(CapSense_sensorOnMask, sensor))
 431              		.loc 1 1135 0
 432 000a 2030     		adds	r0, r0, #32
 433 000c 2100     		movs	r1, r4
 434 000e FFF7FEFF 		bl	CapSense_GetBitValue
 435              	.LVL39:
 436 0012 0028     		cmp	r0, #0
 437 0014 0ED0     		beq	.L33
1136:Generated_Source\PSoC4/CapSense_CSHL.c ****     {
1137:Generated_Source\PSoC4/CapSense_CSHL.c ****         /* Hysteresis minus */
1138:Generated_Source\PSoC4/CapSense_CSHL.c ****         if (CapSense_sensorSignal[sensor] < (fingerThreshold - hysteresis))
 438              		.loc 1 1138 0
 439 0016 174B     		ldr	r3, .L37
 440 0018 1B19     		adds	r3, r3, r4
 441 001a 1B7D     		ldrb	r3, [r3, #20]
 442 001c 132B     		cmp	r3, #19
 443 001e 1FDC     		bgt	.L34
1139:Generated_Source\PSoC4/CapSense_CSHL.c ****         {
1140:Generated_Source\PSoC4/CapSense_CSHL.c ****             CapSense_SetBitValue(CapSense_sensorOnMask, sensor, 0u);
 444              		.loc 1 1140 0
 445 0020 144D     		ldr	r5, .L37
 446 0022 2800     		movs	r0, r5
 447 0024 2030     		adds	r0, r0, #32
 448 0026 0022     		movs	r2, #0
 449 0028 2100     		movs	r1, r4
 450 002a FFF7FEFF 		bl	CapSense_SetBitValue
 451              	.LVL40:
1141:Generated_Source\PSoC4/CapSense_CSHL.c ****             /* Sensor inactive - reset Debounce counter */
ARM GAS  C:\Users\SHOZO\AppData\Local\Temp\ccsrjLaI.s 			page 29


1142:Generated_Source\PSoC4/CapSense_CSHL.c ****             CapSense_debounceCounter[debounceIndex] = debounce;
 452              		.loc 1 1142 0
 453 002e 0123     		movs	r3, #1
 454 0030 2B77     		strb	r3, [r5, #28]
 455 0032 15E0     		b	.L34
 456              	.L33:
1143:Generated_Source\PSoC4/CapSense_CSHL.c ****         }
1144:Generated_Source\PSoC4/CapSense_CSHL.c ****     }
1145:Generated_Source\PSoC4/CapSense_CSHL.c ****     else    /* Was off */
1146:Generated_Source\PSoC4/CapSense_CSHL.c ****     {
1147:Generated_Source\PSoC4/CapSense_CSHL.c ****         /* Hysteresis plus */
1148:Generated_Source\PSoC4/CapSense_CSHL.c ****         if (CapSense_sensorSignal[sensor] >= (fingerThreshold + hysteresis))
 457              		.loc 1 1148 0
 458 0034 0F4B     		ldr	r3, .L37
 459 0036 1B19     		adds	r3, r3, r4
 460 0038 1B7D     		ldrb	r3, [r3, #20]
 461 003a 132B     		cmp	r3, #19
 462 003c 0DDD     		ble	.L35
1149:Generated_Source\PSoC4/CapSense_CSHL.c ****         {
1150:Generated_Source\PSoC4/CapSense_CSHL.c ****             CapSense_debounceCounter[debounceIndex]--;
 463              		.loc 1 1150 0
 464 003e 0D4A     		ldr	r2, .L37
 465 0040 137F     		ldrb	r3, [r2, #28]
 466 0042 013B     		subs	r3, r3, #1
 467 0044 DBB2     		uxtb	r3, r3
 468 0046 1377     		strb	r3, [r2, #28]
1151:Generated_Source\PSoC4/CapSense_CSHL.c ****             /* Sensor active, decrement debounce counter */
1152:Generated_Source\PSoC4/CapSense_CSHL.c ****             if(CapSense_debounceCounter[debounceIndex] == 0u)
 469              		.loc 1 1152 0
 470 0048 002B     		cmp	r3, #0
 471 004a 09D1     		bne	.L34
1153:Generated_Source\PSoC4/CapSense_CSHL.c ****             {
1154:Generated_Source\PSoC4/CapSense_CSHL.c ****                 CapSense_SetBitValue(CapSense_sensorOnMask, sensor, 1u);
 472              		.loc 1 1154 0
 473 004c 0122     		movs	r2, #1
 474 004e 2100     		movs	r1, r4
 475 0050 0848     		ldr	r0, .L37
 476 0052 2030     		adds	r0, r0, #32
 477 0054 FFF7FEFF 		bl	CapSense_SetBitValue
 478              	.LVL41:
 479 0058 02E0     		b	.L34
 480              	.L35:
1155:Generated_Source\PSoC4/CapSense_CSHL.c ****             }
1156:Generated_Source\PSoC4/CapSense_CSHL.c ****         }
1157:Generated_Source\PSoC4/CapSense_CSHL.c ****         else
1158:Generated_Source\PSoC4/CapSense_CSHL.c ****         {
1159:Generated_Source\PSoC4/CapSense_CSHL.c ****             /* Sensor inactive - reset Debounce counter */
1160:Generated_Source\PSoC4/CapSense_CSHL.c ****             CapSense_debounceCounter[debounceIndex] = debounce;
 481              		.loc 1 1160 0
 482 005a 0122     		movs	r2, #1
 483 005c 054B     		ldr	r3, .L37
 484 005e 1A77     		strb	r2, [r3, #28]
 485              	.L34:
1161:Generated_Source\PSoC4/CapSense_CSHL.c ****         }
1162:Generated_Source\PSoC4/CapSense_CSHL.c ****     }
1163:Generated_Source\PSoC4/CapSense_CSHL.c **** 
1164:Generated_Source\PSoC4/CapSense_CSHL.c ****     return ((uint32)((0u != CapSense_GetBitValue(CapSense_sensorOnMask, sensor)) ? 1u : 0u));
ARM GAS  C:\Users\SHOZO\AppData\Local\Temp\ccsrjLaI.s 			page 30


 486              		.loc 1 1164 0
 487 0060 2100     		movs	r1, r4
 488 0062 0448     		ldr	r0, .L37
 489 0064 2030     		adds	r0, r0, #32
 490 0066 FFF7FEFF 		bl	CapSense_GetBitValue
 491              	.LVL42:
 492 006a 0028     		cmp	r0, #0
 493 006c 00D0     		beq	.L36
 494 006e 0120     		movs	r0, #1
 495              	.L36:
1165:Generated_Source\PSoC4/CapSense_CSHL.c **** }
 496              		.loc 1 1165 0 discriminator 4
 497              		@ sp needed
 498              	.LVL43:
 499 0070 70BD     		pop	{r4, r5, r6, pc}
 500              	.L38:
 501 0072 C046     		.align	2
 502              	.L37:
 503 0074 00000000 		.word	.LANCHOR0
 504              		.cfi_endproc
 505              	.LFE48:
 506              		.size	CapSense_CheckIsSensorActive, .-CapSense_CheckIsSensorActive
 507              		.section	.text.CapSense_CheckIsWidgetActive,"ax",%progbits
 508              		.align	2
 509              		.global	CapSense_CheckIsWidgetActive
 510              		.code	16
 511              		.thumb_func
 512              		.type	CapSense_CheckIsWidgetActive, %function
 513              	CapSense_CheckIsWidgetActive:
 514              	.LFB49:
1166:Generated_Source\PSoC4/CapSense_CSHL.c **** 
1167:Generated_Source\PSoC4/CapSense_CSHL.c **** 
1168:Generated_Source\PSoC4/CapSense_CSHL.c **** /*******************************************************************************
1169:Generated_Source\PSoC4/CapSense_CSHL.c **** * Function Name: CapSense_CheckIsWidgetActive
1170:Generated_Source\PSoC4/CapSense_CSHL.c **** ********************************************************************************
1171:Generated_Source\PSoC4/CapSense_CSHL.c **** *
1172:Generated_Source\PSoC4/CapSense_CSHL.c **** * Summary:
1173:Generated_Source\PSoC4/CapSense_CSHL.c **** *  Compares the CapSense_sensorSignal[] array element to the finger threshold of
1174:Generated_Source\PSoC4/CapSense_CSHL.c **** * the widget it belongs to. The hysteresis and debounce are taken into account.
1175:Generated_Source\PSoC4/CapSense_CSHL.c **** * The hysteresis is added or subtracted from the finger threshold based on whether
1176:Generated_Source\PSoC4/CapSense_CSHL.c **** *  the sensor is currently active. If the sensor is active, the threshold is
1177:Generated_Source\PSoC4/CapSense_CSHL.c **** *  lowered by the hysteresis amount. If the sensor is inactive, the threshold
1178:Generated_Source\PSoC4/CapSense_CSHL.c **** *  is raised by the hysteresis amount.
1179:Generated_Source\PSoC4/CapSense_CSHL.c **** * The debounce counter added to the sensor active transition.
1180:Generated_Source\PSoC4/CapSense_CSHL.c **** * This function updates CapSense_sensorOnMask[] array element
1181:Generated_Source\PSoC4/CapSense_CSHL.c **** *
1182:Generated_Source\PSoC4/CapSense_CSHL.c **** * Parameters:
1183:Generated_Source\PSoC4/CapSense_CSHL.c **** *  widget:  widget number.
1184:Generated_Source\PSoC4/CapSense_CSHL.c **** *
1185:Generated_Source\PSoC4/CapSense_CSHL.c **** * Return:
1186:Generated_Source\PSoC4/CapSense_CSHL.c **** *  Returns widget sensor state 1 if one or more sensors within widget is/are
1187:Generated_Source\PSoC4/CapSense_CSHL.c **** *  active, 0 if all sensors within widget are inactive.
1188:Generated_Source\PSoC4/CapSense_CSHL.c **** *
1189:Generated_Source\PSoC4/CapSense_CSHL.c **** * Global Variables:
1190:Generated_Source\PSoC4/CapSense_CSHL.c **** *  rawDataIndex[]: Contains the  1st sensor position in the widget
1191:Generated_Source\PSoC4/CapSense_CSHL.c **** *
1192:Generated_Source\PSoC4/CapSense_CSHL.c **** * Side Effects:
ARM GAS  C:\Users\SHOZO\AppData\Local\Temp\ccsrjLaI.s 			page 31


1193:Generated_Source\PSoC4/CapSense_CSHL.c **** *  None
1194:Generated_Source\PSoC4/CapSense_CSHL.c **** *
1195:Generated_Source\PSoC4/CapSense_CSHL.c **** *******************************************************************************/
1196:Generated_Source\PSoC4/CapSense_CSHL.c **** uint32 CapSense_CheckIsWidgetActive(uint32 widget)
1197:Generated_Source\PSoC4/CapSense_CSHL.c **** {
 515              		.loc 1 1197 0
 516              		.cfi_startproc
 517              		@ args = 0, pretend = 0, frame = 0
 518              		@ frame_needed = 0, uses_anonymous_args = 0
 519              	.LVL44:
 520 0000 70B5     		push	{r4, r5, r6, lr}
 521              		.cfi_def_cfa_offset 16
 522              		.cfi_offset 4, -16
 523              		.cfi_offset 5, -12
 524              		.cfi_offset 6, -8
 525              		.cfi_offset 14, -4
 526              	.LVL45:
1198:Generated_Source\PSoC4/CapSense_CSHL.c ****     uint32 rawIndex = (uint32)CapSense_rawDataIndex[widget];
1199:Generated_Source\PSoC4/CapSense_CSHL.c ****     uint32 numOfSensors = (uint32)CapSense_numberOfSensors[widget] + rawIndex;
1200:Generated_Source\PSoC4/CapSense_CSHL.c ****     uint32 state = 0u;
 527              		.loc 1 1200 0
 528 0002 0025     		movs	r5, #0
1198:Generated_Source\PSoC4/CapSense_CSHL.c ****     uint32 rawIndex = (uint32)CapSense_rawDataIndex[widget];
 529              		.loc 1 1198 0
 530 0004 0024     		movs	r4, #0
 531              	.LVL46:
 532              	.L41:
1201:Generated_Source\PSoC4/CapSense_CSHL.c **** 
1202:Generated_Source\PSoC4/CapSense_CSHL.c ****     /* Check all sensors of widget */
1203:Generated_Source\PSoC4/CapSense_CSHL.c ****     do
1204:Generated_Source\PSoC4/CapSense_CSHL.c ****     {
1205:Generated_Source\PSoC4/CapSense_CSHL.c ****         if(CapSense_CheckIsSensorActive((uint32)rawIndex) != 0u)
 533              		.loc 1 1205 0
 534 0006 2000     		movs	r0, r4
 535 0008 FFF7FEFF 		bl	CapSense_CheckIsSensorActive
 536              	.LVL47:
 537 000c 0028     		cmp	r0, #0
 538 000e 00D0     		beq	.L40
1206:Generated_Source\PSoC4/CapSense_CSHL.c ****         {
1207:Generated_Source\PSoC4/CapSense_CSHL.c ****             state = CapSense_SENSOR_IS_ACTIVE;
 539              		.loc 1 1207 0
 540 0010 0125     		movs	r5, #1
 541              	.LVL48:
 542              	.L40:
1208:Generated_Source\PSoC4/CapSense_CSHL.c ****         }
1209:Generated_Source\PSoC4/CapSense_CSHL.c ****         rawIndex++;
 543              		.loc 1 1209 0
 544 0012 0134     		adds	r4, r4, #1
 545              	.LVL49:
1210:Generated_Source\PSoC4/CapSense_CSHL.c ****     }
1211:Generated_Source\PSoC4/CapSense_CSHL.c ****     while(rawIndex < numOfSensors);
 546              		.loc 1 1211 0
 547 0014 042C     		cmp	r4, #4
 548 0016 F6D9     		bls	.L41
1212:Generated_Source\PSoC4/CapSense_CSHL.c **** 
1213:Generated_Source\PSoC4/CapSense_CSHL.c **** 
1214:Generated_Source\PSoC4/CapSense_CSHL.c **** 
ARM GAS  C:\Users\SHOZO\AppData\Local\Temp\ccsrjLaI.s 			page 32


1215:Generated_Source\PSoC4/CapSense_CSHL.c ****     return state;
1216:Generated_Source\PSoC4/CapSense_CSHL.c **** }
 549              		.loc 1 1216 0
 550 0018 2800     		movs	r0, r5
 551              		@ sp needed
 552              	.LVL50:
 553              	.LVL51:
 554 001a 70BD     		pop	{r4, r5, r6, pc}
 555              		.cfi_endproc
 556              	.LFE49:
 557              		.size	CapSense_CheckIsWidgetActive, .-CapSense_CheckIsWidgetActive
 558              		.section	.text.CapSense_CheckIsAnyWidgetActive,"ax",%progbits
 559              		.align	2
 560              		.global	CapSense_CheckIsAnyWidgetActive
 561              		.code	16
 562              		.thumb_func
 563              		.type	CapSense_CheckIsAnyWidgetActive, %function
 564              	CapSense_CheckIsAnyWidgetActive:
 565              	.LFB50:
1217:Generated_Source\PSoC4/CapSense_CSHL.c **** 
1218:Generated_Source\PSoC4/CapSense_CSHL.c **** 
1219:Generated_Source\PSoC4/CapSense_CSHL.c **** /*******************************************************************************
1220:Generated_Source\PSoC4/CapSense_CSHL.c **** * Function Name: CapSense_CheckIsAnyWidgetActive
1221:Generated_Source\PSoC4/CapSense_CSHL.c **** ********************************************************************************
1222:Generated_Source\PSoC4/CapSense_CSHL.c **** *
1223:Generated_Source\PSoC4/CapSense_CSHL.c **** * Summary:
1224:Generated_Source\PSoC4/CapSense_CSHL.c **** *  Compares all the sensors of the CapSense_Signal[] array to their finger
1225:Generated_Source\PSoC4/CapSense_CSHL.c **** *  threshold. Calls CapSense_CheckIsWidgetActive() for each widget so
1226:Generated_Source\PSoC4/CapSense_CSHL.c **** *  the CapSense_sensorOnMask[] array is up to date after calling this
1227:Generated_Source\PSoC4/CapSense_CSHL.c **** *  function.
1228:Generated_Source\PSoC4/CapSense_CSHL.c **** *
1229:Generated_Source\PSoC4/CapSense_CSHL.c **** * Parameters:
1230:Generated_Source\PSoC4/CapSense_CSHL.c **** *  widget:  widget number.
1231:Generated_Source\PSoC4/CapSense_CSHL.c **** *
1232:Generated_Source\PSoC4/CapSense_CSHL.c **** * Return:
1233:Generated_Source\PSoC4/CapSense_CSHL.c **** *  Returns 1 if any widget is active, 0 none of widgets are active.
1234:Generated_Source\PSoC4/CapSense_CSHL.c **** *
1235:Generated_Source\PSoC4/CapSense_CSHL.c **** * Global Variables:
1236:Generated_Source\PSoC4/CapSense_CSHL.c **** *  None
1237:Generated_Source\PSoC4/CapSense_CSHL.c **** *
1238:Generated_Source\PSoC4/CapSense_CSHL.c **** * Side Effects:
1239:Generated_Source\PSoC4/CapSense_CSHL.c **** *  None
1240:Generated_Source\PSoC4/CapSense_CSHL.c **** *
1241:Generated_Source\PSoC4/CapSense_CSHL.c **** *******************************************************************************/
1242:Generated_Source\PSoC4/CapSense_CSHL.c **** uint32 CapSense_CheckIsAnyWidgetActive(void)
1243:Generated_Source\PSoC4/CapSense_CSHL.c **** {
 566              		.loc 1 1243 0
 567              		.cfi_startproc
 568              		@ args = 0, pretend = 0, frame = 0
 569              		@ frame_needed = 0, uses_anonymous_args = 0
 570 0000 70B5     		push	{r4, r5, r6, lr}
 571              		.cfi_def_cfa_offset 16
 572              		.cfi_offset 4, -16
 573              		.cfi_offset 5, -12
 574              		.cfi_offset 6, -8
 575              		.cfi_offset 14, -4
 576              	.LVL52:
ARM GAS  C:\Users\SHOZO\AppData\Local\Temp\ccsrjLaI.s 			page 33


1244:Generated_Source\PSoC4/CapSense_CSHL.c **** 
1245:Generated_Source\PSoC4/CapSense_CSHL.c ****         uint32 i;
1246:Generated_Source\PSoC4/CapSense_CSHL.c ****     uint32 state = 0u;
 577              		.loc 1 1246 0
 578 0002 0025     		movs	r5, #0
1247:Generated_Source\PSoC4/CapSense_CSHL.c ****     
1248:Generated_Source\PSoC4/CapSense_CSHL.c ****     for(i = 0u; i < CapSense_TOTAL_WIDGET_COUNT; i++)
 579              		.loc 1 1248 0
 580 0004 0024     		movs	r4, #0
 581 0006 06E0     		b	.L44
 582              	.LVL53:
 583              	.L46:
1249:Generated_Source\PSoC4/CapSense_CSHL.c ****     {
1250:Generated_Source\PSoC4/CapSense_CSHL.c ****         if (CapSense_CheckIsWidgetActive(i) != 0u)
 584              		.loc 1 1250 0
 585 0008 2000     		movs	r0, r4
 586 000a FFF7FEFF 		bl	CapSense_CheckIsWidgetActive
 587              	.LVL54:
 588 000e 0028     		cmp	r0, #0
 589 0010 00D0     		beq	.L45
1251:Generated_Source\PSoC4/CapSense_CSHL.c ****         {
1252:Generated_Source\PSoC4/CapSense_CSHL.c ****             state = CapSense_WIDGET_IS_ACTIVE;
 590              		.loc 1 1252 0
 591 0012 0125     		movs	r5, #1
 592              	.LVL55:
 593              	.L45:
1248:Generated_Source\PSoC4/CapSense_CSHL.c ****     {
 594              		.loc 1 1248 0 discriminator 2
 595 0014 0134     		adds	r4, r4, #1
 596              	.LVL56:
 597              	.L44:
1248:Generated_Source\PSoC4/CapSense_CSHL.c ****     {
 598              		.loc 1 1248 0 is_stmt 0 discriminator 1
 599 0016 002C     		cmp	r4, #0
 600 0018 F6D0     		beq	.L46
1253:Generated_Source\PSoC4/CapSense_CSHL.c ****         }
1254:Generated_Source\PSoC4/CapSense_CSHL.c ****     }
1255:Generated_Source\PSoC4/CapSense_CSHL.c ****     
1256:Generated_Source\PSoC4/CapSense_CSHL.c **** 
1257:Generated_Source\PSoC4/CapSense_CSHL.c **** 
1258:Generated_Source\PSoC4/CapSense_CSHL.c ****     return state;
1259:Generated_Source\PSoC4/CapSense_CSHL.c **** }
 601              		.loc 1 1259 0 is_stmt 1
 602 001a 2800     		movs	r0, r5
 603              		@ sp needed
 604              	.LVL57:
 605              	.LVL58:
 606 001c 70BD     		pop	{r4, r5, r6, pc}
 607              		.cfi_endproc
 608              	.LFE50:
 609              		.size	CapSense_CheckIsAnyWidgetActive, .-CapSense_CheckIsAnyWidgetActive
 610 001e C046     		.section	.text.CapSense_EnableWidget,"ax",%progbits
 611              		.align	2
 612              		.global	CapSense_EnableWidget
 613              		.code	16
 614              		.thumb_func
 615              		.type	CapSense_EnableWidget, %function
ARM GAS  C:\Users\SHOZO\AppData\Local\Temp\ccsrjLaI.s 			page 34


 616              	CapSense_EnableWidget:
 617              	.LFB51:
1260:Generated_Source\PSoC4/CapSense_CSHL.c **** 
1261:Generated_Source\PSoC4/CapSense_CSHL.c **** 
1262:Generated_Source\PSoC4/CapSense_CSHL.c **** /*******************************************************************************
1263:Generated_Source\PSoC4/CapSense_CSHL.c **** * Function Name: CapSense_EnableWidget
1264:Generated_Source\PSoC4/CapSense_CSHL.c **** ********************************************************************************
1265:Generated_Source\PSoC4/CapSense_CSHL.c **** *
1266:Generated_Source\PSoC4/CapSense_CSHL.c **** * Summary:
1267:Generated_Source\PSoC4/CapSense_CSHL.c **** *  Enables all the widget elements (sensors) to the scanning process.
1268:Generated_Source\PSoC4/CapSense_CSHL.c **** *
1269:Generated_Source\PSoC4/CapSense_CSHL.c **** * Parameters:
1270:Generated_Source\PSoC4/CapSense_CSHL.c **** *  widget:  widget number.
1271:Generated_Source\PSoC4/CapSense_CSHL.c **** *
1272:Generated_Source\PSoC4/CapSense_CSHL.c **** * Return:
1273:Generated_Source\PSoC4/CapSense_CSHL.c **** *  None
1274:Generated_Source\PSoC4/CapSense_CSHL.c **** *
1275:Generated_Source\PSoC4/CapSense_CSHL.c **** * Global Variables:
1276:Generated_Source\PSoC4/CapSense_CSHL.c **** *  CapSense_sensorEnableMask[] - used to store the sensor scanning
1277:Generated_Source\PSoC4/CapSense_CSHL.c **** *  state.
1278:Generated_Source\PSoC4/CapSense_CSHL.c **** *  CapSense_sensorEnableMask[0] contains the masked bits for sensors
1279:Generated_Source\PSoC4/CapSense_CSHL.c **** *  0 through 7 (sensor 0 is bit 0, sensor 1 is bit 1).
1280:Generated_Source\PSoC4/CapSense_CSHL.c **** *  CapSense_sensorEnableMask[1] contains the masked bits for
1281:Generated_Source\PSoC4/CapSense_CSHL.c **** *  sensors 8 through 15 (if needed), and so on.
1282:Generated_Source\PSoC4/CapSense_CSHL.c **** *  0 - sensor doesn't scan by CapSense_ScanEnabledWidgets().
1283:Generated_Source\PSoC4/CapSense_CSHL.c **** *  1 - sensor scans by CapSense_ScanEnabledWidgets().
1284:Generated_Source\PSoC4/CapSense_CSHL.c **** *
1285:Generated_Source\PSoC4/CapSense_CSHL.c **** * Side Effects:
1286:Generated_Source\PSoC4/CapSense_CSHL.c **** *  None
1287:Generated_Source\PSoC4/CapSense_CSHL.c **** *
1288:Generated_Source\PSoC4/CapSense_CSHL.c **** *******************************************************************************/
1289:Generated_Source\PSoC4/CapSense_CSHL.c **** void CapSense_EnableWidget(uint32 widget)
1290:Generated_Source\PSoC4/CapSense_CSHL.c **** {
 618              		.loc 1 1290 0
 619              		.cfi_startproc
 620              		@ args = 0, pretend = 0, frame = 0
 621              		@ frame_needed = 0, uses_anonymous_args = 0
 622              	.LVL59:
 623 0000 10B5     		push	{r4, lr}
 624              		.cfi_def_cfa_offset 8
 625              		.cfi_offset 4, -8
 626              		.cfi_offset 14, -4
 627              	.LVL60:
1291:Generated_Source\PSoC4/CapSense_CSHL.c **** 
1292:Generated_Source\PSoC4/CapSense_CSHL.c ****     uint8 rawIndex = CapSense_rawDataIndex[widget];
 628              		.loc 1 1292 0
 629 0002 0024     		movs	r4, #0
 630              	.LVL61:
 631              	.L49:
1293:Generated_Source\PSoC4/CapSense_CSHL.c ****     uint8 numOfSensors = CapSense_numberOfSensors[widget] + rawIndex;
1294:Generated_Source\PSoC4/CapSense_CSHL.c **** 
1295:Generated_Source\PSoC4/CapSense_CSHL.c ****     /* Enable all sensors of widget */
1296:Generated_Source\PSoC4/CapSense_CSHL.c ****     do
1297:Generated_Source\PSoC4/CapSense_CSHL.c ****     {
1298:Generated_Source\PSoC4/CapSense_CSHL.c ****         CapSense_SetBitValue(CapSense_sensorEnableMask, (uint32)rawIndex, 1u);
 632              		.loc 1 1298 0 discriminator 1
 633 0004 0122     		movs	r2, #1
ARM GAS  C:\Users\SHOZO\AppData\Local\Temp\ccsrjLaI.s 			page 35


 634 0006 2100     		movs	r1, r4
 635 0008 0348     		ldr	r0, .L50
 636 000a FFF7FEFF 		bl	CapSense_SetBitValue
 637              	.LVL62:
1299:Generated_Source\PSoC4/CapSense_CSHL.c ****         rawIndex++;
 638              		.loc 1 1299 0 discriminator 1
 639 000e 0134     		adds	r4, r4, #1
 640              	.LVL63:
 641 0010 E4B2     		uxtb	r4, r4
 642              	.LVL64:
1300:Generated_Source\PSoC4/CapSense_CSHL.c ****     }
1301:Generated_Source\PSoC4/CapSense_CSHL.c ****     while(rawIndex < numOfSensors);
 643              		.loc 1 1301 0 discriminator 1
 644 0012 042C     		cmp	r4, #4
 645 0014 F6D9     		bls	.L49
1302:Generated_Source\PSoC4/CapSense_CSHL.c **** }
 646              		.loc 1 1302 0
 647              		@ sp needed
 648              	.LVL65:
 649 0016 10BD     		pop	{r4, pc}
 650              	.L51:
 651              		.align	2
 652              	.L50:
 653 0018 00000000 		.word	CapSense_sensorEnableMask
 654              		.cfi_endproc
 655              	.LFE51:
 656              		.size	CapSense_EnableWidget, .-CapSense_EnableWidget
 657              		.section	.text.CapSense_DisableWidget,"ax",%progbits
 658              		.align	2
 659              		.global	CapSense_DisableWidget
 660              		.code	16
 661              		.thumb_func
 662              		.type	CapSense_DisableWidget, %function
 663              	CapSense_DisableWidget:
 664              	.LFB52:
1303:Generated_Source\PSoC4/CapSense_CSHL.c **** 
1304:Generated_Source\PSoC4/CapSense_CSHL.c **** 
1305:Generated_Source\PSoC4/CapSense_CSHL.c **** /*******************************************************************************
1306:Generated_Source\PSoC4/CapSense_CSHL.c **** * Function Name: CapSense_DisableWidget
1307:Generated_Source\PSoC4/CapSense_CSHL.c **** ********************************************************************************
1308:Generated_Source\PSoC4/CapSense_CSHL.c **** *
1309:Generated_Source\PSoC4/CapSense_CSHL.c **** * Summary:
1310:Generated_Source\PSoC4/CapSense_CSHL.c **** *  Disables all the widget elements (sensors) from the scanning process.
1311:Generated_Source\PSoC4/CapSense_CSHL.c **** *
1312:Generated_Source\PSoC4/CapSense_CSHL.c **** * Parameters:
1313:Generated_Source\PSoC4/CapSense_CSHL.c **** *  widget:  widget number.
1314:Generated_Source\PSoC4/CapSense_CSHL.c **** *
1315:Generated_Source\PSoC4/CapSense_CSHL.c **** * Return:
1316:Generated_Source\PSoC4/CapSense_CSHL.c **** *  None
1317:Generated_Source\PSoC4/CapSense_CSHL.c **** *
1318:Generated_Source\PSoC4/CapSense_CSHL.c **** * Global Variables:
1319:Generated_Source\PSoC4/CapSense_CSHL.c **** *  CapSense_sensorEnableMask[] - used to store the sensor scanning
1320:Generated_Source\PSoC4/CapSense_CSHL.c **** *  state.
1321:Generated_Source\PSoC4/CapSense_CSHL.c **** *  CapSense_sensorEnableMask[0] contains the masked bits for sensors
1322:Generated_Source\PSoC4/CapSense_CSHL.c **** *  0 through 7 (sensor 0 is bit 0, sensor 1 is bit 1).
1323:Generated_Source\PSoC4/CapSense_CSHL.c **** *  CapSense_sensorEnableMask[1] contains the masked bits for
1324:Generated_Source\PSoC4/CapSense_CSHL.c **** *  sensors 8 through 15 (if needed), and so on.
ARM GAS  C:\Users\SHOZO\AppData\Local\Temp\ccsrjLaI.s 			page 36


1325:Generated_Source\PSoC4/CapSense_CSHL.c **** *  0 - sensor isn't scanned by CapSense_ScanEnabledWidgets().
1326:Generated_Source\PSoC4/CapSense_CSHL.c **** *  1 - sensor is scanned by CapSense_ScanEnabledWidgets().
1327:Generated_Source\PSoC4/CapSense_CSHL.c **** *
1328:Generated_Source\PSoC4/CapSense_CSHL.c **** * Side Effects:
1329:Generated_Source\PSoC4/CapSense_CSHL.c **** *  None
1330:Generated_Source\PSoC4/CapSense_CSHL.c **** *
1331:Generated_Source\PSoC4/CapSense_CSHL.c **** *******************************************************************************/
1332:Generated_Source\PSoC4/CapSense_CSHL.c **** void CapSense_DisableWidget(uint32 widget)
1333:Generated_Source\PSoC4/CapSense_CSHL.c **** {
 665              		.loc 1 1333 0
 666              		.cfi_startproc
 667              		@ args = 0, pretend = 0, frame = 0
 668              		@ frame_needed = 0, uses_anonymous_args = 0
 669              	.LVL66:
 670 0000 10B5     		push	{r4, lr}
 671              		.cfi_def_cfa_offset 8
 672              		.cfi_offset 4, -8
 673              		.cfi_offset 14, -4
 674              	.LVL67:
1334:Generated_Source\PSoC4/CapSense_CSHL.c ****     uint8 rawIndex = CapSense_rawDataIndex[widget];
 675              		.loc 1 1334 0
 676 0002 0024     		movs	r4, #0
 677              	.LVL68:
 678              	.L53:
1335:Generated_Source\PSoC4/CapSense_CSHL.c ****     uint8 numOfSensors = CapSense_numberOfSensors[widget] + rawIndex;
1336:Generated_Source\PSoC4/CapSense_CSHL.c **** 
1337:Generated_Source\PSoC4/CapSense_CSHL.c ****     /* Disable all sensors of widget */
1338:Generated_Source\PSoC4/CapSense_CSHL.c ****     do
1339:Generated_Source\PSoC4/CapSense_CSHL.c ****     {
1340:Generated_Source\PSoC4/CapSense_CSHL.c **** 
1341:Generated_Source\PSoC4/CapSense_CSHL.c ****         CapSense_SetBitValue(CapSense_sensorEnableMask, (uint32)rawIndex, 0u);
 679              		.loc 1 1341 0 discriminator 1
 680 0004 0022     		movs	r2, #0
 681 0006 2100     		movs	r1, r4
 682 0008 0348     		ldr	r0, .L54
 683 000a FFF7FEFF 		bl	CapSense_SetBitValue
 684              	.LVL69:
1342:Generated_Source\PSoC4/CapSense_CSHL.c ****         rawIndex++;
 685              		.loc 1 1342 0 discriminator 1
 686 000e 0134     		adds	r4, r4, #1
 687              	.LVL70:
 688 0010 E4B2     		uxtb	r4, r4
 689              	.LVL71:
1343:Generated_Source\PSoC4/CapSense_CSHL.c ****     }
1344:Generated_Source\PSoC4/CapSense_CSHL.c ****     while(rawIndex < numOfSensors);
 690              		.loc 1 1344 0 discriminator 1
 691 0012 042C     		cmp	r4, #4
 692 0014 F6D9     		bls	.L53
1345:Generated_Source\PSoC4/CapSense_CSHL.c **** }
 693              		.loc 1 1345 0
 694              		@ sp needed
 695              	.LVL72:
 696 0016 10BD     		pop	{r4, pc}
 697              	.L55:
 698              		.align	2
 699              	.L54:
 700 0018 00000000 		.word	CapSense_sensorEnableMask
ARM GAS  C:\Users\SHOZO\AppData\Local\Temp\ccsrjLaI.s 			page 37


 701              		.cfi_endproc
 702              	.LFE52:
 703              		.size	CapSense_DisableWidget, .-CapSense_DisableWidget
 704              		.section	.text.CapSense_FindMaximum,"ax",%progbits
 705              		.align	2
 706              		.global	CapSense_FindMaximum
 707              		.code	16
 708              		.thumb_func
 709              		.type	CapSense_FindMaximum, %function
 710              	CapSense_FindMaximum:
 711              	.LFB53:
1346:Generated_Source\PSoC4/CapSense_CSHL.c **** 
1347:Generated_Source\PSoC4/CapSense_CSHL.c **** 
1348:Generated_Source\PSoC4/CapSense_CSHL.c **** #if(CapSense_TOTAL_CENTROIDS_BASIC_COUNT)
1349:Generated_Source\PSoC4/CapSense_CSHL.c ****     /*******************************************************************************
1350:Generated_Source\PSoC4/CapSense_CSHL.c ****     * Function Name: CapSense_FindMaximum
1351:Generated_Source\PSoC4/CapSense_CSHL.c ****     ********************************************************************************
1352:Generated_Source\PSoC4/CapSense_CSHL.c ****     *
1353:Generated_Source\PSoC4/CapSense_CSHL.c ****     * Summary:
1354:Generated_Source\PSoC4/CapSense_CSHL.c ****     *  Finds the index of the maximum element within a defined centroid. Checks
1355:Generated_Source\PSoC4/CapSense_CSHL.c ****     *  CapSense_sensorSignal[] within a defined centroid and
1356:Generated_Source\PSoC4/CapSense_CSHL.c ****     *  returns the index of the maximum element. The values below the finger threshold are
1357:Generated_Source\PSoC4/CapSense_CSHL.c ****     *  ignored.
1358:Generated_Source\PSoC4/CapSense_CSHL.c ****     *  The centroid is defined by offset of the first element and a number of elements - count.
1359:Generated_Source\PSoC4/CapSense_CSHL.c ****     *  The diplexed centroid requires at least two consecutive elements above
1360:Generated_Source\PSoC4/CapSense_CSHL.c ****     *  FingerThreshold to find the index of the maximum element.
1361:Generated_Source\PSoC4/CapSense_CSHL.c ****     *
1362:Generated_Source\PSoC4/CapSense_CSHL.c ****     * Parameters:
1363:Generated_Source\PSoC4/CapSense_CSHL.c ****     *  offset:  Start index of centroid in CapSense_sensorSignal[] array.
1364:Generated_Source\PSoC4/CapSense_CSHL.c ****     *  count:   number of elements within centroid.
1365:Generated_Source\PSoC4/CapSense_CSHL.c ****     *  fingerThreshold:  Finger threshold.
1366:Generated_Source\PSoC4/CapSense_CSHL.c ****     *  diplex:   pointer to diplex table.
1367:Generated_Source\PSoC4/CapSense_CSHL.c ****     *
1368:Generated_Source\PSoC4/CapSense_CSHL.c ****     * Return:
1369:Generated_Source\PSoC4/CapSense_CSHL.c ****     *  Returns the index of the maximum element within a defined centroid.
1370:Generated_Source\PSoC4/CapSense_CSHL.c ****     *  If the index of the maximum element isn't found it returns 0xFF.
1371:Generated_Source\PSoC4/CapSense_CSHL.c ****     *
1372:Generated_Source\PSoC4/CapSense_CSHL.c ****     * Global Variables:
1373:Generated_Source\PSoC4/CapSense_CSHL.c ****     *  CapSense_startOfSlider[] - contains the index of the first slider element
1374:Generated_Source\PSoC4/CapSense_CSHL.c ****     *
1375:Generated_Source\PSoC4/CapSense_CSHL.c ****     * Side Effects:
1376:Generated_Source\PSoC4/CapSense_CSHL.c ****     *  None
1377:Generated_Source\PSoC4/CapSense_CSHL.c ****     *
1378:Generated_Source\PSoC4/CapSense_CSHL.c ****     *******************************************************************************/
1379:Generated_Source\PSoC4/CapSense_CSHL.c ****     #if (CapSense_IS_DIPLEX_SLIDER)
1380:Generated_Source\PSoC4/CapSense_CSHL.c ****         uint8 CapSense_FindMaximum(uint8 offset, uint8 count, uint8 fingerThreshold, const uint8 *d
1381:Generated_Source\PSoC4/CapSense_CSHL.c ****     #else
1382:Generated_Source\PSoC4/CapSense_CSHL.c ****         uint8 CapSense_FindMaximum(uint8 offset, uint8 count, uint8 fingerThreshold)
1383:Generated_Source\PSoC4/CapSense_CSHL.c ****     #endif /* (CapSense_IS_DIPLEX_SLIDER) */
1384:Generated_Source\PSoC4/CapSense_CSHL.c ****     {
 712              		.loc 1 1384 0
 713              		.cfi_startproc
 714              		@ args = 0, pretend = 0, frame = 0
 715              		@ frame_needed = 0, uses_anonymous_args = 0
 716              	.LVL73:
 717 0000 70B5     		push	{r4, r5, r6, lr}
 718              		.cfi_def_cfa_offset 16
ARM GAS  C:\Users\SHOZO\AppData\Local\Temp\ccsrjLaI.s 			page 38


 719              		.cfi_offset 4, -16
 720              		.cfi_offset 5, -12
 721              		.cfi_offset 6, -8
 722              		.cfi_offset 14, -4
 723              	.LVL74:
1385:Generated_Source\PSoC4/CapSense_CSHL.c ****         uint8 i;
1386:Generated_Source\PSoC4/CapSense_CSHL.c ****         #if (CapSense_IS_DIPLEX_SLIDER)
1387:Generated_Source\PSoC4/CapSense_CSHL.c ****             uint8 curPos = 0u;
1388:Generated_Source\PSoC4/CapSense_CSHL.c ****             /* No centroid at Start */
1389:Generated_Source\PSoC4/CapSense_CSHL.c ****             uint8 curCntrdSize = 0u;
1390:Generated_Source\PSoC4/CapSense_CSHL.c ****             uint8 curCtrdStartPos = CapSense_MAXIMUM_CENTROID;
1391:Generated_Source\PSoC4/CapSense_CSHL.c ****             /* Biggest centroid is zero */
1392:Generated_Source\PSoC4/CapSense_CSHL.c ****             uint8 biggestCtrdSize = 0u;
1393:Generated_Source\PSoC4/CapSense_CSHL.c ****             uint8 biggestCtrdStartPos = 0u;
1394:Generated_Source\PSoC4/CapSense_CSHL.c ****         #endif /* (CapSense_IS_DIPLEX_SLIDER) */
1395:Generated_Source\PSoC4/CapSense_CSHL.c ****         uint8 maximum = CapSense_MAXIMUM_CENTROID;
1396:Generated_Source\PSoC4/CapSense_CSHL.c **** 
1397:Generated_Source\PSoC4/CapSense_CSHL.c ****         uint8 temp = 0u;
1398:Generated_Source\PSoC4/CapSense_CSHL.c ****         uint8 *startOfSlider = &CapSense_sensorSignal[offset];
 724              		.loc 1 1398 0
 725 0002 094D     		ldr	r5, .L61
 726 0004 1435     		adds	r5, r5, #20
 727 0006 2D18     		adds	r5, r5, r0
 728              	.LVL75:
1397:Generated_Source\PSoC4/CapSense_CSHL.c ****         uint8 *startOfSlider = &CapSense_sensorSignal[offset];
 729              		.loc 1 1397 0
 730 0008 0026     		movs	r6, #0
1395:Generated_Source\PSoC4/CapSense_CSHL.c **** 
 731              		.loc 1 1395 0
 732 000a FF20     		movs	r0, #255
 733              	.LVL76:
1399:Generated_Source\PSoC4/CapSense_CSHL.c **** 
1400:Generated_Source\PSoC4/CapSense_CSHL.c ****         #if (CapSense_IS_DIPLEX_SLIDER)
1401:Generated_Source\PSoC4/CapSense_CSHL.c ****             if(diplex != 0u)
1402:Generated_Source\PSoC4/CapSense_CSHL.c ****             {
1403:Generated_Source\PSoC4/CapSense_CSHL.c ****                 /* Initialize */
1404:Generated_Source\PSoC4/CapSense_CSHL.c ****                 i = 0u;
1405:Generated_Source\PSoC4/CapSense_CSHL.c **** 
1406:Generated_Source\PSoC4/CapSense_CSHL.c ****                 /* Make slider x2 as Diplexed */
1407:Generated_Source\PSoC4/CapSense_CSHL.c ****                 count <<= 1u;
1408:Generated_Source\PSoC4/CapSense_CSHL.c ****                 while(1u)
1409:Generated_Source\PSoC4/CapSense_CSHL.c ****                 {
1410:Generated_Source\PSoC4/CapSense_CSHL.c ****                     if (startOfSlider[curPos] > 0u)    /* Looking for centroids */
1411:Generated_Source\PSoC4/CapSense_CSHL.c ****                     {
1412:Generated_Source\PSoC4/CapSense_CSHL.c ****                         if (curCtrdStartPos == CapSense_MAXIMUM_CENTROID)
1413:Generated_Source\PSoC4/CapSense_CSHL.c ****                         {
1414:Generated_Source\PSoC4/CapSense_CSHL.c ****                             /* Start of centroid */
1415:Generated_Source\PSoC4/CapSense_CSHL.c ****                             curCtrdStartPos = i;
1416:Generated_Source\PSoC4/CapSense_CSHL.c ****                             curCntrdSize++;
1417:Generated_Source\PSoC4/CapSense_CSHL.c ****                         }
1418:Generated_Source\PSoC4/CapSense_CSHL.c ****                         else
1419:Generated_Source\PSoC4/CapSense_CSHL.c ****                         {
1420:Generated_Source\PSoC4/CapSense_CSHL.c ****                             curCntrdSize++;
1421:Generated_Source\PSoC4/CapSense_CSHL.c ****                         }
1422:Generated_Source\PSoC4/CapSense_CSHL.c ****                     }
1423:Generated_Source\PSoC4/CapSense_CSHL.c ****                     else   /* Select biggest and indicate zero start */
1424:Generated_Source\PSoC4/CapSense_CSHL.c ****                     {
ARM GAS  C:\Users\SHOZO\AppData\Local\Temp\ccsrjLaI.s 			page 39


1425:Generated_Source\PSoC4/CapSense_CSHL.c ****                         if(curCntrdSize > 0u)
1426:Generated_Source\PSoC4/CapSense_CSHL.c ****                         {
1427:Generated_Source\PSoC4/CapSense_CSHL.c ****                             /* We are at the end of current */
1428:Generated_Source\PSoC4/CapSense_CSHL.c ****                             if(curCntrdSize > biggestCtrdSize)
1429:Generated_Source\PSoC4/CapSense_CSHL.c ****                             {
1430:Generated_Source\PSoC4/CapSense_CSHL.c ****                                 biggestCtrdSize = curCntrdSize;
1431:Generated_Source\PSoC4/CapSense_CSHL.c ****                                 biggestCtrdStartPos = curCtrdStartPos;
1432:Generated_Source\PSoC4/CapSense_CSHL.c ****                             }
1433:Generated_Source\PSoC4/CapSense_CSHL.c **** 
1434:Generated_Source\PSoC4/CapSense_CSHL.c ****                             curCntrdSize = 0u;
1435:Generated_Source\PSoC4/CapSense_CSHL.c ****                             curCtrdStartPos = CapSense_MAXIMUM_CENTROID;
1436:Generated_Source\PSoC4/CapSense_CSHL.c ****                         }
1437:Generated_Source\PSoC4/CapSense_CSHL.c ****                     }
1438:Generated_Source\PSoC4/CapSense_CSHL.c **** 
1439:Generated_Source\PSoC4/CapSense_CSHL.c ****                     i++;
1440:Generated_Source\PSoC4/CapSense_CSHL.c ****                     curPos = diplex[i];
1441:Generated_Source\PSoC4/CapSense_CSHL.c ****                     if(i == count)
1442:Generated_Source\PSoC4/CapSense_CSHL.c ****                     {
1443:Generated_Source\PSoC4/CapSense_CSHL.c ****                         break;
1444:Generated_Source\PSoC4/CapSense_CSHL.c ****                     }
1445:Generated_Source\PSoC4/CapSense_CSHL.c ****                 }
1446:Generated_Source\PSoC4/CapSense_CSHL.c **** 
1447:Generated_Source\PSoC4/CapSense_CSHL.c ****                     /* Find biggest centroid if two are same size, last one wins
1448:Generated_Source\PSoC4/CapSense_CSHL.c ****                        We are at the end of current */
1449:Generated_Source\PSoC4/CapSense_CSHL.c ****                 if (curCntrdSize >= biggestCtrdSize)
1450:Generated_Source\PSoC4/CapSense_CSHL.c ****                 {
1451:Generated_Source\PSoC4/CapSense_CSHL.c ****                     biggestCtrdSize = curCntrdSize;
1452:Generated_Source\PSoC4/CapSense_CSHL.c ****                     biggestCtrdStartPos = curCtrdStartPos;
1453:Generated_Source\PSoC4/CapSense_CSHL.c ****                 }
1454:Generated_Source\PSoC4/CapSense_CSHL.c ****             }
1455:Generated_Source\PSoC4/CapSense_CSHL.c ****             else
1456:Generated_Source\PSoC4/CapSense_CSHL.c ****             {
1457:Generated_Source\PSoC4/CapSense_CSHL.c ****                 /* Without diplexing */
1458:Generated_Source\PSoC4/CapSense_CSHL.c ****                 biggestCtrdSize = count;
1459:Generated_Source\PSoC4/CapSense_CSHL.c ****             }
1460:Generated_Source\PSoC4/CapSense_CSHL.c **** 
1461:Generated_Source\PSoC4/CapSense_CSHL.c **** 
1462:Generated_Source\PSoC4/CapSense_CSHL.c ****             /* Check centroid size */
1463:Generated_Source\PSoC4/CapSense_CSHL.c ****             #if (CapSense_IS_NON_DIPLEX_SLIDER)
1464:Generated_Source\PSoC4/CapSense_CSHL.c ****                 if((biggestCtrdSize >= 2u) || ((biggestCtrdSize == 1u) && (diplex == 0u)))
1465:Generated_Source\PSoC4/CapSense_CSHL.c ****             #else
1466:Generated_Source\PSoC4/CapSense_CSHL.c ****                 if(biggestCtrdSize >= 2u)
1467:Generated_Source\PSoC4/CapSense_CSHL.c ****             #endif /* (CapSense_IS_NON_DIPLEX_SLIDER) */
1468:Generated_Source\PSoC4/CapSense_CSHL.c ****                 {
1469:Generated_Source\PSoC4/CapSense_CSHL.c ****                     for (i = biggestCtrdStartPos; i < (biggestCtrdStartPos + biggestCtrdSize); i++)
1470:Generated_Source\PSoC4/CapSense_CSHL.c ****                     {
1471:Generated_Source\PSoC4/CapSense_CSHL.c ****                         #if (CapSense_IS_DIPLEX_SLIDER && CapSense_IS_NON_DIPLEX_SLIDER)
1472:Generated_Source\PSoC4/CapSense_CSHL.c ****                             if (diplex == 0u)
1473:Generated_Source\PSoC4/CapSense_CSHL.c ****                             {
1474:Generated_Source\PSoC4/CapSense_CSHL.c ****                                 curPos = i;
1475:Generated_Source\PSoC4/CapSense_CSHL.c ****                             }
1476:Generated_Source\PSoC4/CapSense_CSHL.c ****                             else
1477:Generated_Source\PSoC4/CapSense_CSHL.c ****                             {
1478:Generated_Source\PSoC4/CapSense_CSHL.c ****                                 curPos = diplex[i];
1479:Generated_Source\PSoC4/CapSense_CSHL.c ****                             }
1480:Generated_Source\PSoC4/CapSense_CSHL.c ****                         #elif (CapSense_IS_DIPLEX_SLIDER)
1481:Generated_Source\PSoC4/CapSense_CSHL.c ****                             curPos = diplex[i];
ARM GAS  C:\Users\SHOZO\AppData\Local\Temp\ccsrjLaI.s 			page 40


1482:Generated_Source\PSoC4/CapSense_CSHL.c ****                         #endif /* (CapSense_IS_DIPLEX_SLIDER && CapSense_IS_NON_DIPLEX_SLIDER) */
1483:Generated_Source\PSoC4/CapSense_CSHL.c ****                         /* Looking for greater element within centroid */
1484:Generated_Source\PSoC4/CapSense_CSHL.c ****                         if(startOfSlider[curPos] > fingerThreshold)
1485:Generated_Source\PSoC4/CapSense_CSHL.c ****                         {
1486:Generated_Source\PSoC4/CapSense_CSHL.c ****                             if(startOfSlider[curPos] > temp)
1487:Generated_Source\PSoC4/CapSense_CSHL.c ****                             {
1488:Generated_Source\PSoC4/CapSense_CSHL.c ****                                 maximum = i;
1489:Generated_Source\PSoC4/CapSense_CSHL.c ****                                 temp = startOfSlider[curPos];
1490:Generated_Source\PSoC4/CapSense_CSHL.c ****                             }
1491:Generated_Source\PSoC4/CapSense_CSHL.c ****                         }
1492:Generated_Source\PSoC4/CapSense_CSHL.c ****                     }
1493:Generated_Source\PSoC4/CapSense_CSHL.c ****                 }
1494:Generated_Source\PSoC4/CapSense_CSHL.c ****         #else
1495:Generated_Source\PSoC4/CapSense_CSHL.c ****             for (i = 0u; i < count; i++)
 734              		.loc 1 1495 0
 735 000c 0023     		movs	r3, #0
 736 000e 08E0     		b	.L57
 737              	.LVL77:
 738              	.L59:
1496:Generated_Source\PSoC4/CapSense_CSHL.c ****             {
1497:Generated_Source\PSoC4/CapSense_CSHL.c ****                 /* Looking for greater element within centroid */
1498:Generated_Source\PSoC4/CapSense_CSHL.c ****                 if(startOfSlider[i] > fingerThreshold)
 739              		.loc 1 1498 0
 740 0010 EC5C     		ldrb	r4, [r5, r3]
 741 0012 9442     		cmp	r4, r2
 742 0014 03D9     		bls	.L58
1499:Generated_Source\PSoC4/CapSense_CSHL.c ****                 {
1500:Generated_Source\PSoC4/CapSense_CSHL.c ****                     if(startOfSlider[i] > temp)
 743              		.loc 1 1500 0
 744 0016 A642     		cmp	r6, r4
 745 0018 01D2     		bcs	.L58
1501:Generated_Source\PSoC4/CapSense_CSHL.c ****                     {
1502:Generated_Source\PSoC4/CapSense_CSHL.c ****                         maximum = i;
1503:Generated_Source\PSoC4/CapSense_CSHL.c ****                         temp = startOfSlider[i];
 746              		.loc 1 1503 0
 747 001a 2600     		movs	r6, r4
 748              	.LVL78:
1502:Generated_Source\PSoC4/CapSense_CSHL.c ****                         temp = startOfSlider[i];
 749              		.loc 1 1502 0
 750 001c 1800     		movs	r0, r3
 751              	.LVL79:
 752              	.L58:
1495:Generated_Source\PSoC4/CapSense_CSHL.c ****             {
 753              		.loc 1 1495 0 discriminator 2
 754 001e 0133     		adds	r3, r3, #1
 755              	.LVL80:
 756 0020 DBB2     		uxtb	r3, r3
 757              	.LVL81:
 758              	.L57:
1495:Generated_Source\PSoC4/CapSense_CSHL.c ****             {
 759              		.loc 1 1495 0 is_stmt 0 discriminator 1
 760 0022 8B42     		cmp	r3, r1
 761 0024 F4D3     		bcc	.L59
1504:Generated_Source\PSoC4/CapSense_CSHL.c ****                     }
1505:Generated_Source\PSoC4/CapSense_CSHL.c ****                 }
1506:Generated_Source\PSoC4/CapSense_CSHL.c ****             }
1507:Generated_Source\PSoC4/CapSense_CSHL.c ****         #endif /* (CapSense_IS_DIPLEX_SLIDER) */
ARM GAS  C:\Users\SHOZO\AppData\Local\Temp\ccsrjLaI.s 			page 41


1508:Generated_Source\PSoC4/CapSense_CSHL.c ****         return (maximum);
1509:Generated_Source\PSoC4/CapSense_CSHL.c ****     }
 762              		.loc 1 1509 0 is_stmt 1
 763              		@ sp needed
 764              	.LVL82:
 765              	.LVL83:
 766 0026 70BD     		pop	{r4, r5, r6, pc}
 767              	.L62:
 768              		.align	2
 769              	.L61:
 770 0028 00000000 		.word	.LANCHOR0
 771              		.cfi_endproc
 772              	.LFE53:
 773              		.size	CapSense_FindMaximum, .-CapSense_FindMaximum
 774              		.global	__aeabi_idiv
 775              		.section	.text.CapSense_CalcCentroid,"ax",%progbits
 776              		.align	2
 777              		.global	CapSense_CalcCentroid
 778              		.code	16
 779              		.thumb_func
 780              		.type	CapSense_CalcCentroid, %function
 781              	CapSense_CalcCentroid:
 782              	.LFB54:
1510:Generated_Source\PSoC4/CapSense_CSHL.c **** 
1511:Generated_Source\PSoC4/CapSense_CSHL.c **** 
1512:Generated_Source\PSoC4/CapSense_CSHL.c ****     /*******************************************************************************
1513:Generated_Source\PSoC4/CapSense_CSHL.c ****     * Function Name: CapSense_CalcCentroid
1514:Generated_Source\PSoC4/CapSense_CSHL.c ****     ********************************************************************************
1515:Generated_Source\PSoC4/CapSense_CSHL.c ****     *
1516:Generated_Source\PSoC4/CapSense_CSHL.c ****     * Summary:
1517:Generated_Source\PSoC4/CapSense_CSHL.c ****     *  Returns a position value calculated according to the index of the maximum element and API
1518:Generated_Source\PSoC4/CapSense_CSHL.c ****     *  resolution.
1519:Generated_Source\PSoC4/CapSense_CSHL.c ****     *
1520:Generated_Source\PSoC4/CapSense_CSHL.c ****     * Parameters:
1521:Generated_Source\PSoC4/CapSense_CSHL.c ****     *  type:  widget type.
1522:Generated_Source\PSoC4/CapSense_CSHL.c ****     *  diplex:  pointer to diplex table.
1523:Generated_Source\PSoC4/CapSense_CSHL.c ****     *  maximum:  Index of maximum element within centroid.
1524:Generated_Source\PSoC4/CapSense_CSHL.c ****     *  offset:   Start index of centroid in CapSense_sensorSignal[] array.
1525:Generated_Source\PSoC4/CapSense_CSHL.c ****     *  count:    Number of elements within centroid.
1526:Generated_Source\PSoC4/CapSense_CSHL.c ****     *  resolution:  multiplicator calculated according to centroid type and
1527:Generated_Source\PSoC4/CapSense_CSHL.c ****     *  API resolution.
1528:Generated_Source\PSoC4/CapSense_CSHL.c ****     *  noiseThreshold:  Noise threshold.
1529:Generated_Source\PSoC4/CapSense_CSHL.c ****     *
1530:Generated_Source\PSoC4/CapSense_CSHL.c ****     * Return:
1531:Generated_Source\PSoC4/CapSense_CSHL.c ****     *  Returns a position value of the slider.
1532:Generated_Source\PSoC4/CapSense_CSHL.c ****     *
1533:Generated_Source\PSoC4/CapSense_CSHL.c ****     * Side Effects:
1534:Generated_Source\PSoC4/CapSense_CSHL.c ****     *  None
1535:Generated_Source\PSoC4/CapSense_CSHL.c ****     *
1536:Generated_Source\PSoC4/CapSense_CSHL.c ****     *******************************************************************************/
1537:Generated_Source\PSoC4/CapSense_CSHL.c **** #if (CapSense_TOTAL_TRACKPAD_GESTURES_COUNT > 0u)
1538:Generated_Source\PSoC4/CapSense_CSHL.c ****     uint8 CapSense_CalcCentroid(uint8 maximum, uint8 offset,
1539:Generated_Source\PSoC4/CapSense_CSHL.c ****                                         uint8 count, uint32 resolution, uint8 noiseThreshold)
1540:Generated_Source\PSoC4/CapSense_CSHL.c **** #else
1541:Generated_Source\PSoC4/CapSense_CSHL.c ****     uint8 CapSense_CalcCentroid(uint8 maximum, uint8 offset,
1542:Generated_Source\PSoC4/CapSense_CSHL.c ****                                         uint8 count, uint16 resolution, uint8 noiseThreshold)
1543:Generated_Source\PSoC4/CapSense_CSHL.c **** #endif /* (CapSense_TOTAL_TRACKPAD_GESTURES_COUNT > 0u) */
ARM GAS  C:\Users\SHOZO\AppData\Local\Temp\ccsrjLaI.s 			page 42


1544:Generated_Source\PSoC4/CapSense_CSHL.c ****     {
 783              		.loc 1 1544 0
 784              		.cfi_startproc
 785              		@ args = 4, pretend = 0, frame = 8
 786              		@ frame_needed = 0, uses_anonymous_args = 0
 787              	.LVL84:
 788 0000 F0B5     		push	{r4, r5, r6, r7, lr}
 789              		.cfi_def_cfa_offset 20
 790              		.cfi_offset 4, -20
 791              		.cfi_offset 5, -16
 792              		.cfi_offset 6, -12
 793              		.cfi_offset 7, -8
 794              		.cfi_offset 14, -4
 795 0002 83B0     		sub	sp, sp, #12
 796              		.cfi_def_cfa_offset 32
 797 0004 0400     		movs	r4, r0
 798 0006 0192     		str	r2, [sp, #4]
 799 0008 0093     		str	r3, [sp]
 800 000a 08AB     		add	r3, sp, #32
 801              	.LVL85:
 802 000c 1878     		ldrb	r0, [r3]
 803              	.LVL86:
1545:Generated_Source\PSoC4/CapSense_CSHL.c ****         #if ((CapSense_TOTAL_LINEAR_SLIDERS_COUNT > 0u) || (CapSense_TOTAL_TOUCH_PADS_BASIC_COUNT >
1546:Generated_Source\PSoC4/CapSense_CSHL.c ****             uint8 posPrev;
1547:Generated_Source\PSoC4/CapSense_CSHL.c ****             uint8 posNext;
1548:Generated_Source\PSoC4/CapSense_CSHL.c ****         #endif /* ((CapSense_TOTAL_LINEAR_SLIDERS_COUNT>0u) || (CapSense_TOTAL_TOUCH_PADS_BASIC_COU
1549:Generated_Source\PSoC4/CapSense_CSHL.c **** 
1550:Generated_Source\PSoC4/CapSense_CSHL.c ****         /* Helps during centroid calculation */
1551:Generated_Source\PSoC4/CapSense_CSHL.c ****         #if (CapSense_TOTAL_CENTROIDS_BASIC_COUNT)
1552:Generated_Source\PSoC4/CapSense_CSHL.c ****             static uint8 CapSense_centroid[3u];
1553:Generated_Source\PSoC4/CapSense_CSHL.c ****         #endif  /* (CapSense_TOTAL_CENTROIDS_BASIC_COUNT) */
1554:Generated_Source\PSoC4/CapSense_CSHL.c **** 
1555:Generated_Source\PSoC4/CapSense_CSHL.c ****         #if (CapSense_IS_DIPLEX_SLIDER)
1556:Generated_Source\PSoC4/CapSense_CSHL.c ****             uint8 pos;
1557:Generated_Source\PSoC4/CapSense_CSHL.c ****         #endif /* (CapSense_IS_DIPLEX_SLIDER) */
1558:Generated_Source\PSoC4/CapSense_CSHL.c **** 
1559:Generated_Source\PSoC4/CapSense_CSHL.c ****         uint8 position;
1560:Generated_Source\PSoC4/CapSense_CSHL.c ****         uint32 numerator;
1561:Generated_Source\PSoC4/CapSense_CSHL.c ****         int32 denominator;
1562:Generated_Source\PSoC4/CapSense_CSHL.c **** 
1563:Generated_Source\PSoC4/CapSense_CSHL.c ****         uint8  *startOfSlider = &CapSense_sensorSignal[offset];
 804              		.loc 1 1563 0
 805 000e 344B     		ldr	r3, .L73
 806              	.LVL87:
 807 0010 1433     		adds	r3, r3, #20
 808 0012 5918     		adds	r1, r3, r1
 809              	.LVL88:
1564:Generated_Source\PSoC4/CapSense_CSHL.c **** 
1565:Generated_Source\PSoC4/CapSense_CSHL.c ****         #if ((CapSense_TOTAL_LINEAR_SLIDERS_COUNT > 0u) || (CapSense_TOTAL_TOUCH_PADS_BASIC_COUNT >
1566:Generated_Source\PSoC4/CapSense_CSHL.c ****             posPrev = 0u;
1567:Generated_Source\PSoC4/CapSense_CSHL.c ****         #endif /* ((CapSense_TOTAL_LINEAR_SLIDERS_COUNT>0u) || (CapSense_TOTAL_TOUCH_PADS_BASIC_COU
1568:Generated_Source\PSoC4/CapSense_CSHL.c **** 
1569:Generated_Source\PSoC4/CapSense_CSHL.c ****         #if (CapSense_ADD_SLIDER_TYPE)
1570:Generated_Source\PSoC4/CapSense_CSHL.c ****             if(type == CapSense_TYPE_RADIAL_SLIDER)
1571:Generated_Source\PSoC4/CapSense_CSHL.c ****             {
1572:Generated_Source\PSoC4/CapSense_CSHL.c ****         #endif /* (CapSense_ADD_SLIDER_TYPE) */
1573:Generated_Source\PSoC4/CapSense_CSHL.c **** 
ARM GAS  C:\Users\SHOZO\AppData\Local\Temp\ccsrjLaI.s 			page 43


1574:Generated_Source\PSoC4/CapSense_CSHL.c ****             #if (CapSense_TOTAL_RADIAL_SLIDERS_COUNT > 0u)
1575:Generated_Source\PSoC4/CapSense_CSHL.c ****                 /* Copy Signal to the centroid array */
1576:Generated_Source\PSoC4/CapSense_CSHL.c ****                 CapSense_centroid[CapSense_POS] = startOfSlider[maximum];
1577:Generated_Source\PSoC4/CapSense_CSHL.c **** 
1578:Generated_Source\PSoC4/CapSense_CSHL.c ****                 /* Check borders for ROTARY Slider */
1579:Generated_Source\PSoC4/CapSense_CSHL.c ****                 if (maximum == 0u)                   /* Start of centroid */
1580:Generated_Source\PSoC4/CapSense_CSHL.c ****                 {
1581:Generated_Source\PSoC4/CapSense_CSHL.c ****                     CapSense_centroid[CapSense_POS_PREV] = startOfSlider[count - 1u];
1582:Generated_Source\PSoC4/CapSense_CSHL.c ****                     CapSense_centroid[CapSense_POS_NEXT] = startOfSlider[1u];
1583:Generated_Source\PSoC4/CapSense_CSHL.c ****                 }
1584:Generated_Source\PSoC4/CapSense_CSHL.c ****                 else if (maximum == (count - 1u))    /* End of centroid */
1585:Generated_Source\PSoC4/CapSense_CSHL.c ****                 {
1586:Generated_Source\PSoC4/CapSense_CSHL.c ****                     CapSense_centroid[CapSense_POS_PREV] = startOfSlider[maximum - 1u];
1587:Generated_Source\PSoC4/CapSense_CSHL.c ****                     CapSense_centroid[CapSense_POS_NEXT] = startOfSlider[0u];
1588:Generated_Source\PSoC4/CapSense_CSHL.c ****                 }
1589:Generated_Source\PSoC4/CapSense_CSHL.c ****                 else                                /* Not first Not last */
1590:Generated_Source\PSoC4/CapSense_CSHL.c ****                 {
1591:Generated_Source\PSoC4/CapSense_CSHL.c ****                     CapSense_centroid[CapSense_POS_PREV] = startOfSlider[maximum - 1u];
1592:Generated_Source\PSoC4/CapSense_CSHL.c ****                     CapSense_centroid[CapSense_POS_NEXT] = startOfSlider[maximum + 1u];
1593:Generated_Source\PSoC4/CapSense_CSHL.c ****                 }
1594:Generated_Source\PSoC4/CapSense_CSHL.c ****             #endif /* (CapSense_TOTAL_RADIAL_SLIDERS_COUNT > 0u) */
1595:Generated_Source\PSoC4/CapSense_CSHL.c **** 
1596:Generated_Source\PSoC4/CapSense_CSHL.c ****         #if (CapSense_ADD_SLIDER_TYPE)
1597:Generated_Source\PSoC4/CapSense_CSHL.c ****             }
1598:Generated_Source\PSoC4/CapSense_CSHL.c ****             else
1599:Generated_Source\PSoC4/CapSense_CSHL.c ****             {
1600:Generated_Source\PSoC4/CapSense_CSHL.c ****         #endif /* (CapSense_ADD_SLIDER_TYPE) */
1601:Generated_Source\PSoC4/CapSense_CSHL.c **** 
1602:Generated_Source\PSoC4/CapSense_CSHL.c ****             #if ((CapSense_TOTAL_LINEAR_SLIDERS_COUNT > 0u) || (CapSense_TOTAL_TOUCH_PADS_BASIC_COU
1603:Generated_Source\PSoC4/CapSense_CSHL.c ****                 #if (CapSense_IS_DIPLEX_SLIDER && CapSense_IS_NON_DIPLEX_SLIDER)
1604:Generated_Source\PSoC4/CapSense_CSHL.c ****                     /* Calculate next and previous near to maximum */
1605:Generated_Source\PSoC4/CapSense_CSHL.c ****                     if(diplex == 0u)
1606:Generated_Source\PSoC4/CapSense_CSHL.c ****                     {
1607:Generated_Source\PSoC4/CapSense_CSHL.c ****                         pos     = maximum;
1608:Generated_Source\PSoC4/CapSense_CSHL.c ****                         posPrev = maximum - 1u;
1609:Generated_Source\PSoC4/CapSense_CSHL.c ****                         posNext = maximum + 1u;
1610:Generated_Source\PSoC4/CapSense_CSHL.c ****                     }
1611:Generated_Source\PSoC4/CapSense_CSHL.c ****                     else
1612:Generated_Source\PSoC4/CapSense_CSHL.c ****                     {
1613:Generated_Source\PSoC4/CapSense_CSHL.c ****                         pos     = diplex[maximum];
1614:Generated_Source\PSoC4/CapSense_CSHL.c ****                         posPrev = diplex[maximum - 1u];
1615:Generated_Source\PSoC4/CapSense_CSHL.c ****                         posNext = diplex[maximum + 1u];
1616:Generated_Source\PSoC4/CapSense_CSHL.c ****                         count <<= 1u;
1617:Generated_Source\PSoC4/CapSense_CSHL.c ****                     }
1618:Generated_Source\PSoC4/CapSense_CSHL.c ****                 #elif (CapSense_IS_DIPLEX_SLIDER)
1619:Generated_Source\PSoC4/CapSense_CSHL.c ****                     /* Calculate next and previous near to maximum */
1620:Generated_Source\PSoC4/CapSense_CSHL.c ****                     pos     = diplex[maximum];
1621:Generated_Source\PSoC4/CapSense_CSHL.c ****                     posPrev = diplex[maximum - 1u];
1622:Generated_Source\PSoC4/CapSense_CSHL.c ****                     posNext = diplex[maximum + 1u];
1623:Generated_Source\PSoC4/CapSense_CSHL.c ****                     count <<= 1u;
1624:Generated_Source\PSoC4/CapSense_CSHL.c ****                 #else
1625:Generated_Source\PSoC4/CapSense_CSHL.c ****                     /* Calculate next and previous near to maximum */
1626:Generated_Source\PSoC4/CapSense_CSHL.c ****                     if (maximum >= 1u)
 810              		.loc 1 1626 0
 811 0014 002C     		cmp	r4, #0
 812 0016 02D0     		beq	.L72
1627:Generated_Source\PSoC4/CapSense_CSHL.c ****                     {
ARM GAS  C:\Users\SHOZO\AppData\Local\Temp\ccsrjLaI.s 			page 44


1628:Generated_Source\PSoC4/CapSense_CSHL.c ****                         posPrev = maximum - 1u;
 813              		.loc 1 1628 0
 814 0018 661E     		subs	r6, r4, #1
 815 001a F6B2     		uxtb	r6, r6
 816              	.LVL89:
 817 001c 00E0     		b	.L64
 818              	.LVL90:
 819              	.L72:
1566:Generated_Source\PSoC4/CapSense_CSHL.c ****         #endif /* ((CapSense_TOTAL_LINEAR_SLIDERS_COUNT>0u) || (CapSense_TOTAL_TOUCH_PADS_BASIC_COU
 820              		.loc 1 1566 0
 821 001e 0026     		movs	r6, #0
 822              	.LVL91:
 823              	.L64:
1629:Generated_Source\PSoC4/CapSense_CSHL.c ****                     }
1630:Generated_Source\PSoC4/CapSense_CSHL.c ****                     posNext = maximum + 1u;
 824              		.loc 1 1630 0
 825 0020 631C     		adds	r3, r4, #1
 826 0022 DDB2     		uxtb	r5, r3
 827              	.LVL92:
1631:Generated_Source\PSoC4/CapSense_CSHL.c ****                 #endif /* (CapSense_IS_DIPLEX_SLIDER && CapSense_IS_NON_DIPLEX_SLIDER) */
1632:Generated_Source\PSoC4/CapSense_CSHL.c **** 
1633:Generated_Source\PSoC4/CapSense_CSHL.c ****                 /* Copy Signal to the centroid array */
1634:Generated_Source\PSoC4/CapSense_CSHL.c ****                 #if (CapSense_IS_DIPLEX_SLIDER)
1635:Generated_Source\PSoC4/CapSense_CSHL.c ****                     CapSense_centroid[CapSense_POS] = startOfSlider[pos];
1636:Generated_Source\PSoC4/CapSense_CSHL.c ****                 #else
1637:Generated_Source\PSoC4/CapSense_CSHL.c ****                     CapSense_centroid[CapSense_POS] = startOfSlider[maximum];
 828              		.loc 1 1637 0
 829 0024 0B5D     		ldrb	r3, [r1, r4]
 830 0026 9C46     		mov	ip, r3
 831 0028 2D4B     		ldr	r3, .L73
 832 002a 2433     		adds	r3, r3, #36
 833 002c 6246     		mov	r2, ip
 834              	.LVL93:
 835 002e 5A70     		strb	r2, [r3, #1]
1638:Generated_Source\PSoC4/CapSense_CSHL.c ****                 #endif /* (CapSense_IS_DIPLEX_SLIDER) */
1639:Generated_Source\PSoC4/CapSense_CSHL.c **** 
1640:Generated_Source\PSoC4/CapSense_CSHL.c ****                 /* Check borders for LINEAR Slider */
1641:Generated_Source\PSoC4/CapSense_CSHL.c ****                 if (maximum == 0u)                   /* Start of centroid */
 836              		.loc 1 1641 0
 837 0030 002C     		cmp	r4, #0
 838 0032 07D1     		bne	.L65
1642:Generated_Source\PSoC4/CapSense_CSHL.c ****                 {
1643:Generated_Source\PSoC4/CapSense_CSHL.c ****                     CapSense_centroid[CapSense_POS_PREV] = 0u;
 839              		.loc 1 1643 0
 840 0034 2A4B     		ldr	r3, .L73
 841 0036 0026     		movs	r6, #0
 842              	.LVL94:
 843 0038 2422     		movs	r2, #36
 844 003a 9E54     		strb	r6, [r3, r2]
1644:Generated_Source\PSoC4/CapSense_CSHL.c ****                     CapSense_centroid[CapSense_POS_NEXT] = startOfSlider[posNext];
 845              		.loc 1 1644 0
 846 003c 4A5D     		ldrb	r2, [r1, r5]
 847 003e 2433     		adds	r3, r3, #36
 848 0040 9A70     		strb	r2, [r3, #2]
 849 0042 12E0     		b	.L66
 850              	.LVL95:
 851              	.L65:
ARM GAS  C:\Users\SHOZO\AppData\Local\Temp\ccsrjLaI.s 			page 45


1645:Generated_Source\PSoC4/CapSense_CSHL.c ****                 }
1646:Generated_Source\PSoC4/CapSense_CSHL.c ****                 else if (maximum == ((count) - 1u)) /* End of centroid */
 852              		.loc 1 1646 0
 853 0044 019A     		ldr	r2, [sp, #4]
 854 0046 013A     		subs	r2, r2, #1
 855 0048 9442     		cmp	r4, r2
 856 004a 07D1     		bne	.L67
1647:Generated_Source\PSoC4/CapSense_CSHL.c ****                 {
1648:Generated_Source\PSoC4/CapSense_CSHL.c ****                     CapSense_centroid[CapSense_POS_PREV] = startOfSlider[posPrev];
 857              		.loc 1 1648 0
 858 004c 895D     		ldrb	r1, [r1, r6]
 859              	.LVL96:
 860 004e 244B     		ldr	r3, .L73
 861 0050 2422     		movs	r2, #36
 862 0052 9954     		strb	r1, [r3, r2]
1649:Generated_Source\PSoC4/CapSense_CSHL.c ****                     CapSense_centroid[CapSense_POS_NEXT] = 0u;
 863              		.loc 1 1649 0
 864 0054 2433     		adds	r3, r3, #36
 865 0056 0022     		movs	r2, #0
 866 0058 9A70     		strb	r2, [r3, #2]
 867 005a 06E0     		b	.L66
 868              	.LVL97:
 869              	.L67:
1650:Generated_Source\PSoC4/CapSense_CSHL.c ****                 }
1651:Generated_Source\PSoC4/CapSense_CSHL.c ****                 else                                /* Not first Not last */
1652:Generated_Source\PSoC4/CapSense_CSHL.c ****                 {
1653:Generated_Source\PSoC4/CapSense_CSHL.c ****                     CapSense_centroid[CapSense_POS_PREV] = startOfSlider[posPrev];
 870              		.loc 1 1653 0
 871 005c 8E5D     		ldrb	r6, [r1, r6]
 872              	.LVL98:
 873 005e 204B     		ldr	r3, .L73
 874 0060 2422     		movs	r2, #36
 875 0062 9E54     		strb	r6, [r3, r2]
1654:Generated_Source\PSoC4/CapSense_CSHL.c ****                     CapSense_centroid[CapSense_POS_NEXT] = startOfSlider[posNext];
 876              		.loc 1 1654 0
 877 0064 4A5D     		ldrb	r2, [r1, r5]
 878 0066 2433     		adds	r3, r3, #36
 879 0068 9A70     		strb	r2, [r3, #2]
 880              	.LVL99:
 881              	.L66:
1655:Generated_Source\PSoC4/CapSense_CSHL.c ****                 }
1656:Generated_Source\PSoC4/CapSense_CSHL.c ****             #endif /* ((CapSense_TOTAL_LINEAR_SLIDERS_COUNT>0u)||(CapSense_TOTAL_TOUCH_PADS_BASIC_C
1657:Generated_Source\PSoC4/CapSense_CSHL.c **** 
1658:Generated_Source\PSoC4/CapSense_CSHL.c ****         #if (CapSense_ADD_SLIDER_TYPE)
1659:Generated_Source\PSoC4/CapSense_CSHL.c ****             }
1660:Generated_Source\PSoC4/CapSense_CSHL.c ****         #endif /* (CapSense_ADD_SLIDER_TYPE) */
1661:Generated_Source\PSoC4/CapSense_CSHL.c **** 
1662:Generated_Source\PSoC4/CapSense_CSHL.c ****         /* Subtract noiseThreshold */
1663:Generated_Source\PSoC4/CapSense_CSHL.c ****         if(CapSense_centroid[CapSense_POS_PREV] > noiseThreshold)
 882              		.loc 1 1663 0
 883 006a 2423     		movs	r3, #36
 884 006c 1C4A     		ldr	r2, .L73
 885 006e D35C     		ldrb	r3, [r2, r3]
 886 0070 8342     		cmp	r3, r0
 887 0072 04D9     		bls	.L68
1664:Generated_Source\PSoC4/CapSense_CSHL.c ****         {
1665:Generated_Source\PSoC4/CapSense_CSHL.c ****             CapSense_centroid[CapSense_POS_PREV] -= noiseThreshold;
ARM GAS  C:\Users\SHOZO\AppData\Local\Temp\ccsrjLaI.s 			page 46


 888              		.loc 1 1665 0
 889 0074 1B1A     		subs	r3, r3, r0
 890 0076 2422     		movs	r2, #36
 891 0078 1949     		ldr	r1, .L73
 892 007a 8B54     		strb	r3, [r1, r2]
 893 007c 03E0     		b	.L69
 894              	.L68:
1666:Generated_Source\PSoC4/CapSense_CSHL.c ****         }
1667:Generated_Source\PSoC4/CapSense_CSHL.c ****         else
1668:Generated_Source\PSoC4/CapSense_CSHL.c ****         {
1669:Generated_Source\PSoC4/CapSense_CSHL.c ****             CapSense_centroid[CapSense_POS_PREV] = 0u;
 895              		.loc 1 1669 0
 896 007e 0021     		movs	r1, #0
 897 0080 2423     		movs	r3, #36
 898 0082 174A     		ldr	r2, .L73
 899 0084 D154     		strb	r1, [r2, r3]
 900              	.L69:
1670:Generated_Source\PSoC4/CapSense_CSHL.c ****         }
1671:Generated_Source\PSoC4/CapSense_CSHL.c **** 
1672:Generated_Source\PSoC4/CapSense_CSHL.c ****         /* Maximum always greater than fingerThreshold, so greater than noiseThreshold */
1673:Generated_Source\PSoC4/CapSense_CSHL.c ****         CapSense_centroid[CapSense_POS] -= noiseThreshold;
 901              		.loc 1 1673 0
 902 0086 164A     		ldr	r2, .L73
 903 0088 2432     		adds	r2, r2, #36
 904 008a 5378     		ldrb	r3, [r2, #1]
 905 008c 1B1A     		subs	r3, r3, r0
 906 008e DBB2     		uxtb	r3, r3
 907 0090 5370     		strb	r3, [r2, #1]
1674:Generated_Source\PSoC4/CapSense_CSHL.c **** 
1675:Generated_Source\PSoC4/CapSense_CSHL.c ****         /* Subtract noiseThreshold */
1676:Generated_Source\PSoC4/CapSense_CSHL.c ****         if(CapSense_centroid[CapSense_POS_NEXT] > noiseThreshold)
 908              		.loc 1 1676 0
 909 0092 9278     		ldrb	r2, [r2, #2]
 910 0094 9042     		cmp	r0, r2
 911 0096 04D2     		bcs	.L70
1677:Generated_Source\PSoC4/CapSense_CSHL.c ****         {
1678:Generated_Source\PSoC4/CapSense_CSHL.c ****             CapSense_centroid[CapSense_POS_NEXT] -= noiseThreshold;
 912              		.loc 1 1678 0
 913 0098 101A     		subs	r0, r2, r0
 914 009a 114A     		ldr	r2, .L73
 915 009c 2432     		adds	r2, r2, #36
 916 009e 9070     		strb	r0, [r2, #2]
 917 00a0 03E0     		b	.L71
 918              	.L70:
1679:Generated_Source\PSoC4/CapSense_CSHL.c ****         }
1680:Generated_Source\PSoC4/CapSense_CSHL.c ****         else
1681:Generated_Source\PSoC4/CapSense_CSHL.c ****         {
1682:Generated_Source\PSoC4/CapSense_CSHL.c ****             CapSense_centroid[CapSense_POS_NEXT] = 0u;
 919              		.loc 1 1682 0
 920 00a2 0021     		movs	r1, #0
 921 00a4 0E4A     		ldr	r2, .L73
 922 00a6 2432     		adds	r2, r2, #36
 923 00a8 9170     		strb	r1, [r2, #2]
 924              	.L71:
1683:Generated_Source\PSoC4/CapSense_CSHL.c ****         }
1684:Generated_Source\PSoC4/CapSense_CSHL.c **** 
1685:Generated_Source\PSoC4/CapSense_CSHL.c **** 
ARM GAS  C:\Users\SHOZO\AppData\Local\Temp\ccsrjLaI.s 			page 47


1686:Generated_Source\PSoC4/CapSense_CSHL.c ****         /* Si+1 - Si-1 */
1687:Generated_Source\PSoC4/CapSense_CSHL.c ****         numerator = (uint32) CapSense_centroid[CapSense_POS_NEXT] -
 925              		.loc 1 1687 0
 926 00aa 0D49     		ldr	r1, .L73
 927 00ac 0A00     		movs	r2, r1
 928 00ae 2432     		adds	r2, r2, #36
 929 00b0 9278     		ldrb	r2, [r2, #2]
1688:Generated_Source\PSoC4/CapSense_CSHL.c ****                     (uint32) CapSense_centroid[CapSense_POS_PREV];
 930              		.loc 1 1688 0
 931 00b2 2420     		movs	r0, #36
 932 00b4 095C     		ldrb	r1, [r1, r0]
1687:Generated_Source\PSoC4/CapSense_CSHL.c ****                     (uint32) CapSense_centroid[CapSense_POS_PREV];
 933              		.loc 1 1687 0
 934 00b6 501A     		subs	r0, r2, r1
 935              	.LVL100:
1689:Generated_Source\PSoC4/CapSense_CSHL.c **** 
1690:Generated_Source\PSoC4/CapSense_CSHL.c ****         /* Si+1 + Si + Si-1 */
1691:Generated_Source\PSoC4/CapSense_CSHL.c ****         denominator = (int32) CapSense_centroid[CapSense_POS_PREV] +
 936              		.loc 1 1691 0
 937 00b8 C918     		adds	r1, r1, r3
 938 00ba 8918     		adds	r1, r1, r2
 939              	.LVL101:
1692:Generated_Source\PSoC4/CapSense_CSHL.c ****                       (int32) CapSense_centroid[CapSense_POS] +
1693:Generated_Source\PSoC4/CapSense_CSHL.c ****                       (int32) CapSense_centroid[CapSense_POS_NEXT];
1694:Generated_Source\PSoC4/CapSense_CSHL.c **** 
1695:Generated_Source\PSoC4/CapSense_CSHL.c ****         /* (numerator/denominator) + maximum */
1696:Generated_Source\PSoC4/CapSense_CSHL.c ****         denominator = (((int32)(uint32)((uint32)numerator << 8u)/denominator) + (int32)(uint32)((ui
 940              		.loc 1 1696 0
 941 00bc 0002     		lsls	r0, r0, #8
 942              	.LVL102:
 943 00be FFF7FEFF 		bl	__aeabi_idiv
 944              	.LVL103:
 945 00c2 2402     		lsls	r4, r4, #8
 946 00c4 0019     		adds	r0, r0, r4
 947              	.LVL104:
1697:Generated_Source\PSoC4/CapSense_CSHL.c **** 
1698:Generated_Source\PSoC4/CapSense_CSHL.c ****         #if(CapSense_TOTAL_RADIAL_SLIDERS_COUNT > 0u)
1699:Generated_Source\PSoC4/CapSense_CSHL.c ****             /* Only required for RADIAL Slider */
1700:Generated_Source\PSoC4/CapSense_CSHL.c ****             if(denominator < 0)
1701:Generated_Source\PSoC4/CapSense_CSHL.c ****             {
1702:Generated_Source\PSoC4/CapSense_CSHL.c ****                 denominator += (int32)((uint16)((uint16) count << 8u));
1703:Generated_Source\PSoC4/CapSense_CSHL.c ****             }
1704:Generated_Source\PSoC4/CapSense_CSHL.c ****         #endif /* (CapSense_TOTAL_RADIAL_SLIDERS_COUNT > 0u) */
1705:Generated_Source\PSoC4/CapSense_CSHL.c **** 
1706:Generated_Source\PSoC4/CapSense_CSHL.c ****         denominator *= (int16)resolution;
 948              		.loc 1 1706 0
 949 00c6 6B46     		mov	r3, sp
 950 00c8 0025     		movs	r5, #0
 951 00ca 5D5F     		ldrsh	r5, [r3, r5]
 952              	.LVL105:
 953 00cc 6843     		muls	r0, r5
 954              	.LVL106:
1707:Generated_Source\PSoC4/CapSense_CSHL.c **** 
1708:Generated_Source\PSoC4/CapSense_CSHL.c ****         /* Round result and put it to uint8 */
1709:Generated_Source\PSoC4/CapSense_CSHL.c ****         position = ((uint8) HI16((uint32)denominator + CapSense_CENTROID_ROUND_VALUE));
 955              		.loc 1 1709 0
 956 00ce FE23     		movs	r3, #254
ARM GAS  C:\Users\SHOZO\AppData\Local\Temp\ccsrjLaI.s 			page 48


 957 00d0 DB01     		lsls	r3, r3, #7
 958 00d2 9C46     		mov	ip, r3
 959 00d4 6044     		add	r0, r0, ip
 960              	.LVL107:
 961 00d6 000C     		lsrs	r0, r0, #16
 962              	.LVL108:
 963 00d8 C0B2     		uxtb	r0, r0
 964              	.LVL109:
1710:Generated_Source\PSoC4/CapSense_CSHL.c **** 
1711:Generated_Source\PSoC4/CapSense_CSHL.c ****         return (position);
1712:Generated_Source\PSoC4/CapSense_CSHL.c ****     }
 965              		.loc 1 1712 0
 966 00da 03B0     		add	sp, sp, #12
 967              		@ sp needed
 968 00dc F0BD     		pop	{r4, r5, r6, r7, pc}
 969              	.L74:
 970 00de C046     		.align	2
 971              	.L73:
 972 00e0 00000000 		.word	.LANCHOR0
 973              		.cfi_endproc
 974              	.LFE54:
 975              		.size	CapSense_CalcCentroid, .-CapSense_CalcCentroid
 976              		.section	.text.CapSense_GetRadialCentroidPos,"ax",%progbits
 977              		.align	2
 978              		.global	CapSense_GetRadialCentroidPos
 979              		.code	16
 980              		.thumb_func
 981              		.type	CapSense_GetRadialCentroidPos, %function
 982              	CapSense_GetRadialCentroidPos:
 983              	.LFB56:
1713:Generated_Source\PSoC4/CapSense_CSHL.c **** #endif /* (CapSense_TOTAL_CENTROIDS_BASIC_COUNT) */
1714:Generated_Source\PSoC4/CapSense_CSHL.c **** 
1715:Generated_Source\PSoC4/CapSense_CSHL.c **** 
1716:Generated_Source\PSoC4/CapSense_CSHL.c **** #if((CapSense_TOTAL_RADIAL_SLIDERS_COUNT > 0u) || (CapSense_TOTAL_LINEAR_SLIDERS_COUNT > 0u))
1717:Generated_Source\PSoC4/CapSense_CSHL.c ****     /*******************************************************************************
1718:Generated_Source\PSoC4/CapSense_CSHL.c ****     * Function Name: CapSense_GetCentroidPos
1719:Generated_Source\PSoC4/CapSense_CSHL.c ****     ********************************************************************************
1720:Generated_Source\PSoC4/CapSense_CSHL.c ****     *
1721:Generated_Source\PSoC4/CapSense_CSHL.c ****     * Summary:
1722:Generated_Source\PSoC4/CapSense_CSHL.c ****     *  Checks the CapSense_Signal[ ] array for a centroid within
1723:Generated_Source\PSoC4/CapSense_CSHL.c ****     *  a slider specified range. The centroid position is calculated according to the resolution
1724:Generated_Source\PSoC4/CapSense_CSHL.c ****     *  specified in the CapSense customizer. The position filters are applied to the
1725:Generated_Source\PSoC4/CapSense_CSHL.c ****     *  result if enabled.
1726:Generated_Source\PSoC4/CapSense_CSHL.c ****     *
1727:Generated_Source\PSoC4/CapSense_CSHL.c ****     * Parameters:
1728:Generated_Source\PSoC4/CapSense_CSHL.c ****     *  widget:  Widget number.
1729:Generated_Source\PSoC4/CapSense_CSHL.c ****     *  For every linear slider widget there are defines in this format:
1730:Generated_Source\PSoC4/CapSense_CSHL.c ****     *  #define CapSense_"widget_name"__LS           5
1731:Generated_Source\PSoC4/CapSense_CSHL.c ****     *
1732:Generated_Source\PSoC4/CapSense_CSHL.c ****     * Return:
1733:Generated_Source\PSoC4/CapSense_CSHL.c ****     *  Returns a position value of the linear slider.
1734:Generated_Source\PSoC4/CapSense_CSHL.c ****     *
1735:Generated_Source\PSoC4/CapSense_CSHL.c ****     * Global Variables:
1736:Generated_Source\PSoC4/CapSense_CSHL.c ****     *  None
1737:Generated_Source\PSoC4/CapSense_CSHL.c ****     *
1738:Generated_Source\PSoC4/CapSense_CSHL.c ****     * Side Effects:
1739:Generated_Source\PSoC4/CapSense_CSHL.c ****     *  If any sensor within the slider widget is active, the function returns values
ARM GAS  C:\Users\SHOZO\AppData\Local\Temp\ccsrjLaI.s 			page 49


1740:Generated_Source\PSoC4/CapSense_CSHL.c ****     *  from zero to the API resolution value set in the CapSense customizer. If no
1741:Generated_Source\PSoC4/CapSense_CSHL.c ****     *  sensors are active, the function returns 0xFFFF. If an error occurs during
1742:Generated_Source\PSoC4/CapSense_CSHL.c ****     *  execution of the centroid/diplexing algorithm, the function returns 0xFFFF.
1743:Generated_Source\PSoC4/CapSense_CSHL.c ****     *  There are no checks of the widget type argument provided to this function.
1744:Generated_Source\PSoC4/CapSense_CSHL.c ****     *  The unproper widget type provided will cause unexpected position calculations.
1745:Generated_Source\PSoC4/CapSense_CSHL.c ****     *
1746:Generated_Source\PSoC4/CapSense_CSHL.c ****     * Note:
1747:Generated_Source\PSoC4/CapSense_CSHL.c ****     *  If noise counts on the slider segments are greater than the noise
1748:Generated_Source\PSoC4/CapSense_CSHL.c ****     *  threshold, this subroutine may generate a false centroid result. The noise
1749:Generated_Source\PSoC4/CapSense_CSHL.c ****     *  threshold should be set carefully (high enough above the noise level) so
1750:Generated_Source\PSoC4/CapSense_CSHL.c ****     *  that noise will not generate a false centroid.
1751:Generated_Source\PSoC4/CapSense_CSHL.c ****     *******************************************************************************/
1752:Generated_Source\PSoC4/CapSense_CSHL.c ****     uint16 CapSense_GetCentroidPos(uint32 widget)
1753:Generated_Source\PSoC4/CapSense_CSHL.c ****     {
1754:Generated_Source\PSoC4/CapSense_CSHL.c ****         #if (CapSense_IS_DIPLEX_SLIDER)
1755:Generated_Source\PSoC4/CapSense_CSHL.c ****             const uint8 *diplex;
1756:Generated_Source\PSoC4/CapSense_CSHL.c ****         #endif /* (CapSense_IS_DIPLEX_SLIDER) */
1757:Generated_Source\PSoC4/CapSense_CSHL.c **** 
1758:Generated_Source\PSoC4/CapSense_CSHL.c ****         #if (0u != CapSense_LINEAR_SLIDERS_POS_FILTERS_MASK)
1759:Generated_Source\PSoC4/CapSense_CSHL.c ****             uint8 posIndex;
1760:Generated_Source\PSoC4/CapSense_CSHL.c ****             uint8 firstTimeIndex = CapSense_posFiltersData[widget];
1761:Generated_Source\PSoC4/CapSense_CSHL.c ****             uint8 posFiltersMask = CapSense_posFiltersMask[widget];
1762:Generated_Source\PSoC4/CapSense_CSHL.c ****         #endif /* (0u != CapSense_LINEAR_SLIDERS_POS_FILTERS_MASK) */
1763:Generated_Source\PSoC4/CapSense_CSHL.c **** 
1764:Generated_Source\PSoC4/CapSense_CSHL.c ****         #if ((0u != (CapSense_MEDIAN_FILTER & CapSense_LINEAR_SLIDERS_POS_FILTERS_MASK)) || \
1765:Generated_Source\PSoC4/CapSense_CSHL.c ****              (0u != (CapSense_AVERAGING_FILTER & CapSense_LINEAR_SLIDERS_POS_FILTERS_MASK)))
1766:Generated_Source\PSoC4/CapSense_CSHL.c ****             uint8 tempPos;
1767:Generated_Source\PSoC4/CapSense_CSHL.c ****         #endif /* ((0u != (CapSense_MEDIAN_FILTER & CapSense_LINEAR_SLIDERS_POS_FILTERS_MASK)) || \
1768:Generated_Source\PSoC4/CapSense_CSHL.c ****                *   (0u != (CapSense_AVERAGING_FILTER & CapSense_LINEAR_SLIDERS_POS_FILTERS_MASK)))
1769:Generated_Source\PSoC4/CapSense_CSHL.c ****                */
1770:Generated_Source\PSoC4/CapSense_CSHL.c **** 
1771:Generated_Source\PSoC4/CapSense_CSHL.c ****         uint8 maximum;
1772:Generated_Source\PSoC4/CapSense_CSHL.c ****         uint16 position;
1773:Generated_Source\PSoC4/CapSense_CSHL.c ****         uint8 offset = CapSense_rawDataIndex[widget];
1774:Generated_Source\PSoC4/CapSense_CSHL.c ****         uint8 count = CapSense_numberOfSensors[widget];
1775:Generated_Source\PSoC4/CapSense_CSHL.c **** 
1776:Generated_Source\PSoC4/CapSense_CSHL.c ****         #if (CapSense_IS_DIPLEX_SLIDER)
1777:Generated_Source\PSoC4/CapSense_CSHL.c ****             if(widget < CapSense_TOTAL_DIPLEXED_SLIDERS_COUNT)
1778:Generated_Source\PSoC4/CapSense_CSHL.c ****             {
1779:Generated_Source\PSoC4/CapSense_CSHL.c ****                 maximum = CapSense_diplexTable[widget];
1780:Generated_Source\PSoC4/CapSense_CSHL.c ****                 diplex = &CapSense_diplexTable[maximum];
1781:Generated_Source\PSoC4/CapSense_CSHL.c ****             }
1782:Generated_Source\PSoC4/CapSense_CSHL.c ****             else
1783:Generated_Source\PSoC4/CapSense_CSHL.c ****             {
1784:Generated_Source\PSoC4/CapSense_CSHL.c ****                 diplex = 0u;
1785:Generated_Source\PSoC4/CapSense_CSHL.c ****             }
1786:Generated_Source\PSoC4/CapSense_CSHL.c ****         #endif /* (CapSense_IS_DIPLEX_SLIDER) */
1787:Generated_Source\PSoC4/CapSense_CSHL.c **** 
1788:Generated_Source\PSoC4/CapSense_CSHL.c ****         /* Find Maximum within centroid */
1789:Generated_Source\PSoC4/CapSense_CSHL.c ****         #if (CapSense_IS_DIPLEX_SLIDER)
1790:Generated_Source\PSoC4/CapSense_CSHL.c ****             maximum = CapSense_FindMaximum(offset, count, (uint8)CapSense_fingerThreshold[widget], 
1791:Generated_Source\PSoC4/CapSense_CSHL.c ****         #else
1792:Generated_Source\PSoC4/CapSense_CSHL.c ****             maximum = CapSense_FindMaximum(offset, count, (uint8)CapSense_fingerThreshold[widget]);
1793:Generated_Source\PSoC4/CapSense_CSHL.c ****         #endif /* (CapSense_IS_DIPLEX_SLIDER) */
1794:Generated_Source\PSoC4/CapSense_CSHL.c **** 
1795:Generated_Source\PSoC4/CapSense_CSHL.c ****         if (maximum != 0xFFu)
1796:Generated_Source\PSoC4/CapSense_CSHL.c ****         {
ARM GAS  C:\Users\SHOZO\AppData\Local\Temp\ccsrjLaI.s 			page 50


1797:Generated_Source\PSoC4/CapSense_CSHL.c ****             /* Calculate centroid */
1798:Generated_Source\PSoC4/CapSense_CSHL.c ****             position = (uint16) CapSense_CalcCentroid(maximum,
1799:Generated_Source\PSoC4/CapSense_CSHL.c ****                          offset, count, CapSense_centroidMult[widget], CapSense_noiseThreshold[widg
1800:Generated_Source\PSoC4/CapSense_CSHL.c **** 
1801:Generated_Source\PSoC4/CapSense_CSHL.c ****             #if (0u != CapSense_LINEAR_SLIDERS_POS_FILTERS_MASK)
1802:Generated_Source\PSoC4/CapSense_CSHL.c ****                 /* Check if this linear slider has enabled filters */
1803:Generated_Source\PSoC4/CapSense_CSHL.c ****                 if (0u != (posFiltersMask & CapSense_ANY_POS_FILTER))
1804:Generated_Source\PSoC4/CapSense_CSHL.c ****                 {
1805:Generated_Source\PSoC4/CapSense_CSHL.c ****                     /* Calculate position to store filters data */
1806:Generated_Source\PSoC4/CapSense_CSHL.c ****                     posIndex  = firstTimeIndex + 1u;
1807:Generated_Source\PSoC4/CapSense_CSHL.c **** 
1808:Generated_Source\PSoC4/CapSense_CSHL.c ****                     if (0u == CapSense_posFiltersData[firstTimeIndex])
1809:Generated_Source\PSoC4/CapSense_CSHL.c ****                     {
1810:Generated_Source\PSoC4/CapSense_CSHL.c ****                         /* Init filters */
1811:Generated_Source\PSoC4/CapSense_CSHL.c ****                         CapSense_posFiltersData[posIndex] = (uint8) position;
1812:Generated_Source\PSoC4/CapSense_CSHL.c ****                         #if ((0u != (CapSense_MEDIAN_FILTER & \
1813:Generated_Source\PSoC4/CapSense_CSHL.c ****                                      CapSense_LINEAR_SLIDERS_POS_FILTERS_MASK)) || \
1814:Generated_Source\PSoC4/CapSense_CSHL.c ****                              (0u != (CapSense_AVERAGING_FILTER & \
1815:Generated_Source\PSoC4/CapSense_CSHL.c ****                                      CapSense_LINEAR_SLIDERS_POS_FILTERS_MASK)))
1816:Generated_Source\PSoC4/CapSense_CSHL.c **** 
1817:Generated_Source\PSoC4/CapSense_CSHL.c ****                             if ( (0u != (posFiltersMask & CapSense_MEDIAN_FILTER)) ||
1818:Generated_Source\PSoC4/CapSense_CSHL.c ****                                  (0u != (posFiltersMask & CapSense_AVERAGING_FILTER)) )
1819:Generated_Source\PSoC4/CapSense_CSHL.c ****                             {
1820:Generated_Source\PSoC4/CapSense_CSHL.c ****                                 CapSense_posFiltersData[posIndex + 1u] = (uint8) position;
1821:Generated_Source\PSoC4/CapSense_CSHL.c ****                             }
1822:Generated_Source\PSoC4/CapSense_CSHL.c ****                         #endif /* ((0u != (CapSense_MEDIAN_FILTER & \
1823:Generated_Source\PSoC4/CapSense_CSHL.c ****                                *           CapSense_LINEAR_SLIDERS_POS_FILTERS_MASK)) || \
1824:Generated_Source\PSoC4/CapSense_CSHL.c ****                                *   (0u != (CapSense_AVERAGING_FILTER & \
1825:Generated_Source\PSoC4/CapSense_CSHL.c ****                                *           CapSense_LINEAR_SLIDERS_POS_FILTERS_MASK)))
1826:Generated_Source\PSoC4/CapSense_CSHL.c ****                                */
1827:Generated_Source\PSoC4/CapSense_CSHL.c **** 
1828:Generated_Source\PSoC4/CapSense_CSHL.c ****                         CapSense_posFiltersData[firstTimeIndex] = 1u;
1829:Generated_Source\PSoC4/CapSense_CSHL.c ****                     }
1830:Generated_Source\PSoC4/CapSense_CSHL.c ****                     else
1831:Generated_Source\PSoC4/CapSense_CSHL.c ****                     {
1832:Generated_Source\PSoC4/CapSense_CSHL.c ****                         /* Do filtering */
1833:Generated_Source\PSoC4/CapSense_CSHL.c ****                         #if (0u != (CapSense_MEDIAN_FILTER & CapSense_LINEAR_SLIDERS_POS_FILTERS_MA
1834:Generated_Source\PSoC4/CapSense_CSHL.c ****                             if (0u != (posFiltersMask & CapSense_MEDIAN_FILTER))
1835:Generated_Source\PSoC4/CapSense_CSHL.c ****                             {
1836:Generated_Source\PSoC4/CapSense_CSHL.c ****                                 tempPos = (uint8) position;
1837:Generated_Source\PSoC4/CapSense_CSHL.c ****                                 position = CapSense_MedianFilter(position,
1838:Generated_Source\PSoC4/CapSense_CSHL.c ****                                                                 (uint16)CapSense_posFiltersData[pos
1839:Generated_Source\PSoC4/CapSense_CSHL.c ****                                                                 (uint16)CapSense_posFiltersData[pos
1840:Generated_Source\PSoC4/CapSense_CSHL.c ****                                 CapSense_posFiltersData[posIndex + 1u] =
1841:Generated_Source\PSoC4/CapSense_CSHL.c ****                                                                              CapSense_posFiltersDat
1842:Generated_Source\PSoC4/CapSense_CSHL.c ****                                 CapSense_posFiltersData[posIndex] = tempPos;
1843:Generated_Source\PSoC4/CapSense_CSHL.c ****                             }
1844:Generated_Source\PSoC4/CapSense_CSHL.c ****                         #endif /*(0u != (CapSense_MEDIAN_FILTER &
1845:Generated_Source\PSoC4/CapSense_CSHL.c ****                                *         CapSense_LINEAR_SLIDERS_POS_FILTERS_MASK))
1846:Generated_Source\PSoC4/CapSense_CSHL.c ****                                */
1847:Generated_Source\PSoC4/CapSense_CSHL.c **** 
1848:Generated_Source\PSoC4/CapSense_CSHL.c ****                         #if(0u!=(CapSense_AVERAGING_FILTER & CapSense_LINEAR_SLIDERS_POS_FILTERS_MA
1849:Generated_Source\PSoC4/CapSense_CSHL.c ****                             if (0u != (posFiltersMask & CapSense_AVERAGING_FILTER))
1850:Generated_Source\PSoC4/CapSense_CSHL.c ****                             {
1851:Generated_Source\PSoC4/CapSense_CSHL.c ****                                 tempPos = (uint8) position;
1852:Generated_Source\PSoC4/CapSense_CSHL.c ****                                 position = CapSense_AveragingFilter(position,
1853:Generated_Source\PSoC4/CapSense_CSHL.c ****                                                                 (uint16)CapSense_posFiltersData[pos
ARM GAS  C:\Users\SHOZO\AppData\Local\Temp\ccsrjLaI.s 			page 51


1854:Generated_Source\PSoC4/CapSense_CSHL.c ****                                                                 (uint16)CapSense_posFiltersData[pos
1855:Generated_Source\PSoC4/CapSense_CSHL.c ****                                 CapSense_posFiltersData[posIndex+1u]=CapSense_posFiltersData[posInd
1856:Generated_Source\PSoC4/CapSense_CSHL.c ****                                 CapSense_posFiltersData[posIndex] = tempPos;
1857:Generated_Source\PSoC4/CapSense_CSHL.c ****                             }
1858:Generated_Source\PSoC4/CapSense_CSHL.c ****                         #endif /* (0u != (CapSense_AVERAGING_FILTER & \
1859:Generated_Source\PSoC4/CapSense_CSHL.c ****                                *           CapSense_LINEAR_SLIDERS_POS_FILTERS_MASK))
1860:Generated_Source\PSoC4/CapSense_CSHL.c ****                                */
1861:Generated_Source\PSoC4/CapSense_CSHL.c **** 
1862:Generated_Source\PSoC4/CapSense_CSHL.c ****                         #if (0u != (CapSense_IIR2_FILTER & CapSense_LINEAR_SLIDERS_POS_FILTERS_MASK
1863:Generated_Source\PSoC4/CapSense_CSHL.c ****                             if (0u != (posFiltersMask & CapSense_IIR2_FILTER))
1864:Generated_Source\PSoC4/CapSense_CSHL.c ****                             {
1865:Generated_Source\PSoC4/CapSense_CSHL.c ****                                 position = CapSense_IIR2Filter(position,
1866:Generated_Source\PSoC4/CapSense_CSHL.c ****                                                                     (uint16)CapSense_posFiltersData
1867:Generated_Source\PSoC4/CapSense_CSHL.c ****                                 CapSense_posFiltersData[posIndex] = (uint8) position;
1868:Generated_Source\PSoC4/CapSense_CSHL.c ****                             }
1869:Generated_Source\PSoC4/CapSense_CSHL.c ****                         #endif /* (0u != (CapSense_IIR2_FILTER & \
1870:Generated_Source\PSoC4/CapSense_CSHL.c ****                                *          CapSense_LINEAR_SLIDERS_POS_FILTERS_MASK))
1871:Generated_Source\PSoC4/CapSense_CSHL.c ****                                */
1872:Generated_Source\PSoC4/CapSense_CSHL.c **** 
1873:Generated_Source\PSoC4/CapSense_CSHL.c ****                         #if (0u != (CapSense_IIR4_FILTER & CapSense_LINEAR_SLIDERS_POS_FILTERS_MASK
1874:Generated_Source\PSoC4/CapSense_CSHL.c ****                             if (0u != (posFiltersMask & CapSense_IIR4_FILTER))
1875:Generated_Source\PSoC4/CapSense_CSHL.c ****                             {
1876:Generated_Source\PSoC4/CapSense_CSHL.c ****                                 position = CapSense_IIR4Filter(position,
1877:Generated_Source\PSoC4/CapSense_CSHL.c ****                                                                     (uint16)CapSense_posFiltersData
1878:Generated_Source\PSoC4/CapSense_CSHL.c ****                                 CapSense_posFiltersData[posIndex] = (uint8) position;
1879:Generated_Source\PSoC4/CapSense_CSHL.c ****                             }
1880:Generated_Source\PSoC4/CapSense_CSHL.c ****                         #endif /* (0u != (CapSense_IIR4_FILTER & \
1881:Generated_Source\PSoC4/CapSense_CSHL.c ****                                *          CapSense_LINEAR_SLIDERS_POS_FILTERS_MASK))
1882:Generated_Source\PSoC4/CapSense_CSHL.c ****                                */
1883:Generated_Source\PSoC4/CapSense_CSHL.c **** 
1884:Generated_Source\PSoC4/CapSense_CSHL.c ****                         #if (0u != (CapSense_JITTER_FILTER & CapSense_LINEAR_SLIDERS_POS_FILTERS_MA
1885:Generated_Source\PSoC4/CapSense_CSHL.c ****                             if (0u != (posFiltersMask & CapSense_JITTER_FILTER))
1886:Generated_Source\PSoC4/CapSense_CSHL.c ****                             {
1887:Generated_Source\PSoC4/CapSense_CSHL.c ****                                 position = CapSense_JitterFilter(position,
1888:Generated_Source\PSoC4/CapSense_CSHL.c ****                                                                     (uint16)CapSense_posFiltersData
1889:Generated_Source\PSoC4/CapSense_CSHL.c ****                                 CapSense_posFiltersData[posIndex] = (uint8) position;
1890:Generated_Source\PSoC4/CapSense_CSHL.c ****                             }
1891:Generated_Source\PSoC4/CapSense_CSHL.c ****                         #endif /* (0u != (CapSense_JITTER_FILTER & \
1892:Generated_Source\PSoC4/CapSense_CSHL.c ****                                *           CapSense_LINEAR_SLIDERS_POS_FILTERS_MASK))
1893:Generated_Source\PSoC4/CapSense_CSHL.c ****                                */
1894:Generated_Source\PSoC4/CapSense_CSHL.c ****                     }
1895:Generated_Source\PSoC4/CapSense_CSHL.c ****                 }
1896:Generated_Source\PSoC4/CapSense_CSHL.c ****             #endif /* (0u != CapSense_LINEAR_SLIDERS_POS_FILTERS_MASK) */
1897:Generated_Source\PSoC4/CapSense_CSHL.c **** 
1898:Generated_Source\PSoC4/CapSense_CSHL.c ****         }
1899:Generated_Source\PSoC4/CapSense_CSHL.c ****         else
1900:Generated_Source\PSoC4/CapSense_CSHL.c ****         {
1901:Generated_Source\PSoC4/CapSense_CSHL.c ****             /* Maximum wasn't found */
1902:Generated_Source\PSoC4/CapSense_CSHL.c ****             position = 0xFFFFu;
1903:Generated_Source\PSoC4/CapSense_CSHL.c **** 
1904:Generated_Source\PSoC4/CapSense_CSHL.c ****             #if(0u != CapSense_LINEAR_SLIDERS_POS_FILTERS_MASK)
1905:Generated_Source\PSoC4/CapSense_CSHL.c ****                 /* Reset filters */
1906:Generated_Source\PSoC4/CapSense_CSHL.c ****                 if(0u != (posFiltersMask & CapSense_ANY_POS_FILTER))
1907:Generated_Source\PSoC4/CapSense_CSHL.c ****                 {
1908:Generated_Source\PSoC4/CapSense_CSHL.c ****                     CapSense_posFiltersData[firstTimeIndex] = 0u;
1909:Generated_Source\PSoC4/CapSense_CSHL.c ****                 }
1910:Generated_Source\PSoC4/CapSense_CSHL.c ****             #endif /* (0u != CapSense_LINEAR_SLIDERS_POS_FILTERS_MASK) */
ARM GAS  C:\Users\SHOZO\AppData\Local\Temp\ccsrjLaI.s 			page 52


1911:Generated_Source\PSoC4/CapSense_CSHL.c ****         }
1912:Generated_Source\PSoC4/CapSense_CSHL.c **** 
1913:Generated_Source\PSoC4/CapSense_CSHL.c **** 
1914:Generated_Source\PSoC4/CapSense_CSHL.c ****         return (position);
1915:Generated_Source\PSoC4/CapSense_CSHL.c ****     }
1916:Generated_Source\PSoC4/CapSense_CSHL.c **** #endif /* ((CapSense_TOTAL_RADIAL_SLIDERS_COUNT > 0u) || (CapSense_TOTAL_LINEAR_SLIDERS_COUNT > 0u)
1917:Generated_Source\PSoC4/CapSense_CSHL.c **** 
1918:Generated_Source\PSoC4/CapSense_CSHL.c **** 
1919:Generated_Source\PSoC4/CapSense_CSHL.c **** #if((CapSense_TOTAL_RADIAL_SLIDERS_COUNT > 0u) || (CapSense_TOTAL_LINEAR_SLIDERS_COUNT > 0u))
1920:Generated_Source\PSoC4/CapSense_CSHL.c ****     /*******************************************************************************
1921:Generated_Source\PSoC4/CapSense_CSHL.c ****     * Function Name: CapSense_GetRadialCentroidPos
1922:Generated_Source\PSoC4/CapSense_CSHL.c ****     ********************************************************************************
1923:Generated_Source\PSoC4/CapSense_CSHL.c ****     *
1924:Generated_Source\PSoC4/CapSense_CSHL.c ****     * Summary:
1925:Generated_Source\PSoC4/CapSense_CSHL.c ****     *  Checks the CapSense_Signal[ ] array for a centroid within
1926:Generated_Source\PSoC4/CapSense_CSHL.c ****     *  a slider specified range. The centroid position is calculated according to the resolution
1927:Generated_Source\PSoC4/CapSense_CSHL.c ****     *  specified in the CapSense customizer. The position filters are applied to the
1928:Generated_Source\PSoC4/CapSense_CSHL.c ****     *  result if enabled.
1929:Generated_Source\PSoC4/CapSense_CSHL.c ****     *
1930:Generated_Source\PSoC4/CapSense_CSHL.c ****     * Parameters:
1931:Generated_Source\PSoC4/CapSense_CSHL.c ****     *  widget:  Widget number.
1932:Generated_Source\PSoC4/CapSense_CSHL.c ****     *  For every radial slider widget there are defines in this format:
1933:Generated_Source\PSoC4/CapSense_CSHL.c ****     *  #define CapSense_"widget_name"__RS           5
1934:Generated_Source\PSoC4/CapSense_CSHL.c ****     *
1935:Generated_Source\PSoC4/CapSense_CSHL.c ****     * Return:
1936:Generated_Source\PSoC4/CapSense_CSHL.c ****     *  Returns a position value of the radial slider.
1937:Generated_Source\PSoC4/CapSense_CSHL.c ****     *
1938:Generated_Source\PSoC4/CapSense_CSHL.c ****     * Global Variables:
1939:Generated_Source\PSoC4/CapSense_CSHL.c ****     *  None.
1940:Generated_Source\PSoC4/CapSense_CSHL.c ****     *
1941:Generated_Source\PSoC4/CapSense_CSHL.c ****     * Side Effects:
1942:Generated_Source\PSoC4/CapSense_CSHL.c ****     *  If any sensor within the slider widget is active, the function returns values
1943:Generated_Source\PSoC4/CapSense_CSHL.c ****     *  from zero to the API resolution value set in the CapSense customizer. If no
1944:Generated_Source\PSoC4/CapSense_CSHL.c ****     *  sensors are active, the function returns 0xFFFF.
1945:Generated_Source\PSoC4/CapSense_CSHL.c ****     *  There are no checks of the widget type argument provided to this function.
1946:Generated_Source\PSoC4/CapSense_CSHL.c ****     *  The unproper widget type provided will cause unexpected position calculations.
1947:Generated_Source\PSoC4/CapSense_CSHL.c ****     *
1948:Generated_Source\PSoC4/CapSense_CSHL.c ****     * Note:
1949:Generated_Source\PSoC4/CapSense_CSHL.c ****     *  If noise counts on the slider segments are greater than the noise
1950:Generated_Source\PSoC4/CapSense_CSHL.c ****     *  threshold, this subroutine may generate a false centroid result. The noise
1951:Generated_Source\PSoC4/CapSense_CSHL.c ****     *  threshold should be set carefully (high enough above the noise level) so
1952:Generated_Source\PSoC4/CapSense_CSHL.c ****     *  that noise will not generate a false centroid.
1953:Generated_Source\PSoC4/CapSense_CSHL.c ****     *
1954:Generated_Source\PSoC4/CapSense_CSHL.c ****     *******************************************************************************/
1955:Generated_Source\PSoC4/CapSense_CSHL.c ****      uint16 CapSense_GetRadialCentroidPos(uint32 widget)
1956:Generated_Source\PSoC4/CapSense_CSHL.c ****     {
 984              		.loc 1 1956 0
 985              		.cfi_startproc
 986              		@ args = 0, pretend = 0, frame = 0
 987              		@ frame_needed = 0, uses_anonymous_args = 0
 988              	.LVL110:
 989 0000 00B5     		push	{lr}
 990              		.cfi_def_cfa_offset 4
 991              		.cfi_offset 14, -4
 992 0002 83B0     		sub	sp, sp, #12
 993              		.cfi_def_cfa_offset 16
 994              	.LVL111:
ARM GAS  C:\Users\SHOZO\AppData\Local\Temp\ccsrjLaI.s 			page 53


1957:Generated_Source\PSoC4/CapSense_CSHL.c ****         #if (0u != CapSense_RADIAL_SLIDERS_POS_FILTERS_MASK)
1958:Generated_Source\PSoC4/CapSense_CSHL.c ****             uint8 posIndex;
1959:Generated_Source\PSoC4/CapSense_CSHL.c ****             uint8 firstTimeIndex = CapSense_posFiltersData[widget];
1960:Generated_Source\PSoC4/CapSense_CSHL.c ****             uint8 posFiltersMask = CapSense_posFiltersMask[widget];
1961:Generated_Source\PSoC4/CapSense_CSHL.c ****         #endif /* (0u != CapSense_RADIAL_SLIDERS_POS_FILTERS_MASK) */
1962:Generated_Source\PSoC4/CapSense_CSHL.c **** 
1963:Generated_Source\PSoC4/CapSense_CSHL.c ****         #if ((0u != (CapSense_MEDIAN_FILTER & CapSense_RADIAL_SLIDERS_POS_FILTERS_MASK)) || \
1964:Generated_Source\PSoC4/CapSense_CSHL.c ****              (0u != (CapSense_AVERAGING_FILTER & CapSense_RADIAL_SLIDERS_POS_FILTERS_MASK)))
1965:Generated_Source\PSoC4/CapSense_CSHL.c ****             uint8 tempPos;
1966:Generated_Source\PSoC4/CapSense_CSHL.c ****         #endif /* ((0u != (CapSense_MEDIAN_FILTER & CapSense_RADIAL_SLIDERS_POS_FILTERS_MASK)) || \
1967:Generated_Source\PSoC4/CapSense_CSHL.c ****                *   (0u != (CapSense_AVERAGING_FILTER & CapSense_RADIAL_SLIDERS_POS_FILTERS_MASK)))
1968:Generated_Source\PSoC4/CapSense_CSHL.c ****                */
1969:Generated_Source\PSoC4/CapSense_CSHL.c **** 
1970:Generated_Source\PSoC4/CapSense_CSHL.c ****         uint8 maximum;
1971:Generated_Source\PSoC4/CapSense_CSHL.c ****         uint16 position;
1972:Generated_Source\PSoC4/CapSense_CSHL.c ****         uint8 offset = CapSense_rawDataIndex[widget];
1973:Generated_Source\PSoC4/CapSense_CSHL.c ****         uint8 count = CapSense_numberOfSensors[widget];
1974:Generated_Source\PSoC4/CapSense_CSHL.c **** 
1975:Generated_Source\PSoC4/CapSense_CSHL.c ****         /* Find Maximum within centroid */
1976:Generated_Source\PSoC4/CapSense_CSHL.c ****         #if (CapSense_IS_DIPLEX_SLIDER)
1977:Generated_Source\PSoC4/CapSense_CSHL.c ****             maximum = CapSense_FindMaximum(offset, count, (uint8)CapSense_fingerThreshold[widget], 
1978:Generated_Source\PSoC4/CapSense_CSHL.c ****         #else
1979:Generated_Source\PSoC4/CapSense_CSHL.c ****             maximum = CapSense_FindMaximum(offset, count, (uint8)CapSense_fingerThreshold[widget]);
 995              		.loc 1 1979 0
 996 0004 1422     		movs	r2, #20
 997 0006 0521     		movs	r1, #5
 998 0008 0020     		movs	r0, #0
 999              	.LVL112:
 1000 000a FFF7FEFF 		bl	CapSense_FindMaximum
 1001              	.LVL113:
1980:Generated_Source\PSoC4/CapSense_CSHL.c ****         #endif /* (CapSense_IS_DIPLEX_SLIDER) */
1981:Generated_Source\PSoC4/CapSense_CSHL.c **** 
1982:Generated_Source\PSoC4/CapSense_CSHL.c ****         if (maximum != CapSense_MAXIMUM_CENTROID)
 1002              		.loc 1 1982 0
 1003 000e FF28     		cmp	r0, #255
 1004 0010 09D0     		beq	.L77
1983:Generated_Source\PSoC4/CapSense_CSHL.c ****         {
1984:Generated_Source\PSoC4/CapSense_CSHL.c ****             /* Calculate centroid */
1985:Generated_Source\PSoC4/CapSense_CSHL.c ****             position = (uint16) CapSense_CalcCentroid(maximum,
 1005              		.loc 1 1985 0
 1006 0012 0523     		movs	r3, #5
 1007 0014 0093     		str	r3, [sp]
 1008 0016 C823     		movs	r3, #200
 1009 0018 5B01     		lsls	r3, r3, #5
 1010 001a 0522     		movs	r2, #5
 1011 001c 0021     		movs	r1, #0
 1012 001e FFF7FEFF 		bl	CapSense_CalcCentroid
 1013              	.LVL114:
 1014 0022 80B2     		uxth	r0, r0
 1015              	.LVL115:
 1016 0024 00E0     		b	.L76
 1017              	.LVL116:
 1018              	.L77:
1986:Generated_Source\PSoC4/CapSense_CSHL.c ****                          offset, count, CapSense_centroidMult[widget], CapSense_noiseThreshold[widg
1987:Generated_Source\PSoC4/CapSense_CSHL.c **** 
1988:Generated_Source\PSoC4/CapSense_CSHL.c ****             #if (0u != CapSense_RADIAL_SLIDERS_POS_FILTERS_MASK)
1989:Generated_Source\PSoC4/CapSense_CSHL.c ****                 /* Check if this Radial slider has enabled filters */
ARM GAS  C:\Users\SHOZO\AppData\Local\Temp\ccsrjLaI.s 			page 54


1990:Generated_Source\PSoC4/CapSense_CSHL.c ****                 if (0u != (posFiltersMask & CapSense_ANY_POS_FILTER))
1991:Generated_Source\PSoC4/CapSense_CSHL.c ****                 {
1992:Generated_Source\PSoC4/CapSense_CSHL.c ****                     /* Calculate position to store filters data */
1993:Generated_Source\PSoC4/CapSense_CSHL.c ****                     posIndex  = firstTimeIndex + 1u;
1994:Generated_Source\PSoC4/CapSense_CSHL.c **** 
1995:Generated_Source\PSoC4/CapSense_CSHL.c ****                     if (0u == CapSense_posFiltersData[firstTimeIndex])
1996:Generated_Source\PSoC4/CapSense_CSHL.c ****                     {
1997:Generated_Source\PSoC4/CapSense_CSHL.c ****                         /* Init filters */
1998:Generated_Source\PSoC4/CapSense_CSHL.c ****                         CapSense_posFiltersData[posIndex] = (uint8) position;
1999:Generated_Source\PSoC4/CapSense_CSHL.c ****                         #if ((0u != (CapSense_MEDIAN_FILTER & \
2000:Generated_Source\PSoC4/CapSense_CSHL.c ****                                      CapSense_RADIAL_SLIDERS_POS_FILTERS_MASK)) || \
2001:Generated_Source\PSoC4/CapSense_CSHL.c ****                              (0u != (CapSense_AVERAGING_FILTER & \
2002:Generated_Source\PSoC4/CapSense_CSHL.c ****                                      CapSense_RADIAL_SLIDERS_POS_FILTERS_MASK)))
2003:Generated_Source\PSoC4/CapSense_CSHL.c **** 
2004:Generated_Source\PSoC4/CapSense_CSHL.c ****                             if ( (0u != (posFiltersMask & CapSense_MEDIAN_FILTER))  ||
2005:Generated_Source\PSoC4/CapSense_CSHL.c ****                                  (0u != (posFiltersMask & CapSense_AVERAGING_FILTER)) )
2006:Generated_Source\PSoC4/CapSense_CSHL.c ****                             {
2007:Generated_Source\PSoC4/CapSense_CSHL.c ****                                 CapSense_posFiltersData[posIndex + 1u] = (uint8) position;
2008:Generated_Source\PSoC4/CapSense_CSHL.c ****                             }
2009:Generated_Source\PSoC4/CapSense_CSHL.c ****                         #endif /* ((0u != (CapSense_MEDIAN_FILTER & \
2010:Generated_Source\PSoC4/CapSense_CSHL.c ****                                *           CapSense_RADIAL_SLIDERS_POS_FILTERS_MASK)) || \
2011:Generated_Source\PSoC4/CapSense_CSHL.c ****                                *   (0u != (CapSense_AVERAGING_FILTER & \
2012:Generated_Source\PSoC4/CapSense_CSHL.c ****                                *           CapSense_RADIAL_SLIDERS_POS_FILTERS_MASK)))
2013:Generated_Source\PSoC4/CapSense_CSHL.c ****                                */
2014:Generated_Source\PSoC4/CapSense_CSHL.c **** 
2015:Generated_Source\PSoC4/CapSense_CSHL.c ****                         CapSense_posFiltersData[firstTimeIndex] = 1u;
2016:Generated_Source\PSoC4/CapSense_CSHL.c ****                     }
2017:Generated_Source\PSoC4/CapSense_CSHL.c ****                     else
2018:Generated_Source\PSoC4/CapSense_CSHL.c ****                     {
2019:Generated_Source\PSoC4/CapSense_CSHL.c ****                         /* Do filtering */
2020:Generated_Source\PSoC4/CapSense_CSHL.c ****                         #if (0u != (CapSense_MEDIAN_FILTER & CapSense_RADIAL_SLIDERS_POS_FILTERS_MA
2021:Generated_Source\PSoC4/CapSense_CSHL.c ****                             if (0u != (posFiltersMask & CapSense_MEDIAN_FILTER))
2022:Generated_Source\PSoC4/CapSense_CSHL.c ****                             {
2023:Generated_Source\PSoC4/CapSense_CSHL.c ****                                 tempPos = (uint8) position;
2024:Generated_Source\PSoC4/CapSense_CSHL.c ****                                 position = CapSense_MedianFilter(position,
2025:Generated_Source\PSoC4/CapSense_CSHL.c ****                                                                         CapSense_posFiltersData[pos
2026:Generated_Source\PSoC4/CapSense_CSHL.c ****                                                                         CapSense_posFiltersData[pos
2027:Generated_Source\PSoC4/CapSense_CSHL.c ****                                 CapSense_posFiltersData[posIndex + 1u] =
2028:Generated_Source\PSoC4/CapSense_CSHL.c ****                                                                               CapSense_posFiltersDa
2029:Generated_Source\PSoC4/CapSense_CSHL.c ****                                 CapSense_posFiltersData[posIndex] = tempPos;
2030:Generated_Source\PSoC4/CapSense_CSHL.c ****                             }
2031:Generated_Source\PSoC4/CapSense_CSHL.c ****                         #endif /* (0u != (CapSense_MEDIAN_FILTER &
2032:Generated_Source\PSoC4/CapSense_CSHL.c ****                                *          CapSense_RADIAL_SLIDERS_POS_FILTERS_MASK))
2033:Generated_Source\PSoC4/CapSense_CSHL.c ****                                */
2034:Generated_Source\PSoC4/CapSense_CSHL.c **** 
2035:Generated_Source\PSoC4/CapSense_CSHL.c ****                         #if (0u != (CapSense_AVERAGING_FILTER & \
2036:Generated_Source\PSoC4/CapSense_CSHL.c ****                                     CapSense_RADIAL_SLIDERS_POS_FILTERS_MASK))
2037:Generated_Source\PSoC4/CapSense_CSHL.c ****                             if (0u != (posFiltersMask & CapSense_AVERAGING_FILTER))
2038:Generated_Source\PSoC4/CapSense_CSHL.c ****                             {
2039:Generated_Source\PSoC4/CapSense_CSHL.c ****                                 tempPos = (uint8) position;
2040:Generated_Source\PSoC4/CapSense_CSHL.c ****                                 position = CapSense_AveragingFilter(position,
2041:Generated_Source\PSoC4/CapSense_CSHL.c ****                                                                        CapSense_posFiltersData[posI
2042:Generated_Source\PSoC4/CapSense_CSHL.c ****                                                                        CapSense_posFiltersData[posI
2043:Generated_Source\PSoC4/CapSense_CSHL.c ****                                 CapSense_posFiltersData[posIndex+1u]= CapSense_posFiltersData[posIn
2044:Generated_Source\PSoC4/CapSense_CSHL.c ****                                 CapSense_posFiltersData[posIndex] = tempPos;
2045:Generated_Source\PSoC4/CapSense_CSHL.c ****                             }
2046:Generated_Source\PSoC4/CapSense_CSHL.c ****                         #endif /* (0u != (CapSense_AVERAGING_FILTER & \
ARM GAS  C:\Users\SHOZO\AppData\Local\Temp\ccsrjLaI.s 			page 55


2047:Generated_Source\PSoC4/CapSense_CSHL.c ****                                *          CapSense_RADIAL_SLIDERS_POS_FILTERS_MASK))
2048:Generated_Source\PSoC4/CapSense_CSHL.c ****                                */
2049:Generated_Source\PSoC4/CapSense_CSHL.c **** 
2050:Generated_Source\PSoC4/CapSense_CSHL.c ****                         #if (0u != (CapSense_IIR2_FILTER & CapSense_RADIAL_SLIDERS_POS_FILTERS_MASK
2051:Generated_Source\PSoC4/CapSense_CSHL.c ****                             if (0u != (posFiltersMask & CapSense_IIR2_FILTER))
2052:Generated_Source\PSoC4/CapSense_CSHL.c ****                             {
2053:Generated_Source\PSoC4/CapSense_CSHL.c ****                                 position = CapSense_IIR2Filter(position,
2054:Generated_Source\PSoC4/CapSense_CSHL.c ****                                                                     (uint16)CapSense_posFiltersData
2055:Generated_Source\PSoC4/CapSense_CSHL.c ****                                 CapSense_posFiltersData[posIndex] = (uint8) position;
2056:Generated_Source\PSoC4/CapSense_CSHL.c ****                             }
2057:Generated_Source\PSoC4/CapSense_CSHL.c ****                         #endif /* (0u != (CapSense_IIR2_FILTER &
2058:Generated_Source\PSoC4/CapSense_CSHL.c ****                                *          CapSense_RADIAL_SLIDERS_POS_FILTERS_MASK))
2059:Generated_Source\PSoC4/CapSense_CSHL.c ****                                */
2060:Generated_Source\PSoC4/CapSense_CSHL.c **** 
2061:Generated_Source\PSoC4/CapSense_CSHL.c ****                         #if (0u != (CapSense_IIR4_FILTER & CapSense_RADIAL_SLIDERS_POS_FILTERS_MASK
2062:Generated_Source\PSoC4/CapSense_CSHL.c ****                             if (0u != (posFiltersMask & CapSense_IIR4_FILTER))
2063:Generated_Source\PSoC4/CapSense_CSHL.c ****                             {
2064:Generated_Source\PSoC4/CapSense_CSHL.c ****                                 position = CapSense_IIR4Filter(position,
2065:Generated_Source\PSoC4/CapSense_CSHL.c ****                                                                     (uint16)CapSense_posFiltersData
2066:Generated_Source\PSoC4/CapSense_CSHL.c ****                                 CapSense_posFiltersData[posIndex] = (uint8) position;
2067:Generated_Source\PSoC4/CapSense_CSHL.c ****                             }
2068:Generated_Source\PSoC4/CapSense_CSHL.c ****                         #endif /* (0u != (CapSense_IIR4_FILTER &
2069:Generated_Source\PSoC4/CapSense_CSHL.c ****                                *          CapSense_RADIAL_SLIDERS_POS_FILTERS_MASK))
2070:Generated_Source\PSoC4/CapSense_CSHL.c ****                                */
2071:Generated_Source\PSoC4/CapSense_CSHL.c **** 
2072:Generated_Source\PSoC4/CapSense_CSHL.c ****                         #if (0u != (CapSense_JITTER_FILTER & CapSense_RADIAL_SLIDERS_POS_FILTERS_MA
2073:Generated_Source\PSoC4/CapSense_CSHL.c ****                             if (0u != (posFiltersMask & CapSense_JITTER_FILTER))
2074:Generated_Source\PSoC4/CapSense_CSHL.c ****                             {
2075:Generated_Source\PSoC4/CapSense_CSHL.c ****                                 position = CapSense_JitterFilter(position,
2076:Generated_Source\PSoC4/CapSense_CSHL.c ****                                                                          CapSense_posFiltersData[po
2077:Generated_Source\PSoC4/CapSense_CSHL.c ****                                 CapSense_posFiltersData[posIndex] = (uint8) position;
2078:Generated_Source\PSoC4/CapSense_CSHL.c ****                             }
2079:Generated_Source\PSoC4/CapSense_CSHL.c ****                         #endif /* (0u != (CapSense_JITTER_FILTER &
2080:Generated_Source\PSoC4/CapSense_CSHL.c ****                                *           CapSense_RADIAL_SLIDERS_POS_FILTERS_MASK))
2081:Generated_Source\PSoC4/CapSense_CSHL.c ****                                */
2082:Generated_Source\PSoC4/CapSense_CSHL.c ****                     }
2083:Generated_Source\PSoC4/CapSense_CSHL.c ****                 }
2084:Generated_Source\PSoC4/CapSense_CSHL.c ****             #endif /* (0u != CapSense_RADIAL_SLIDERS_POS_FILTERS_MASK) */
2085:Generated_Source\PSoC4/CapSense_CSHL.c **** 
2086:Generated_Source\PSoC4/CapSense_CSHL.c ****         }
2087:Generated_Source\PSoC4/CapSense_CSHL.c ****         else
2088:Generated_Source\PSoC4/CapSense_CSHL.c ****         {
2089:Generated_Source\PSoC4/CapSense_CSHL.c ****             /* Maximum was not found */
2090:Generated_Source\PSoC4/CapSense_CSHL.c ****             position = 0xFFFFu;
 1019              		.loc 1 2090 0
 1020 0026 0148     		ldr	r0, .L78
 1021              	.LVL117:
 1022              	.L76:
2091:Generated_Source\PSoC4/CapSense_CSHL.c **** 
2092:Generated_Source\PSoC4/CapSense_CSHL.c ****             #if (0u != CapSense_RADIAL_SLIDERS_POS_FILTERS_MASK)
2093:Generated_Source\PSoC4/CapSense_CSHL.c ****                 /* Reset filters */
2094:Generated_Source\PSoC4/CapSense_CSHL.c ****                 if((posFiltersMask & CapSense_ANY_POS_FILTER) != 0u)
2095:Generated_Source\PSoC4/CapSense_CSHL.c ****                 {
2096:Generated_Source\PSoC4/CapSense_CSHL.c ****                     CapSense_posFiltersData[firstTimeIndex] = 0u;
2097:Generated_Source\PSoC4/CapSense_CSHL.c ****                 }
2098:Generated_Source\PSoC4/CapSense_CSHL.c ****             #endif /* (0u != CapSense_RADIAL_SLIDERS_POS_FILTERS_MASK) */
2099:Generated_Source\PSoC4/CapSense_CSHL.c ****         }
ARM GAS  C:\Users\SHOZO\AppData\Local\Temp\ccsrjLaI.s 			page 56


2100:Generated_Source\PSoC4/CapSense_CSHL.c **** 
2101:Generated_Source\PSoC4/CapSense_CSHL.c ****         return (position);
2102:Generated_Source\PSoC4/CapSense_CSHL.c ****     }
 1023              		.loc 1 2102 0
 1024 0028 03B0     		add	sp, sp, #12
 1025              		@ sp needed
 1026 002a 00BD     		pop	{pc}
 1027              	.L79:
 1028              		.align	2
 1029              	.L78:
 1030 002c FFFF0000 		.word	65535
 1031              		.cfi_endproc
 1032              	.LFE56:
 1033              		.size	CapSense_GetRadialCentroidPos, .-CapSense_GetRadialCentroidPos
 1034              		.section	.text.CapSense_IIR4Filter,"ax",%progbits
 1035              		.align	2
 1036              		.global	CapSense_IIR4Filter
 1037              		.code	16
 1038              		.thumb_func
 1039              		.type	CapSense_IIR4Filter, %function
 1040              	CapSense_IIR4Filter:
 1041              	.LFB57:
2103:Generated_Source\PSoC4/CapSense_CSHL.c **** #endif /* ((CapSense_TOTAL_RADIAL_SLIDERS_COUNT > 0u) || (CapSense_TOTAL_LINEAR_SLIDERS_COUNT > 0u)
2104:Generated_Source\PSoC4/CapSense_CSHL.c **** 
2105:Generated_Source\PSoC4/CapSense_CSHL.c **** 
2106:Generated_Source\PSoC4/CapSense_CSHL.c **** #if(CapSense_TOTAL_TOUCH_PADS_BASIC_COUNT > 0u)
2107:Generated_Source\PSoC4/CapSense_CSHL.c ****     /*******************************************************************************
2108:Generated_Source\PSoC4/CapSense_CSHL.c ****     * Function Name: CapSense_GetTouchCentroidPos
2109:Generated_Source\PSoC4/CapSense_CSHL.c ****     ********************************************************************************
2110:Generated_Source\PSoC4/CapSense_CSHL.c ****     *
2111:Generated_Source\PSoC4/CapSense_CSHL.c ****     * Summary:
2112:Generated_Source\PSoC4/CapSense_CSHL.c ****     *  If a finger is present on a touchpad, this function calculates the X and Y
2113:Generated_Source\PSoC4/CapSense_CSHL.c ****     *  position of the finger by calculating the centroids within touchpad specified
2114:Generated_Source\PSoC4/CapSense_CSHL.c ****     *  range. The X and Y positions are calculated according to the API resolutions set in the
2115:Generated_Source\PSoC4/CapSense_CSHL.c ****     *  CapSense customizer. Returns 1 if a finger is on the touchpad.
2116:Generated_Source\PSoC4/CapSense_CSHL.c ****     *  The position filter is applied to the result if enabled.
2117:Generated_Source\PSoC4/CapSense_CSHL.c ****     *  This function is available only if a touch pad is defined by the CapSense
2118:Generated_Source\PSoC4/CapSense_CSHL.c ****     *  customizer.
2119:Generated_Source\PSoC4/CapSense_CSHL.c ****     *
2120:Generated_Source\PSoC4/CapSense_CSHL.c ****     * Parameters:
2121:Generated_Source\PSoC4/CapSense_CSHL.c ****     *  widget:  Widget number.
2122:Generated_Source\PSoC4/CapSense_CSHL.c ****     *  For every touchpad widget there are defines in this format:
2123:Generated_Source\PSoC4/CapSense_CSHL.c ****     *  #define CapSense_"widget_name"__TP            5
2124:Generated_Source\PSoC4/CapSense_CSHL.c ****     *
2125:Generated_Source\PSoC4/CapSense_CSHL.c ****     *  pos:     Pointer to the array of two uint16 elements, where result
2126:Generated_Source\PSoC4/CapSense_CSHL.c ****     *  result of calculation of X and Y position are stored.
2127:Generated_Source\PSoC4/CapSense_CSHL.c ****     *  pos[0u]  - position of X
2128:Generated_Source\PSoC4/CapSense_CSHL.c ****     *  pos[1u]  - position of Y
2129:Generated_Source\PSoC4/CapSense_CSHL.c ****     *
2130:Generated_Source\PSoC4/CapSense_CSHL.c ****     * Return:
2131:Generated_Source\PSoC4/CapSense_CSHL.c ****     *  Returns a 1 if a finger is on the touch pad, 0 - if not.
2132:Generated_Source\PSoC4/CapSense_CSHL.c ****     *
2133:Generated_Source\PSoC4/CapSense_CSHL.c ****     * Global Variables:
2134:Generated_Source\PSoC4/CapSense_CSHL.c ****     *  None.
2135:Generated_Source\PSoC4/CapSense_CSHL.c ****     *
2136:Generated_Source\PSoC4/CapSense_CSHL.c ****     * Side Effects:
2137:Generated_Source\PSoC4/CapSense_CSHL.c ****     *   There are no checks of the widget type argument provided to this function.
ARM GAS  C:\Users\SHOZO\AppData\Local\Temp\ccsrjLaI.s 			page 57


2138:Generated_Source\PSoC4/CapSense_CSHL.c ****     *   The unproper widget type provided will cause unexpected position
2139:Generated_Source\PSoC4/CapSense_CSHL.c ****     *   calculations.
2140:Generated_Source\PSoC4/CapSense_CSHL.c ****     *
2141:Generated_Source\PSoC4/CapSense_CSHL.c ****     *******************************************************************************/
2142:Generated_Source\PSoC4/CapSense_CSHL.c ****     uint32 CapSense_GetTouchCentroidPos(uint32 widget, uint16* pos)
2143:Generated_Source\PSoC4/CapSense_CSHL.c ****     {
2144:Generated_Source\PSoC4/CapSense_CSHL.c ****         #if (0u != CapSense_TOUCH_PADS_POS_FILTERS_MASK)
2145:Generated_Source\PSoC4/CapSense_CSHL.c ****             uint8 posXIndex;
2146:Generated_Source\PSoC4/CapSense_CSHL.c ****             uint8 posYIndex;
2147:Generated_Source\PSoC4/CapSense_CSHL.c ****             uint8 firstTimeIndex = CapSense_posFiltersData[widget];
2148:Generated_Source\PSoC4/CapSense_CSHL.c ****             uint8 posFiltersMask = CapSense_posFiltersMask[widget];
2149:Generated_Source\PSoC4/CapSense_CSHL.c ****         #endif /* (0u != CapSense_TOUCH_PADS_POS_FILTERS_MASK) */
2150:Generated_Source\PSoC4/CapSense_CSHL.c **** 
2151:Generated_Source\PSoC4/CapSense_CSHL.c ****         #if ((0u != (CapSense_MEDIAN_FILTER & CapSense_TOUCH_PADS_POS_FILTERS_MASK)) || \
2152:Generated_Source\PSoC4/CapSense_CSHL.c ****              (0u != (CapSense_AVERAGING_FILTER & CapSense_TOUCH_PADS_POS_FILTERS_MASK)))
2153:Generated_Source\PSoC4/CapSense_CSHL.c ****             uint16 tempPos;
2154:Generated_Source\PSoC4/CapSense_CSHL.c ****         #endif /* ((0u != (CapSense_MEDIAN_FILTER & CapSense_TOUCH_PADS_POS_FILTERS_MASK)) || \
2155:Generated_Source\PSoC4/CapSense_CSHL.c ****                *   (0u != (CapSense_AVERAGING_FILTER & CapSense_TOUCH_PADS_POS_FILTERS_MASK)))
2156:Generated_Source\PSoC4/CapSense_CSHL.c ****                */
2157:Generated_Source\PSoC4/CapSense_CSHL.c **** 
2158:Generated_Source\PSoC4/CapSense_CSHL.c ****         uint8 MaxX;
2159:Generated_Source\PSoC4/CapSense_CSHL.c ****         uint8 MaxY;
2160:Generated_Source\PSoC4/CapSense_CSHL.c ****         uint8 posX;
2161:Generated_Source\PSoC4/CapSense_CSHL.c ****         uint8 posY;
2162:Generated_Source\PSoC4/CapSense_CSHL.c ****         uint32 touch = 0u;
2163:Generated_Source\PSoC4/CapSense_CSHL.c ****         uint8 offset = CapSense_rawDataIndex[widget];
2164:Generated_Source\PSoC4/CapSense_CSHL.c ****         uint8 count = CapSense_numberOfSensors[widget];
2165:Generated_Source\PSoC4/CapSense_CSHL.c **** 
2166:Generated_Source\PSoC4/CapSense_CSHL.c ****         /* Find Maximum within X centroid */
2167:Generated_Source\PSoC4/CapSense_CSHL.c ****         #if (CapSense_IS_DIPLEX_SLIDER)
2168:Generated_Source\PSoC4/CapSense_CSHL.c ****             MaxX = CapSense_FindMaximum(offset, count, CapSense_fingerThreshold[widget], 0u);
2169:Generated_Source\PSoC4/CapSense_CSHL.c ****         #else
2170:Generated_Source\PSoC4/CapSense_CSHL.c ****             MaxX = CapSense_FindMaximum(offset, count, CapSense_fingerThreshold[widget]);
2171:Generated_Source\PSoC4/CapSense_CSHL.c ****         #endif /* (CapSense_IS_DIPLEX_SLIDER) */
2172:Generated_Source\PSoC4/CapSense_CSHL.c **** 
2173:Generated_Source\PSoC4/CapSense_CSHL.c ****         if (MaxX != CapSense_MAXIMUM_CENTROID)
2174:Generated_Source\PSoC4/CapSense_CSHL.c ****         {
2175:Generated_Source\PSoC4/CapSense_CSHL.c ****             offset = CapSense_rawDataIndex[widget + 1u];
2176:Generated_Source\PSoC4/CapSense_CSHL.c ****             count = CapSense_numberOfSensors[widget + 1u];
2177:Generated_Source\PSoC4/CapSense_CSHL.c **** 
2178:Generated_Source\PSoC4/CapSense_CSHL.c ****             /* Find Maximum within Y centroid */
2179:Generated_Source\PSoC4/CapSense_CSHL.c ****             #if (CapSense_IS_DIPLEX_SLIDER)
2180:Generated_Source\PSoC4/CapSense_CSHL.c ****                 MaxY = CapSense_FindMaximum(offset, count, CapSense_fingerThreshold[widget + 1u], 0
2181:Generated_Source\PSoC4/CapSense_CSHL.c ****             #else
2182:Generated_Source\PSoC4/CapSense_CSHL.c ****                 MaxY = CapSense_FindMaximum(offset, count, CapSense_fingerThreshold[widget + 1u]);
2183:Generated_Source\PSoC4/CapSense_CSHL.c ****             #endif /* (CapSense_IS_DIPLEX_SLIDER) */
2184:Generated_Source\PSoC4/CapSense_CSHL.c **** 
2185:Generated_Source\PSoC4/CapSense_CSHL.c ****             if (MaxY != CapSense_MAXIMUM_CENTROID)
2186:Generated_Source\PSoC4/CapSense_CSHL.c ****             {
2187:Generated_Source\PSoC4/CapSense_CSHL.c ****                 /* X and Y maximums are found = true touch */
2188:Generated_Source\PSoC4/CapSense_CSHL.c ****                 touch = 1u;
2189:Generated_Source\PSoC4/CapSense_CSHL.c **** 
2190:Generated_Source\PSoC4/CapSense_CSHL.c ****                 /* Calculate Y centroid */
2191:Generated_Source\PSoC4/CapSense_CSHL.c ****                 posY = CapSense_CalcCentroid(MaxY, offset, count,
2192:Generated_Source\PSoC4/CapSense_CSHL.c ****                             CapSense_centroidMult[widget + 1u], CapSense_noiseThreshold[widget + 1u
2193:Generated_Source\PSoC4/CapSense_CSHL.c **** 
2194:Generated_Source\PSoC4/CapSense_CSHL.c ****                 /* Calculate X centroid */
ARM GAS  C:\Users\SHOZO\AppData\Local\Temp\ccsrjLaI.s 			page 58


2195:Generated_Source\PSoC4/CapSense_CSHL.c ****                 offset = CapSense_rawDataIndex[widget];
2196:Generated_Source\PSoC4/CapSense_CSHL.c ****                 count = CapSense_numberOfSensors[widget];
2197:Generated_Source\PSoC4/CapSense_CSHL.c **** 
2198:Generated_Source\PSoC4/CapSense_CSHL.c ****                 posX = CapSense_CalcCentroid(MaxX, offset, count,
2199:Generated_Source\PSoC4/CapSense_CSHL.c ****                             CapSense_centroidMult[widget],CapSense_noiseThreshold[widget]);
2200:Generated_Source\PSoC4/CapSense_CSHL.c **** 
2201:Generated_Source\PSoC4/CapSense_CSHL.c ****                 #if (0u != CapSense_TOUCH_PADS_POS_FILTERS_MASK)
2202:Generated_Source\PSoC4/CapSense_CSHL.c ****                     /* Check if this TP has enabled filters */
2203:Generated_Source\PSoC4/CapSense_CSHL.c ****                     if (0u != (posFiltersMask & CapSense_ANY_POS_FILTER))
2204:Generated_Source\PSoC4/CapSense_CSHL.c ****                     {
2205:Generated_Source\PSoC4/CapSense_CSHL.c ****                         /* Calculate position to store filters data */
2206:Generated_Source\PSoC4/CapSense_CSHL.c ****                         posXIndex  = firstTimeIndex + 1u;
2207:Generated_Source\PSoC4/CapSense_CSHL.c ****                         posYIndex  = CapSense_posFiltersData[widget + 1u];
2208:Generated_Source\PSoC4/CapSense_CSHL.c **** 
2209:Generated_Source\PSoC4/CapSense_CSHL.c ****                         if (0u == CapSense_posFiltersData[firstTimeIndex])
2210:Generated_Source\PSoC4/CapSense_CSHL.c ****                         {
2211:Generated_Source\PSoC4/CapSense_CSHL.c ****                             /* Init filters */
2212:Generated_Source\PSoC4/CapSense_CSHL.c ****                             CapSense_posFiltersData[posXIndex] = posX;
2213:Generated_Source\PSoC4/CapSense_CSHL.c ****                             CapSense_posFiltersData[posYIndex] = posY;
2214:Generated_Source\PSoC4/CapSense_CSHL.c **** 
2215:Generated_Source\PSoC4/CapSense_CSHL.c ****                             #if((0u != (CapSense_MEDIAN_FILTER & \
2216:Generated_Source\PSoC4/CapSense_CSHL.c ****                                         CapSense_TOUCH_PADS_POS_FILTERS_MASK))|| \
2217:Generated_Source\PSoC4/CapSense_CSHL.c ****                                 (0u != (CapSense_AVERAGING_FILTER & \
2218:Generated_Source\PSoC4/CapSense_CSHL.c ****                                         CapSense_TOUCH_PADS_POS_FILTERS_MASK)))
2219:Generated_Source\PSoC4/CapSense_CSHL.c **** 
2220:Generated_Source\PSoC4/CapSense_CSHL.c ****                                 if ( (0u != (posFiltersMask & CapSense_MEDIAN_FILTER)) ||
2221:Generated_Source\PSoC4/CapSense_CSHL.c ****                                      (0u != (posFiltersMask & CapSense_AVERAGING_FILTER)) )
2222:Generated_Source\PSoC4/CapSense_CSHL.c ****                                 {
2223:Generated_Source\PSoC4/CapSense_CSHL.c ****                                     CapSense_posFiltersData[posXIndex + 1u] = posX;
2224:Generated_Source\PSoC4/CapSense_CSHL.c ****                                     CapSense_posFiltersData[posYIndex + 1u] = posY;
2225:Generated_Source\PSoC4/CapSense_CSHL.c ****                                 }
2226:Generated_Source\PSoC4/CapSense_CSHL.c ****                             #endif /* ((0u != (CapSense_MEDIAN_FILTER & \
2227:Generated_Source\PSoC4/CapSense_CSHL.c ****                                    *           CapSense_TOUCH_PADS_POS_FILTERS_MASK)) || \
2228:Generated_Source\PSoC4/CapSense_CSHL.c ****                                    *    (0u != (CapSense_AVERAGING_FILTER & \
2229:Generated_Source\PSoC4/CapSense_CSHL.c ****                                    *            CapSense_TOUCH_PADS_POS_FILTERS_MASK)))
2230:Generated_Source\PSoC4/CapSense_CSHL.c ****                                    */
2231:Generated_Source\PSoC4/CapSense_CSHL.c **** 
2232:Generated_Source\PSoC4/CapSense_CSHL.c ****                             CapSense_posFiltersData[firstTimeIndex] = 1u;
2233:Generated_Source\PSoC4/CapSense_CSHL.c ****                         }
2234:Generated_Source\PSoC4/CapSense_CSHL.c ****                         else
2235:Generated_Source\PSoC4/CapSense_CSHL.c ****                         {
2236:Generated_Source\PSoC4/CapSense_CSHL.c ****                             /* Do filtering */
2237:Generated_Source\PSoC4/CapSense_CSHL.c ****                             #if (0u != (CapSense_MEDIAN_FILTER & CapSense_TOUCH_PADS_POS_FILTERS_MA
2238:Generated_Source\PSoC4/CapSense_CSHL.c ****                                 if (0u != (posFiltersMask & CapSense_MEDIAN_FILTER))
2239:Generated_Source\PSoC4/CapSense_CSHL.c ****                                 {
2240:Generated_Source\PSoC4/CapSense_CSHL.c ****                                     tempPos = posX;
2241:Generated_Source\PSoC4/CapSense_CSHL.c ****                                     posX = (uint8) CapSense_MedianFilter(posX,
2242:Generated_Source\PSoC4/CapSense_CSHL.c ****                                                                       CapSense_posFiltersData[posXI
2243:Generated_Source\PSoC4/CapSense_CSHL.c ****                                                                       CapSense_posFiltersData[posXI
2244:Generated_Source\PSoC4/CapSense_CSHL.c ****                                     CapSense_posFiltersData[posXIndex + 1u] =
2245:Generated_Source\PSoC4/CapSense_CSHL.c ****                                                                              CapSense_posFiltersDat
2246:Generated_Source\PSoC4/CapSense_CSHL.c ****                                     CapSense_posFiltersData[posXIndex] = tempPos;
2247:Generated_Source\PSoC4/CapSense_CSHL.c **** 
2248:Generated_Source\PSoC4/CapSense_CSHL.c ****                                     tempPos = posY;
2249:Generated_Source\PSoC4/CapSense_CSHL.c ****                                     posY = (uint8) CapSense_MedianFilter(posY,
2250:Generated_Source\PSoC4/CapSense_CSHL.c ****                                                                        CapSense_posFiltersData[posY
2251:Generated_Source\PSoC4/CapSense_CSHL.c ****                                                                        CapSense_posFiltersData[posY
ARM GAS  C:\Users\SHOZO\AppData\Local\Temp\ccsrjLaI.s 			page 59


2252:Generated_Source\PSoC4/CapSense_CSHL.c ****                                     CapSense_posFiltersData[posYIndex + 1u] =
2253:Generated_Source\PSoC4/CapSense_CSHL.c ****                                                                              CapSense_posFiltersDat
2254:Generated_Source\PSoC4/CapSense_CSHL.c ****                                     CapSense_posFiltersData[posYIndex] = tempPos;
2255:Generated_Source\PSoC4/CapSense_CSHL.c ****                                 }
2256:Generated_Source\PSoC4/CapSense_CSHL.c **** 
2257:Generated_Source\PSoC4/CapSense_CSHL.c ****                             #endif /* (0u != (CapSense_MEDIAN_FILTER & \
2258:Generated_Source\PSoC4/CapSense_CSHL.c ****                                    *          CapSense_TOUCH_PADS_POS_FILTERS_MASK))
2259:Generated_Source\PSoC4/CapSense_CSHL.c ****                                    */
2260:Generated_Source\PSoC4/CapSense_CSHL.c **** 
2261:Generated_Source\PSoC4/CapSense_CSHL.c ****                             #if(0u !=(CapSense_AVERAGING_FILTER & CapSense_TOUCH_PADS_POS_FILTERS_M
2262:Generated_Source\PSoC4/CapSense_CSHL.c ****                                 if (0u != (posFiltersMask & CapSense_AVERAGING_FILTER))
2263:Generated_Source\PSoC4/CapSense_CSHL.c ****                                 {
2264:Generated_Source\PSoC4/CapSense_CSHL.c ****                                     tempPos = posX;
2265:Generated_Source\PSoC4/CapSense_CSHL.c ****                                     posX = (uint8) CapSense_AveragingFilter(posX,
2266:Generated_Source\PSoC4/CapSense_CSHL.c ****                                                                        CapSense_posFiltersData[posX
2267:Generated_Source\PSoC4/CapSense_CSHL.c ****                                                                        CapSense_posFiltersData[posX
2268:Generated_Source\PSoC4/CapSense_CSHL.c ****                                     CapSense_posFiltersData[posXIndex + 1u] =
2269:Generated_Source\PSoC4/CapSense_CSHL.c ****                                                                              CapSense_posFiltersDat
2270:Generated_Source\PSoC4/CapSense_CSHL.c ****                                     CapSense_posFiltersData[posXIndex] = tempPos;
2271:Generated_Source\PSoC4/CapSense_CSHL.c **** 
2272:Generated_Source\PSoC4/CapSense_CSHL.c ****                                     tempPos = posY;
2273:Generated_Source\PSoC4/CapSense_CSHL.c ****                                     posY = (uint8) CapSense_AveragingFilter(posY,
2274:Generated_Source\PSoC4/CapSense_CSHL.c ****                                                                       CapSense_posFiltersData[posYI
2275:Generated_Source\PSoC4/CapSense_CSHL.c ****                                                                       CapSense_posFiltersData[posYI
2276:Generated_Source\PSoC4/CapSense_CSHL.c ****                                     CapSense_posFiltersData[posYIndex + 1u] =
2277:Generated_Source\PSoC4/CapSense_CSHL.c ****                                                                             CapSense_posFiltersData
2278:Generated_Source\PSoC4/CapSense_CSHL.c ****                                     CapSense_posFiltersData[posYIndex] = tempPos;
2279:Generated_Source\PSoC4/CapSense_CSHL.c ****                                 }
2280:Generated_Source\PSoC4/CapSense_CSHL.c **** 
2281:Generated_Source\PSoC4/CapSense_CSHL.c ****                             #endif /* (0u != (CapSense_AVERAGING_FILTER & \
2282:Generated_Source\PSoC4/CapSense_CSHL.c ****                                    *           CapSense_TOUCH_PADS_POS_FILTERS_MASK))
2283:Generated_Source\PSoC4/CapSense_CSHL.c ****                                    */
2284:Generated_Source\PSoC4/CapSense_CSHL.c **** 
2285:Generated_Source\PSoC4/CapSense_CSHL.c ****                             #if (0u != (CapSense_IIR2_FILTER & CapSense_TOUCH_PADS_POS_FILTERS_MASK
2286:Generated_Source\PSoC4/CapSense_CSHL.c ****                                 if (0u != (posFiltersMask & CapSense_IIR2_FILTER))
2287:Generated_Source\PSoC4/CapSense_CSHL.c ****                                 {
2288:Generated_Source\PSoC4/CapSense_CSHL.c ****                                     posX = (uint8) CapSense_IIR2Filter(posX,
2289:Generated_Source\PSoC4/CapSense_CSHL.c ****                                                                            CapSense_posFiltersData[
2290:Generated_Source\PSoC4/CapSense_CSHL.c ****                                     CapSense_posFiltersData[posXIndex] = posX;
2291:Generated_Source\PSoC4/CapSense_CSHL.c **** 
2292:Generated_Source\PSoC4/CapSense_CSHL.c ****                                     posY = (uint8) CapSense_IIR2Filter(posY,
2293:Generated_Source\PSoC4/CapSense_CSHL.c ****                                                                             CapSense_posFiltersData
2294:Generated_Source\PSoC4/CapSense_CSHL.c ****                                     CapSense_posFiltersData[posYIndex] = posY;
2295:Generated_Source\PSoC4/CapSense_CSHL.c ****                                 }
2296:Generated_Source\PSoC4/CapSense_CSHL.c **** 
2297:Generated_Source\PSoC4/CapSense_CSHL.c ****                             #endif /* (0u != (CapSense_IIR2_FILTER & \
2298:Generated_Source\PSoC4/CapSense_CSHL.c ****                                    *          CapSense_TOUCH_PADS_POS_FILTERS_MASK))
2299:Generated_Source\PSoC4/CapSense_CSHL.c ****                                    */
2300:Generated_Source\PSoC4/CapSense_CSHL.c **** 
2301:Generated_Source\PSoC4/CapSense_CSHL.c ****                             #if (0u != (CapSense_IIR4_FILTER & CapSense_TOUCH_PADS_POS_FILTERS_MASK
2302:Generated_Source\PSoC4/CapSense_CSHL.c ****                                 if (0u != (posFiltersMask & CapSense_IIR4_FILTER))
2303:Generated_Source\PSoC4/CapSense_CSHL.c ****                                 {
2304:Generated_Source\PSoC4/CapSense_CSHL.c ****                                     posX = (uint8) CapSense_IIR4Filter((uint16)posX,
