ARM GAS  C:\Users\SHOZO\AppData\Local\Temp\ccICMltU.s 			page 1


   1              		.syntax unified
   2              		.cpu cortex-m0
   3              		.fpu softvfp
   4              		.eabi_attribute 20, 1
   5              		.eabi_attribute 21, 1
   6              		.eabi_attribute 23, 3
   7              		.eabi_attribute 24, 1
   8              		.eabi_attribute 25, 1
   9              		.eabi_attribute 26, 1
  10              		.eabi_attribute 30, 1
  11              		.eabi_attribute 34, 0
  12              		.eabi_attribute 18, 4
  13              		.thumb
  14              		.syntax unified
  15              		.file	"CapSense.c"
  16              		.text
  17              	.Ltext0:
  18              		.cfi_sections	.debug_frame
  19              		.section	.text.CapSense_CsdHwBlockInit,"ax",%progbits
  20              		.align	2
  21              		.global	CapSense_CsdHwBlockInit
  22              		.code	16
  23              		.thumb_func
  24              		.type	CapSense_CsdHwBlockInit, %function
  25              	CapSense_CsdHwBlockInit:
  26              	.LFB33:
  27              		.file 1 "Generated_Source\\PSoC4\\CapSense.c"
   1:Generated_Source\PSoC4/CapSense.c **** /*******************************************************************************
   2:Generated_Source\PSoC4/CapSense.c **** * File Name: CapSense.c
   3:Generated_Source\PSoC4/CapSense.c **** * Version 2.60
   4:Generated_Source\PSoC4/CapSense.c **** *
   5:Generated_Source\PSoC4/CapSense.c **** * Description:
   6:Generated_Source\PSoC4/CapSense.c **** *  This file provides the source code for scanning APIs for the CapSense CSD
   7:Generated_Source\PSoC4/CapSense.c **** *  component.
   8:Generated_Source\PSoC4/CapSense.c **** *
   9:Generated_Source\PSoC4/CapSense.c **** * Note:
  10:Generated_Source\PSoC4/CapSense.c **** *
  11:Generated_Source\PSoC4/CapSense.c **** ********************************************************************************
  12:Generated_Source\PSoC4/CapSense.c **** * Copyright 2013-2016, Cypress Semiconductor Corporation.  All rights reserved.
  13:Generated_Source\PSoC4/CapSense.c **** * You may use this file only in accordance with the license, terms, conditions,
  14:Generated_Source\PSoC4/CapSense.c **** * disclaimers, and limitations in the end user license agreement accompanying
  15:Generated_Source\PSoC4/CapSense.c **** * the software package with which this file was provided.
  16:Generated_Source\PSoC4/CapSense.c **** *******************************************************************************/
  17:Generated_Source\PSoC4/CapSense.c **** 
  18:Generated_Source\PSoC4/CapSense.c **** #include "CapSense.h"
  19:Generated_Source\PSoC4/CapSense.c **** #include "CapSense_PVT.h"
  20:Generated_Source\PSoC4/CapSense.c **** #include "cypins.h"
  21:Generated_Source\PSoC4/CapSense.c **** #include "cyapicallbacks.h"
  22:Generated_Source\PSoC4/CapSense.c **** 
  23:Generated_Source\PSoC4/CapSense.c **** #if(0u != CapSense_CSHL_API_GENERATE)
  24:Generated_Source\PSoC4/CapSense.c ****     #include "CapSense_CSHL.h"
  25:Generated_Source\PSoC4/CapSense.c **** #endif /* (0u != CapSense_CSHL_API_GENERATE) */
  26:Generated_Source\PSoC4/CapSense.c **** 
  27:Generated_Source\PSoC4/CapSense.c **** /* This definition is intended to prevent unexpected linker error.
  28:Generated_Source\PSoC4/CapSense.c ****    For more details please see the IAR Technical Note 49981 */
  29:Generated_Source\PSoC4/CapSense.c **** #if defined(__ICCARM__)
  30:Generated_Source\PSoC4/CapSense.c ****     extern void CapSense_EnableSensor(uint32 sensor);
ARM GAS  C:\Users\SHOZO\AppData\Local\Temp\ccICMltU.s 			page 2


  31:Generated_Source\PSoC4/CapSense.c ****     extern void CapSense_DisableSensor(uint32 sensor);
  32:Generated_Source\PSoC4/CapSense.c **** #endif /* (__ICCARM__) */
  33:Generated_Source\PSoC4/CapSense.c **** 
  34:Generated_Source\PSoC4/CapSense.c **** /* SmartSense functions */
  35:Generated_Source\PSoC4/CapSense.c **** #if (CapSense_TUNING_METHOD == CapSense__TUNING_AUTO)
  36:Generated_Source\PSoC4/CapSense.c ****     uint8 CapSense_lowLevelTuningDone = 0u;
  37:Generated_Source\PSoC4/CapSense.c ****     uint8 CapSense_scanSpeedTbl[((CapSense_TOTAL_SENSOR_COUNT - 1u) / 8u) + 1u];
  38:Generated_Source\PSoC4/CapSense.c **** #endif /* (CapSense_TUNING_METHOD == CapSense__TUNING_AUTO) */
  39:Generated_Source\PSoC4/CapSense.c **** 
  40:Generated_Source\PSoC4/CapSense.c **** #if(CapSense_PRS_OPTIONS != CapSense__PRS_NONE)
  41:Generated_Source\PSoC4/CapSense.c ****     uint8 CapSense_prescalersTuningDone = 0u;
  42:Generated_Source\PSoC4/CapSense.c **** #endif /* (CapSense_PRS_OPTIONS == CapSense__PRS_NONE) */
  43:Generated_Source\PSoC4/CapSense.c **** 
  44:Generated_Source\PSoC4/CapSense.c **** /* Global software variables */
  45:Generated_Source\PSoC4/CapSense.c **** volatile uint8 CapSense_csdStatusVar = 0u;   /* CapSense CSD status, variable */
  46:Generated_Source\PSoC4/CapSense.c **** volatile uint8 CapSense_sensorIndex = 0u;    /* Index of scannig sensor */
  47:Generated_Source\PSoC4/CapSense.c **** 
  48:Generated_Source\PSoC4/CapSense.c **** /* Global array of Raw Counts */
  49:Generated_Source\PSoC4/CapSense.c **** uint16 CapSense_sensorRaw[CapSense_TOTAL_SENSOR_COUNT] = {0u};
  50:Generated_Source\PSoC4/CapSense.c **** 
  51:Generated_Source\PSoC4/CapSense.c **** /* Backup variables for trim registers*/
  52:Generated_Source\PSoC4/CapSense.c **** #if (CapSense_IDAC1_POLARITY == CapSense__IDAC_SINK)
  53:Generated_Source\PSoC4/CapSense.c ****     uint8 CapSense_csdTrim2;
  54:Generated_Source\PSoC4/CapSense.c **** #else
  55:Generated_Source\PSoC4/CapSense.c ****     uint8 CapSense_csdTrim1;
  56:Generated_Source\PSoC4/CapSense.c **** #endif /* (CapSense_IDAC1_POLARITY == CapSense__IDAC_SINK) */
  57:Generated_Source\PSoC4/CapSense.c **** 
  58:Generated_Source\PSoC4/CapSense.c **** /* Global array of un-scanned sensors state */
  59:Generated_Source\PSoC4/CapSense.c **** uint8 CapSense_unscannedSnsDriveMode[CapSense_PORT_PIN_CONFIG_TBL_ZISE];
  60:Generated_Source\PSoC4/CapSense.c **** 
  61:Generated_Source\PSoC4/CapSense.c **** /* Backup array for CapSense_sensorEnableMask */
  62:Generated_Source\PSoC4/CapSense.c **** uint8 CapSense_sensorEnableMaskBackup[(((CapSense_TOTAL_SENSOR_COUNT - 1u) / 8u) + 1u)];
  63:Generated_Source\PSoC4/CapSense.c **** 
  64:Generated_Source\PSoC4/CapSense.c **** /* Configured constants and arrays by Customizer */
  65:Generated_Source\PSoC4/CapSense.c **** uint8 CapSense_sensorEnableMask[(((CapSense_TOTAL_SENSOR_COUNT - 1u) / 8u) + 1u)] = {
  66:Generated_Source\PSoC4/CapSense.c **** 0x1Fu, };
  67:Generated_Source\PSoC4/CapSense.c **** 
  68:Generated_Source\PSoC4/CapSense.c **** reg32 * CapSense_pcTable[] = {
  69:Generated_Source\PSoC4/CapSense.c ****     (reg32 *)CapSense_Sns__LinearSlider0_e0__LS__PC, 
  70:Generated_Source\PSoC4/CapSense.c ****     (reg32 *)CapSense_Sns__LinearSlider0_e1__LS__PC, 
  71:Generated_Source\PSoC4/CapSense.c ****     (reg32 *)CapSense_Sns__LinearSlider0_e2__LS__PC, 
  72:Generated_Source\PSoC4/CapSense.c ****     (reg32 *)CapSense_Sns__LinearSlider0_e3__LS__PC, 
  73:Generated_Source\PSoC4/CapSense.c ****     (reg32 *)CapSense_Sns__LinearSlider0_e4__LS__PC, 
  74:Generated_Source\PSoC4/CapSense.c **** };
  75:Generated_Source\PSoC4/CapSense.c **** 
  76:Generated_Source\PSoC4/CapSense.c **** const uint8 CapSense_portTable[] = {
  77:Generated_Source\PSoC4/CapSense.c ****     CapSense_Sns__LinearSlider0_e0__LS__PORT, 
  78:Generated_Source\PSoC4/CapSense.c ****     CapSense_Sns__LinearSlider0_e1__LS__PORT, 
  79:Generated_Source\PSoC4/CapSense.c ****     CapSense_Sns__LinearSlider0_e2__LS__PORT, 
  80:Generated_Source\PSoC4/CapSense.c ****     CapSense_Sns__LinearSlider0_e3__LS__PORT, 
  81:Generated_Source\PSoC4/CapSense.c ****     CapSense_Sns__LinearSlider0_e4__LS__PORT, 
  82:Generated_Source\PSoC4/CapSense.c **** };
  83:Generated_Source\PSoC4/CapSense.c **** 
  84:Generated_Source\PSoC4/CapSense.c **** const uint32 CapSense_maskTable[] = {
  85:Generated_Source\PSoC4/CapSense.c ****     CapSense_Sns__LinearSlider0_e0__LS__MASK, 
  86:Generated_Source\PSoC4/CapSense.c ****     CapSense_Sns__LinearSlider0_e1__LS__MASK, 
  87:Generated_Source\PSoC4/CapSense.c ****     CapSense_Sns__LinearSlider0_e2__LS__MASK, 
ARM GAS  C:\Users\SHOZO\AppData\Local\Temp\ccICMltU.s 			page 3


  88:Generated_Source\PSoC4/CapSense.c ****     CapSense_Sns__LinearSlider0_e3__LS__MASK, 
  89:Generated_Source\PSoC4/CapSense.c ****     CapSense_Sns__LinearSlider0_e4__LS__MASK, 
  90:Generated_Source\PSoC4/CapSense.c **** };
  91:Generated_Source\PSoC4/CapSense.c **** 
  92:Generated_Source\PSoC4/CapSense.c **** const uint8 CapSense_pinShiftTbl[] = {
  93:Generated_Source\PSoC4/CapSense.c ****     (uint8) CapSense_Sns__LinearSlider0_e0__LS__SHIFT, 
  94:Generated_Source\PSoC4/CapSense.c ****     (uint8) CapSense_Sns__LinearSlider0_e1__LS__SHIFT, 
  95:Generated_Source\PSoC4/CapSense.c ****     (uint8) CapSense_Sns__LinearSlider0_e2__LS__SHIFT, 
  96:Generated_Source\PSoC4/CapSense.c ****     (uint8) CapSense_Sns__LinearSlider0_e3__LS__SHIFT, 
  97:Generated_Source\PSoC4/CapSense.c ****     (uint8) CapSense_Sns__LinearSlider0_e4__LS__SHIFT, 
  98:Generated_Source\PSoC4/CapSense.c **** };
  99:Generated_Source\PSoC4/CapSense.c **** 
 100:Generated_Source\PSoC4/CapSense.c **** uint8 CapSense_modulationIDAC[CapSense_TOTAL_SENSOR_COUNT] = {
 101:Generated_Source\PSoC4/CapSense.c ****     80u, 80u, 80u, 80u, 80u, 
 102:Generated_Source\PSoC4/CapSense.c **** };
 103:Generated_Source\PSoC4/CapSense.c **** uint8 CapSense_compensationIDAC[CapSense_TOTAL_SENSOR_COUNT] = {
 104:Generated_Source\PSoC4/CapSense.c ****     80u, 80u, 80u, 80u, 80u, 
 105:Generated_Source\PSoC4/CapSense.c **** };
 106:Generated_Source\PSoC4/CapSense.c **** 
 107:Generated_Source\PSoC4/CapSense.c **** const uint32 CapSense_widgetResolution[CapSense_RESOLUTIONS_TBL_SIZE] = {
 108:Generated_Source\PSoC4/CapSense.c ****     CapSense_RESOLUTION_10_BITS,
 109:Generated_Source\PSoC4/CapSense.c **** };
 110:Generated_Source\PSoC4/CapSense.c **** 
 111:Generated_Source\PSoC4/CapSense.c **** const uint8 CapSense_senseClkDividerVal[CapSense_TOTAL_SCANSLOT_COUNT] = {
 112:Generated_Source\PSoC4/CapSense.c ****     1u, 1u, 1u, 1u, 1u, 
 113:Generated_Source\PSoC4/CapSense.c **** };
 114:Generated_Source\PSoC4/CapSense.c **** const uint8 CapSense_sampleClkDividerVal[CapSense_TOTAL_SCANSLOT_COUNT] = {
 115:Generated_Source\PSoC4/CapSense.c ****     2u, 2u, 2u, 2u, 2u, 
 116:Generated_Source\PSoC4/CapSense.c **** };
 117:Generated_Source\PSoC4/CapSense.c **** 
 118:Generated_Source\PSoC4/CapSense.c **** 
 119:Generated_Source\PSoC4/CapSense.c **** const uint8 CapSense_widgetNumber[CapSense_TOTAL_SENSOR_COUNT] = {
 120:Generated_Source\PSoC4/CapSense.c ****     0u, 0u, 0u, 0u, 0u, /* LinearSlider0__LS */
 121:Generated_Source\PSoC4/CapSense.c **** };
 122:Generated_Source\PSoC4/CapSense.c **** 
 123:Generated_Source\PSoC4/CapSense.c **** reg32* const CapSense_prtSelTbl[CapSense_CFG_REG_TBL_SIZE] = {
 124:Generated_Source\PSoC4/CapSense.c ****     ((reg32 *) CYREG_HSIOM_PORT_SEL0),
 125:Generated_Source\PSoC4/CapSense.c ****     ((reg32 *) CYREG_HSIOM_PORT_SEL1),
 126:Generated_Source\PSoC4/CapSense.c ****     ((reg32 *) CYREG_HSIOM_PORT_SEL2),
 127:Generated_Source\PSoC4/CapSense.c ****     ((reg32 *) CYREG_HSIOM_PORT_SEL3),
 128:Generated_Source\PSoC4/CapSense.c ****     ((reg32 *) CYREG_HSIOM_PORT_SEL4),
 129:Generated_Source\PSoC4/CapSense.c **** };
 130:Generated_Source\PSoC4/CapSense.c **** 
 131:Generated_Source\PSoC4/CapSense.c **** reg32* const CapSense_prtCfgTbl[CapSense_CFG_REG_TBL_SIZE] = {
 132:Generated_Source\PSoC4/CapSense.c ****     ((reg32 *) CYREG_PRT0_PC),
 133:Generated_Source\PSoC4/CapSense.c ****     ((reg32 *) CYREG_PRT1_PC),
 134:Generated_Source\PSoC4/CapSense.c ****     ((reg32 *) CYREG_PRT2_PC),
 135:Generated_Source\PSoC4/CapSense.c ****     ((reg32 *) CYREG_PRT3_PC),
 136:Generated_Source\PSoC4/CapSense.c ****     ((reg32 *) CYREG_PRT4_PC),
 137:Generated_Source\PSoC4/CapSense.c **** };
 138:Generated_Source\PSoC4/CapSense.c **** 
 139:Generated_Source\PSoC4/CapSense.c **** reg32* const CapSense_prtDRTbl[CapSense_CFG_REG_TBL_SIZE] = {
 140:Generated_Source\PSoC4/CapSense.c ****     ((reg32 *) CYREG_PRT0_DR),
 141:Generated_Source\PSoC4/CapSense.c ****     ((reg32 *) CYREG_PRT1_DR),
 142:Generated_Source\PSoC4/CapSense.c ****     ((reg32 *) CYREG_PRT2_DR),
 143:Generated_Source\PSoC4/CapSense.c ****     ((reg32 *) CYREG_PRT3_DR),
 144:Generated_Source\PSoC4/CapSense.c ****     ((reg32 *) CYREG_PRT4_DR),
ARM GAS  C:\Users\SHOZO\AppData\Local\Temp\ccICMltU.s 			page 4


 145:Generated_Source\PSoC4/CapSense.c **** };
 146:Generated_Source\PSoC4/CapSense.c **** 
 147:Generated_Source\PSoC4/CapSense.c **** 
 148:Generated_Source\PSoC4/CapSense.c **** 
 149:Generated_Source\PSoC4/CapSense.c **** /*******************************************************************************
 150:Generated_Source\PSoC4/CapSense.c **** * Function Name: CapSense_Init
 151:Generated_Source\PSoC4/CapSense.c **** ********************************************************************************
 152:Generated_Source\PSoC4/CapSense.c **** *
 153:Generated_Source\PSoC4/CapSense.c **** * Summary:
 154:Generated_Source\PSoC4/CapSense.c **** *  API initializes default CapSense configuration provided by the customizer that defines
 155:Generated_Source\PSoC4/CapSense.c **** *  the mode of component operations and resets all the sensors to an inactive state.
 156:Generated_Source\PSoC4/CapSense.c **** *
 157:Generated_Source\PSoC4/CapSense.c **** * Parameters:
 158:Generated_Source\PSoC4/CapSense.c **** *  None
 159:Generated_Source\PSoC4/CapSense.c **** *
 160:Generated_Source\PSoC4/CapSense.c **** * Return:
 161:Generated_Source\PSoC4/CapSense.c **** *  None
 162:Generated_Source\PSoC4/CapSense.c **** *
 163:Generated_Source\PSoC4/CapSense.c **** * Global Variables:
 164:Generated_Source\PSoC4/CapSense.c **** *  CapSense_immunityIndex - defines immunity level.
 165:Generated_Source\PSoC4/CapSense.c **** *
 166:Generated_Source\PSoC4/CapSense.c **** * Side Effects:
 167:Generated_Source\PSoC4/CapSense.c **** *  None
 168:Generated_Source\PSoC4/CapSense.c **** *
 169:Generated_Source\PSoC4/CapSense.c **** *******************************************************************************/
 170:Generated_Source\PSoC4/CapSense.c **** void CapSense_Init(void)
 171:Generated_Source\PSoC4/CapSense.c **** {
 172:Generated_Source\PSoC4/CapSense.c ****     uint32 curSensor;
 173:Generated_Source\PSoC4/CapSense.c **** 
 174:Generated_Source\PSoC4/CapSense.c ****     #if(CapSense_IS_SHIELD_ENABLE)
 175:Generated_Source\PSoC4/CapSense.c **** 
 176:Generated_Source\PSoC4/CapSense.c ****         #if((CapSense_CSH_TANK_PREGARGE_OPTION == CapSense__CAPPRIOBUF) || (0u != CapSense_CSH_TANK
 177:Generated_Source\PSoC4/CapSense.c ****             uint32 newRegValue;
 178:Generated_Source\PSoC4/CapSense.c **** 
 179:Generated_Source\PSoC4/CapSense.c ****             newRegValue = CapSense_CTANK_CONNECTION_REG;
 180:Generated_Source\PSoC4/CapSense.c ****             newRegValue &= ~(CapSense_CSD_CTANK_CONNECTION_MASK);
 181:Generated_Source\PSoC4/CapSense.c ****             newRegValue |= CapSense_CSD_CTANK_TO_AMUXBUS_B;
 182:Generated_Source\PSoC4/CapSense.c ****             CapSense_CTANK_CONNECTION_REG = newRegValue;
 183:Generated_Source\PSoC4/CapSense.c **** 
 184:Generated_Source\PSoC4/CapSense.c ****             #if(CapSense_CSH_TANK_PREGARGE_OPTION == CapSense__CAPPRIOBUF)
 185:Generated_Source\PSoC4/CapSense.c ****                 newRegValue = CapSense_CTANK_PORT_PC_REG;
 186:Generated_Source\PSoC4/CapSense.c ****                 newRegValue &= ~(CapSense_CSD_CTANK_PC_MASK);
 187:Generated_Source\PSoC4/CapSense.c ****                 newRegValue |= CapSense_CTANK_PC_STRONG_MODE;
 188:Generated_Source\PSoC4/CapSense.c ****                 CapSense_CTANK_PORT_PC_REG = newRegValue;
 189:Generated_Source\PSoC4/CapSense.c **** 
 190:Generated_Source\PSoC4/CapSense.c ****                 newRegValue = CapSense_CTANK_PORT_DR_REG;
 191:Generated_Source\PSoC4/CapSense.c ****                 newRegValue &= ~(CapSense_CTANK_DR_MASK);
 192:Generated_Source\PSoC4/CapSense.c ****                 newRegValue |= CapSense_CTANK_DR_CONFIG;
 193:Generated_Source\PSoC4/CapSense.c ****                 CapSense_CTANK_PORT_DR_REG = newRegValue;
 194:Generated_Source\PSoC4/CapSense.c ****             #endif /* (CapSense_CSH_TANK_PREGARGE_OPTION == CapSense__CAPPRIOBUF) */
 195:Generated_Source\PSoC4/CapSense.c **** 
 196:Generated_Source\PSoC4/CapSense.c ****         #endif /* ((CapSense_CSH_TANK_PREGARGE_OPTION == CapSense__CAPPRIOBUF) || (CapSense_CSH_TAN
 197:Generated_Source\PSoC4/CapSense.c **** 
 198:Generated_Source\PSoC4/CapSense.c ****         CapSense_EnableShieldElectrode((uint32)CapSense_SHIELD_PIN_NUMBER, (uint32)CapSense_SHIELD_
 199:Generated_Source\PSoC4/CapSense.c **** 
 200:Generated_Source\PSoC4/CapSense.c ****     #endif /* (CapSense_IS_SHIELD_ENABLE) */
 201:Generated_Source\PSoC4/CapSense.c **** 
ARM GAS  C:\Users\SHOZO\AppData\Local\Temp\ccICMltU.s 			page 5


 202:Generated_Source\PSoC4/CapSense.c ****     for(curSensor = 0u; curSensor < CapSense_TOTAL_SENSOR_COUNT; curSensor++)
 203:Generated_Source\PSoC4/CapSense.c ****     {
 204:Generated_Source\PSoC4/CapSense.c ****         CapSense_SetUnscannedSensorState(curSensor, CapSense_CONNECT_INACTIVE_SNS);
 205:Generated_Source\PSoC4/CapSense.c ****     }
 206:Generated_Source\PSoC4/CapSense.c **** 
 207:Generated_Source\PSoC4/CapSense.c ****     CapSense_CsdHwBlockInit();
 208:Generated_Source\PSoC4/CapSense.c ****     CapSense_SetShieldDelay(CapSense_SHIELD_DELAY );
 209:Generated_Source\PSoC4/CapSense.c **** 
 210:Generated_Source\PSoC4/CapSense.c ****     /* Clear all sensors */
 211:Generated_Source\PSoC4/CapSense.c ****     CapSense_ClearSensors();
 212:Generated_Source\PSoC4/CapSense.c **** }
 213:Generated_Source\PSoC4/CapSense.c **** 
 214:Generated_Source\PSoC4/CapSense.c **** /*******************************************************************************
 215:Generated_Source\PSoC4/CapSense.c **** * Function Name: CapSense_CsdHwBlockInit
 216:Generated_Source\PSoC4/CapSense.c **** ********************************************************************************
 217:Generated_Source\PSoC4/CapSense.c **** *
 218:Generated_Source\PSoC4/CapSense.c **** * Summary:
 219:Generated_Source\PSoC4/CapSense.c **** *  Initialises the hardware parameters of the CSD block
 220:Generated_Source\PSoC4/CapSense.c **** *
 221:Generated_Source\PSoC4/CapSense.c **** * Parameters:
 222:Generated_Source\PSoC4/CapSense.c **** *  None
 223:Generated_Source\PSoC4/CapSense.c **** *
 224:Generated_Source\PSoC4/CapSense.c **** * Return:
 225:Generated_Source\PSoC4/CapSense.c **** *  None
 226:Generated_Source\PSoC4/CapSense.c **** *
 227:Generated_Source\PSoC4/CapSense.c **** * Global Variables:
 228:Generated_Source\PSoC4/CapSense.c **** *  CapSense_csdTrim1 - Contains IDAC trim register value for Sourcing Mode.
 229:Generated_Source\PSoC4/CapSense.c **** *  CapSense_csdTrim2 - Contains IDAC trim register value for Sinking Mode.
 230:Generated_Source\PSoC4/CapSense.c **** *
 231:Generated_Source\PSoC4/CapSense.c **** * Side Effects:
 232:Generated_Source\PSoC4/CapSense.c **** *  None
 233:Generated_Source\PSoC4/CapSense.c **** *
 234:Generated_Source\PSoC4/CapSense.c **** *******************************************************************************/
 235:Generated_Source\PSoC4/CapSense.c **** void CapSense_CsdHwBlockInit(void)
 236:Generated_Source\PSoC4/CapSense.c **** {
  28              		.loc 1 236 0
  29              		.cfi_startproc
  30              		@ args = 0, pretend = 0, frame = 0
  31              		@ frame_needed = 0, uses_anonymous_args = 0
  32 0000 70B5     		push	{r4, r5, r6, lr}
  33              		.cfi_def_cfa_offset 16
  34              		.cfi_offset 4, -16
  35              		.cfi_offset 5, -12
  36              		.cfi_offset 6, -8
  37              		.cfi_offset 14, -4
 237:Generated_Source\PSoC4/CapSense.c ****     uint32 newRegValue;
 238:Generated_Source\PSoC4/CapSense.c **** 
 239:Generated_Source\PSoC4/CapSense.c ****         /* Set trim registers for CSD Mode */
 240:Generated_Source\PSoC4/CapSense.c ****     #if (CapSense_IDAC1_POLARITY == CapSense__IDAC_SINK)
 241:Generated_Source\PSoC4/CapSense.c ****         /* iDAC1 Sinking Mode */
 242:Generated_Source\PSoC4/CapSense.c ****         CapSense_csdTrim2 = (uint8)CapSense_CSD_TRIM2_REG;
  38              		.loc 1 242 0
  39 0002 1648     		ldr	r0, .L2
  40 0004 0368     		ldr	r3, [r0]
  41 0006 DBB2     		uxtb	r3, r3
  42 0008 154A     		ldr	r2, .L2+4
  43 000a 1370     		strb	r3, [r2]
ARM GAS  C:\Users\SHOZO\AppData\Local\Temp\ccICMltU.s 			page 6


  44              	.LVL0:
 243:Generated_Source\PSoC4/CapSense.c ****         newRegValue = CapSense_csdTrim2;
 244:Generated_Source\PSoC4/CapSense.c ****         newRegValue &= CapSense_CSD_IDAC1_TRIM_MASK;
  45              		.loc 1 244 0
  46 000c 0F24     		movs	r4, #15
  47 000e A343     		bics	r3, r4
  48              	.LVL1:
  49 0010 1900     		movs	r1, r3
  50              	.LVL2:
 245:Generated_Source\PSoC4/CapSense.c ****         newRegValue |= (uint32)((uint32)CapSense_SFLASH_CSD_TRIM2_REG & (uint32)CapSense_CSFLASH_TR
  51              		.loc 1 245 0
  52 0012 144D     		ldr	r5, .L2+8
  53 0014 2B78     		ldrb	r3, [r5]
  54 0016 0F22     		movs	r2, #15
  55 0018 1340     		ands	r3, r2
  56 001a 0B43     		orrs	r3, r1
  57              	.LVL3:
 246:Generated_Source\PSoC4/CapSense.c **** 
 247:Generated_Source\PSoC4/CapSense.c ****         #if (CapSense_IDAC_CNT == 2u)
 248:Generated_Source\PSoC4/CapSense.c ****             /* iDAC2 Sinking Mode */
 249:Generated_Source\PSoC4/CapSense.c ****             newRegValue &= CapSense_CSD_IDAC2_TRIM_MASK;
  58              		.loc 1 249 0
  59 001c E132     		adds	r2, r2, #225
  60 001e 9343     		bics	r3, r2
  61              	.LVL4:
 250:Generated_Source\PSoC4/CapSense.c ****             newRegValue |= (uint32)((uint32)CapSense_SFLASH_CSD_TRIM2_REG & (uint32)CapSense_CSFLAS
  62              		.loc 1 250 0
  63 0020 2A78     		ldrb	r2, [r5]
  64 0022 A243     		bics	r2, r4
  65 0024 1343     		orrs	r3, r2
  66              	.LVL5:
 251:Generated_Source\PSoC4/CapSense.c ****         #endif /* (CapSense_IDAC_CNT == 2u) */
 252:Generated_Source\PSoC4/CapSense.c ****         CapSense_CSD_TRIM2_REG = newRegValue;
  67              		.loc 1 252 0
  68 0026 0360     		str	r3, [r0]
 253:Generated_Source\PSoC4/CapSense.c ****     #else
 254:Generated_Source\PSoC4/CapSense.c ****         /* iDAC1 Sourcing Mode */
 255:Generated_Source\PSoC4/CapSense.c ****         CapSense_csdTrim1 = (uint8)CapSense_CSD_TRIM1_REG;
 256:Generated_Source\PSoC4/CapSense.c ****         newRegValue = CapSense_csdTrim1;
 257:Generated_Source\PSoC4/CapSense.c ****         newRegValue &= CapSense_CSD_IDAC1_TRIM_MASK;
 258:Generated_Source\PSoC4/CapSense.c ****         newRegValue |= (uint32)((uint32)CapSense_SFLASH_CSD_TRIM1_REG & (uint32)CapSense_CSFLASH_TR
 259:Generated_Source\PSoC4/CapSense.c ****         #if (CapSense_IDAC_CNT == 2u)
 260:Generated_Source\PSoC4/CapSense.c ****              /* iDAC2 Sourcing Mode */
 261:Generated_Source\PSoC4/CapSense.c ****             newRegValue &= CapSense_CSD_IDAC2_TRIM_MASK;
 262:Generated_Source\PSoC4/CapSense.c ****             newRegValue |= (uint32)((uint32)CapSense_SFLASH_CSD_TRIM1_REG & (uint32)CapSense_CSFLAS
 263:Generated_Source\PSoC4/CapSense.c ****         #endif
 264:Generated_Source\PSoC4/CapSense.c ****         CapSense_CSD_TRIM1_REG = newRegValue;
 265:Generated_Source\PSoC4/CapSense.c ****     #endif /* (CapSense_IDAC1_POLARITY == CapSense__IDAC_SINK) */
 266:Generated_Source\PSoC4/CapSense.c **** 
 267:Generated_Source\PSoC4/CapSense.c ****     /* Configure CSD and IDAC */
 268:Generated_Source\PSoC4/CapSense.c ****     #if (CapSense_IDAC_CNT > 1u)
 269:Generated_Source\PSoC4/CapSense.c ****         CapSense_CSD_IDAC_REG = CapSense_DEFAULT_CSD_IDAC_CONFIG;
  69              		.loc 1 269 0
  70 0028 0F4A     		ldr	r2, .L2+12
  71 002a 104B     		ldr	r3, .L2+16
  72              	.LVL6:
  73 002c 1A60     		str	r2, [r3]
ARM GAS  C:\Users\SHOZO\AppData\Local\Temp\ccICMltU.s 			page 7


  74              	.LVL7:
 270:Generated_Source\PSoC4/CapSense.c ****         CapSense_CSD_CFG_REG = CapSense_DEFAULT_CSD_CONFIG;
  75              		.loc 1 270 0
  76 002e 104A     		ldr	r2, .L2+20
  77 0030 104B     		ldr	r3, .L2+24
  78 0032 1A60     		str	r2, [r3]
 271:Generated_Source\PSoC4/CapSense.c ****     #else
 272:Generated_Source\PSoC4/CapSense.c ****         CapSense_CSD_IDAC_REG &= ~(CapSense_CSD_IDAC1_MODE_MASK  | CapSense_CSD_IDAC1_DATA_MASK);
 273:Generated_Source\PSoC4/CapSense.c ****         CapSense_CSD_IDAC_REG |= CapSense_DEFAULT_CSD_IDAC_CONFIG;
 274:Generated_Source\PSoC4/CapSense.c **** 
 275:Generated_Source\PSoC4/CapSense.c ****         CapSense_CSD_CFG_REG &= ~(CapSense_CSD_CONFIG_MASK);
 276:Generated_Source\PSoC4/CapSense.c ****         CapSense_CSD_CFG_REG |= (CapSense_DEFAULT_CSD_CONFIG);
 277:Generated_Source\PSoC4/CapSense.c ****     #endif /* (CapSense_IDAC_CNT > 1u) */
 278:Generated_Source\PSoC4/CapSense.c **** 
 279:Generated_Source\PSoC4/CapSense.c **** 
 280:Generated_Source\PSoC4/CapSense.c ****     /* Connect Cmod to AMUX bus */
 281:Generated_Source\PSoC4/CapSense.c ****     newRegValue = CapSense_CMOD_CONNECTION_REG;
  79              		.loc 1 281 0
  80 0034 104A     		ldr	r2, .L2+28
  81 0036 1168     		ldr	r1, [r2]
  82              	.LVL8:
 282:Generated_Source\PSoC4/CapSense.c ****     newRegValue &= ~(CapSense_CSD_CMOD_CONNECTION_MASK);
  83              		.loc 1 282 0
  84 0038 104B     		ldr	r3, .L2+32
  85 003a 0B40     		ands	r3, r1
  86              	.LVL9:
 283:Generated_Source\PSoC4/CapSense.c ****     newRegValue |= CapSense_CSD_CMOD_TO_AMUXBUS_A;
  87              		.loc 1 283 0
  88 003c C021     		movs	r1, #192
  89 003e C900     		lsls	r1, r1, #3
  90 0040 0B43     		orrs	r3, r1
  91              	.LVL10:
 284:Generated_Source\PSoC4/CapSense.c ****     CapSense_CMOD_CONNECTION_REG = newRegValue;
  92              		.loc 1 284 0
  93 0042 1360     		str	r3, [r2]
 285:Generated_Source\PSoC4/CapSense.c **** 
 286:Generated_Source\PSoC4/CapSense.c ****     /* Configure Dead Band PWM if it is enabled */
 287:Generated_Source\PSoC4/CapSense.c ****     #if(CapSense_CSD_4B_PWM_MODE != CapSense__PWM_OFF)
 288:Generated_Source\PSoC4/CapSense.c ****         CapSense_CSD_4B_PWM_REG = CapSense_DEFAULT_CSD_4B_PWM_CONFIG;
 289:Generated_Source\PSoC4/CapSense.c ****     #endif /* (CapSense_CSD_4B_PWM_MODE != CapSense__PWM_OFF) */
 290:Generated_Source\PSoC4/CapSense.c **** 
 291:Generated_Source\PSoC4/CapSense.c ****     /* Setup ISR */
 292:Generated_Source\PSoC4/CapSense.c ****     CyIntDisable(CapSense_ISR_NUMBER);
  94              		.loc 1 292 0
  95 0044 0F20     		movs	r0, #15
  96 0046 FFF7FEFF 		bl	CyIntDisable
  97              	.LVL11:
 293:Generated_Source\PSoC4/CapSense.c ****     #if !defined(CY_EXTERNAL_INTERRUPT_CONFIG)
 294:Generated_Source\PSoC4/CapSense.c ****         (void)CyIntSetVector(CapSense_ISR_NUMBER, &CapSense_ISR);
  98              		.loc 1 294 0
  99 004a 0D49     		ldr	r1, .L2+36
 100 004c 0F20     		movs	r0, #15
 101 004e FFF7FEFF 		bl	CyIntSetVector
 102              	.LVL12:
 295:Generated_Source\PSoC4/CapSense.c ****         CyIntSetPriority(CapSense_ISR_NUMBER, CapSense_ISR_PRIORITY);
 103              		.loc 1 295 0
 104 0052 0321     		movs	r1, #3
ARM GAS  C:\Users\SHOZO\AppData\Local\Temp\ccICMltU.s 			page 8


 105 0054 0F20     		movs	r0, #15
 106 0056 FFF7FEFF 		bl	CyIntSetPriority
 107              	.LVL13:
 296:Generated_Source\PSoC4/CapSense.c ****     #endif /* (CY_EXTERNAL_INTERRUPT_CONFIG) */
 297:Generated_Source\PSoC4/CapSense.c **** }
 108              		.loc 1 297 0
 109              		@ sp needed
 110 005a 70BD     		pop	{r4, r5, r6, pc}
 111              	.L3:
 112              		.align	2
 113              	.L2:
 114 005c 04FF0840 		.word	1074331396
 115 0060 00000000 		.word	CapSense_csdTrim2
 116 0064 63F1FF0F 		.word	268431715
 117 0068 00060005 		.word	83887616
 118 006c 08000840 		.word	1074266120
 119 0070 0008A101 		.word	27330560
 120 0074 04000840 		.word	1074266116
 121 0078 10000140 		.word	1073807376
 122 007c FFF0FFFF 		.word	-3841
 123 0080 00000000 		.word	CapSense_ISR
 124              		.cfi_endproc
 125              	.LFE33:
 126              		.size	CapSense_CsdHwBlockInit, .-CapSense_CsdHwBlockInit
 127              		.section	.text.CapSense_Enable,"ax",%progbits
 128              		.align	2
 129              		.global	CapSense_Enable
 130              		.code	16
 131              		.thumb_func
 132              		.type	CapSense_Enable, %function
 133              	CapSense_Enable:
 134              	.LFB34:
 298:Generated_Source\PSoC4/CapSense.c **** 
 299:Generated_Source\PSoC4/CapSense.c **** 
 300:Generated_Source\PSoC4/CapSense.c **** /*******************************************************************************
 301:Generated_Source\PSoC4/CapSense.c **** * Function Name: CapSense_Enable
 302:Generated_Source\PSoC4/CapSense.c **** ********************************************************************************
 303:Generated_Source\PSoC4/CapSense.c **** *
 304:Generated_Source\PSoC4/CapSense.c **** * Summary:
 305:Generated_Source\PSoC4/CapSense.c **** *  Enables the CSD block and related resources to an active mode.
 306:Generated_Source\PSoC4/CapSense.c **** *
 307:Generated_Source\PSoC4/CapSense.c **** * Parameters:
 308:Generated_Source\PSoC4/CapSense.c **** *  None
 309:Generated_Source\PSoC4/CapSense.c **** *
 310:Generated_Source\PSoC4/CapSense.c **** * Return:
 311:Generated_Source\PSoC4/CapSense.c **** *  None
 312:Generated_Source\PSoC4/CapSense.c **** *
 313:Generated_Source\PSoC4/CapSense.c **** * Global Variables:
 314:Generated_Source\PSoC4/CapSense.c **** *  None.
 315:Generated_Source\PSoC4/CapSense.c **** *
 316:Generated_Source\PSoC4/CapSense.c **** * Side Effects:
 317:Generated_Source\PSoC4/CapSense.c **** *  None
 318:Generated_Source\PSoC4/CapSense.c **** *
 319:Generated_Source\PSoC4/CapSense.c **** *******************************************************************************/
 320:Generated_Source\PSoC4/CapSense.c **** void CapSense_Enable(void)
 321:Generated_Source\PSoC4/CapSense.c **** {
 135              		.loc 1 321 0
ARM GAS  C:\Users\SHOZO\AppData\Local\Temp\ccICMltU.s 			page 9


 136              		.cfi_startproc
 137              		@ args = 0, pretend = 0, frame = 0
 138              		@ frame_needed = 0, uses_anonymous_args = 0
 139 0000 10B5     		push	{r4, lr}
 140              		.cfi_def_cfa_offset 8
 141              		.cfi_offset 4, -8
 142              		.cfi_offset 14, -4
 322:Generated_Source\PSoC4/CapSense.c ****     uint32 newRegValue;
 323:Generated_Source\PSoC4/CapSense.c **** 
 324:Generated_Source\PSoC4/CapSense.c ****     /* Enable Clocks */
 325:Generated_Source\PSoC4/CapSense.c ****     CapSense_SenseClk_Stop();
 143              		.loc 1 325 0
 144 0002 FFF7FEFF 		bl	CapSense_SenseClk_Stop
 145              	.LVL14:
 326:Generated_Source\PSoC4/CapSense.c ****     CapSense_SampleClk_Stop();
 146              		.loc 1 326 0
 147 0006 FFF7FEFF 		bl	CapSense_SampleClk_Stop
 148              	.LVL15:
 327:Generated_Source\PSoC4/CapSense.c **** 
 328:Generated_Source\PSoC4/CapSense.c ****     CapSense_SampleClk_SetDividerValue((uint16)CapSense_INITIAL_CLK_DIVIDER);
 149              		.loc 1 328 0
 150 000a 0021     		movs	r1, #0
 151 000c 0020     		movs	r0, #0
 152 000e FFF7FEFF 		bl	CapSense_SampleClk_SetFractionalDividerRegister
 153              	.LVL16:
 329:Generated_Source\PSoC4/CapSense.c ****     CapSense_SenseClk_SetDividerValue((uint16)CapSense_INITIAL_CLK_DIVIDER);
 154              		.loc 1 329 0
 155 0012 0021     		movs	r1, #0
 156 0014 0020     		movs	r0, #0
 157 0016 FFF7FEFF 		bl	CapSense_SenseClk_SetFractionalDividerRegister
 158              	.LVL17:
 330:Generated_Source\PSoC4/CapSense.c **** 
 331:Generated_Source\PSoC4/CapSense.c ****     #if (0u == CapSense_IS_M0S8PERI_BLOCK)
 332:Generated_Source\PSoC4/CapSense.c ****         CapSense_SenseClk_Start();
 159              		.loc 1 332 0
 160 001a FFF7FEFF 		bl	CapSense_SenseClk_Start
 161              	.LVL18:
 333:Generated_Source\PSoC4/CapSense.c ****         CapSense_SampleClk_Start();
 162              		.loc 1 333 0
 163 001e FFF7FEFF 		bl	CapSense_SampleClk_Start
 164              	.LVL19:
 334:Generated_Source\PSoC4/CapSense.c ****     #else
 335:Generated_Source\PSoC4/CapSense.c ****         CapSense_SampleClk_Start();
 336:Generated_Source\PSoC4/CapSense.c ****         CapSense_SenseClk_StartEx(CapSense_SampleClk__DIV_ID);
 337:Generated_Source\PSoC4/CapSense.c ****     #endif /* (0u == CapSense_IS_M0S8PERI_BLOCK) */
 338:Generated_Source\PSoC4/CapSense.c **** 
 339:Generated_Source\PSoC4/CapSense.c ****     /* Enable the CSD block */
 340:Generated_Source\PSoC4/CapSense.c ****     newRegValue = CapSense_CSD_CFG_REG;
 165              		.loc 1 340 0
 166 0022 044A     		ldr	r2, .L5
 167 0024 1368     		ldr	r3, [r2]
 168              	.LVL20:
 341:Generated_Source\PSoC4/CapSense.c ****     newRegValue |= (CapSense_CSD_CFG_ENABLE | CapSense_CSD_CFG_SENSE_COMP_EN
 169              		.loc 1 341 0
 170 0026 0449     		ldr	r1, .L5+4
 171 0028 0B43     		orrs	r3, r1
 172              	.LVL21:
ARM GAS  C:\Users\SHOZO\AppData\Local\Temp\ccICMltU.s 			page 10


 342:Generated_Source\PSoC4/CapSense.c ****                                                    | CapSense_CSD_CFG_SENSE_EN);
 343:Generated_Source\PSoC4/CapSense.c ****     CapSense_CSD_CFG_REG = newRegValue;
 173              		.loc 1 343 0
 174 002a 1360     		str	r3, [r2]
 344:Generated_Source\PSoC4/CapSense.c **** 
 345:Generated_Source\PSoC4/CapSense.c ****     /* Enable interrupt */
 346:Generated_Source\PSoC4/CapSense.c ****     CyIntEnable(CapSense_ISR_NUMBER);
 175              		.loc 1 346 0
 176 002c 0F20     		movs	r0, #15
 177 002e FFF7FEFF 		bl	CyIntEnable
 178              	.LVL22:
 347:Generated_Source\PSoC4/CapSense.c **** }
 179              		.loc 1 347 0
 180              		@ sp needed
 181 0032 10BD     		pop	{r4, pc}
 182              	.L6:
 183              		.align	2
 184              	.L5:
 185 0034 04000840 		.word	1074266116
 186 0038 00100880 		.word	-2146955264
 187              		.cfi_endproc
 188              	.LFE34:
 189              		.size	CapSense_Enable, .-CapSense_Enable
 190              		.section	.text.CapSense_Stop,"ax",%progbits
 191              		.align	2
 192              		.global	CapSense_Stop
 193              		.code	16
 194              		.thumb_func
 195              		.type	CapSense_Stop, %function
 196              	CapSense_Stop:
 197              	.LFB36:
 348:Generated_Source\PSoC4/CapSense.c **** 
 349:Generated_Source\PSoC4/CapSense.c **** 
 350:Generated_Source\PSoC4/CapSense.c **** /*******************************************************************************
 351:Generated_Source\PSoC4/CapSense.c **** * Function Name: CapSense_Start
 352:Generated_Source\PSoC4/CapSense.c **** ********************************************************************************
 353:Generated_Source\PSoC4/CapSense.c **** *
 354:Generated_Source\PSoC4/CapSense.c **** * Summary:
 355:Generated_Source\PSoC4/CapSense.c **** *  This is the preferred method to begin the component operation. CapSense_Start()
 356:Generated_Source\PSoC4/CapSense.c **** *  calls the CapSense_Init() function, and then calls the CapSense_Enable()
 357:Generated_Source\PSoC4/CapSense.c **** *  function. Initializes the registers and starts the CSD method of the CapSense
 358:Generated_Source\PSoC4/CapSense.c **** *  component. Resets all the sensors to an inactive state. Enables interrupts for
 359:Generated_Source\PSoC4/CapSense.c **** *  sensors scanning. When the SmartSense tuning mode is selected, the tuning procedure
 360:Generated_Source\PSoC4/CapSense.c **** *  is applied for all the sensors. The CapSense_Start() routine must be called before
 361:Generated_Source\PSoC4/CapSense.c **** *  any other API routines.
 362:Generated_Source\PSoC4/CapSense.c **** *
 363:Generated_Source\PSoC4/CapSense.c **** * Parameters:
 364:Generated_Source\PSoC4/CapSense.c **** *  None
 365:Generated_Source\PSoC4/CapSense.c **** *
 366:Generated_Source\PSoC4/CapSense.c **** * Return:
 367:Generated_Source\PSoC4/CapSense.c **** *  None
 368:Generated_Source\PSoC4/CapSense.c **** *
 369:Generated_Source\PSoC4/CapSense.c **** * Global Variables:
 370:Generated_Source\PSoC4/CapSense.c **** *   CapSense_initVar - used to check the initial configuration,
 371:Generated_Source\PSoC4/CapSense.c **** *   modified on the first function call.
 372:Generated_Source\PSoC4/CapSense.c **** *  CapSense_lowLevelTuningDone - Used to notify the Tuner GUI that
 373:Generated_Source\PSoC4/CapSense.c **** *   tuning of the scanning parameters is done.
ARM GAS  C:\Users\SHOZO\AppData\Local\Temp\ccICMltU.s 			page 11


 374:Generated_Source\PSoC4/CapSense.c **** *
 375:Generated_Source\PSoC4/CapSense.c **** * Side Effects:
 376:Generated_Source\PSoC4/CapSense.c **** *  None
 377:Generated_Source\PSoC4/CapSense.c **** *
 378:Generated_Source\PSoC4/CapSense.c **** *******************************************************************************/
 379:Generated_Source\PSoC4/CapSense.c **** void CapSense_Start(void)
 380:Generated_Source\PSoC4/CapSense.c **** {
 381:Generated_Source\PSoC4/CapSense.c **** 
 382:Generated_Source\PSoC4/CapSense.c ****     static uint8 CapSense_initVar = 0u;
 383:Generated_Source\PSoC4/CapSense.c **** 
 384:Generated_Source\PSoC4/CapSense.c ****     #if((0u != CapSense_AUTOCALIBRATION_ENABLE) && (CapSense_TUNING_METHOD != CapSense__TUNING_AUTO
 385:Generated_Source\PSoC4/CapSense.c ****         uint32 curSensor;
 386:Generated_Source\PSoC4/CapSense.c ****         uint32 rawLevel;
 387:Generated_Source\PSoC4/CapSense.c ****         uint32 widget;
 388:Generated_Source\PSoC4/CapSense.c ****     #endif /* ((0u != CapSense_AUTOCALIBRATION_ENABLE) && (CapSense_TUNING_METHOD != CapSense__TUNI
 389:Generated_Source\PSoC4/CapSense.c **** 
 390:Generated_Source\PSoC4/CapSense.c ****     if (CapSense_initVar == 0u)
 391:Generated_Source\PSoC4/CapSense.c ****     {
 392:Generated_Source\PSoC4/CapSense.c ****         CapSense_Init();
 393:Generated_Source\PSoC4/CapSense.c ****         CapSense_initVar = 1u;
 394:Generated_Source\PSoC4/CapSense.c ****     }
 395:Generated_Source\PSoC4/CapSense.c ****     CapSense_Enable();
 396:Generated_Source\PSoC4/CapSense.c **** 
 397:Generated_Source\PSoC4/CapSense.c ****     /* AutoTunning start */
 398:Generated_Source\PSoC4/CapSense.c ****     #if(CapSense_TUNING_METHOD == CapSense__TUNING_AUTO)
 399:Generated_Source\PSoC4/CapSense.c ****         #if(0u != CapSense_CSHL_API_GENERATE)
 400:Generated_Source\PSoC4/CapSense.c ****             CapSense_AutoTune();
 401:Generated_Source\PSoC4/CapSense.c ****             CapSense_lowLevelTuningDone = 1u;
 402:Generated_Source\PSoC4/CapSense.c ****         #endif /* (0u != CapSense_CSHL_API_GENERATE) */
 403:Generated_Source\PSoC4/CapSense.c ****     #else
 404:Generated_Source\PSoC4/CapSense.c ****         #if(0u != CapSense_AUTOCALIBRATION_ENABLE)
 405:Generated_Source\PSoC4/CapSense.c **** 
 406:Generated_Source\PSoC4/CapSense.c ****             #if(CapSense_IDAC_CNT > 1u)
 407:Generated_Source\PSoC4/CapSense.c ****                 CapSense_CSD_IDAC_REG &= ~(CapSense_CSD_IDAC2_MODE_MASK);
 408:Generated_Source\PSoC4/CapSense.c ****             #endif /* (CapSense_IDAC_CNT > 1u) */
 409:Generated_Source\PSoC4/CapSense.c **** 
 410:Generated_Source\PSoC4/CapSense.c ****             for(curSensor = 0u; curSensor < CapSense_TOTAL_SCANSLOT_COUNT; curSensor++)
 411:Generated_Source\PSoC4/CapSense.c ****             {
 412:Generated_Source\PSoC4/CapSense.c ****                 widget = CapSense_widgetNumber[curSensor];
 413:Generated_Source\PSoC4/CapSense.c ****                 rawLevel = CapSense_widgetResolution[widget] >> CapSense_RESOLUTION_OFFSET;
 414:Generated_Source\PSoC4/CapSense.c **** 
 415:Generated_Source\PSoC4/CapSense.c ****                 /* Calibration level should be equal to 85% from scanning resolution */
 416:Generated_Source\PSoC4/CapSense.c ****                 rawLevel = (rawLevel * 85u) / 100u;
 417:Generated_Source\PSoC4/CapSense.c **** 
 418:Generated_Source\PSoC4/CapSense.c ****                 CapSense_CalibrateSensor(curSensor, rawLevel, CapSense_modulationIDAC);
 419:Generated_Source\PSoC4/CapSense.c ****             }
 420:Generated_Source\PSoC4/CapSense.c **** 
 421:Generated_Source\PSoC4/CapSense.c ****             #if(0u != CapSense_TOTAL_CENTROIDS_COUNT)
 422:Generated_Source\PSoC4/CapSense.c ****                 CapSense_NormalizeWidgets(CapSense_END_OF_WIDGETS_INDEX, CapSense_modulationIDAC);
 423:Generated_Source\PSoC4/CapSense.c ****             #endif /* (0u != CapSense_TOTAL_CENTROIDS_COUNT)  */
 424:Generated_Source\PSoC4/CapSense.c **** 
 425:Generated_Source\PSoC4/CapSense.c ****             #if(CapSense_IDAC_CNT > 1u)
 426:Generated_Source\PSoC4/CapSense.c ****                 for(curSensor = 0u; curSensor < CapSense_TOTAL_SCANSLOT_COUNT; curSensor++)
 427:Generated_Source\PSoC4/CapSense.c ****                 {
 428:Generated_Source\PSoC4/CapSense.c ****                     CapSense_compensationIDAC[curSensor] = CapSense_modulationIDAC[curSensor] / 2u;
 429:Generated_Source\PSoC4/CapSense.c ****                     CapSense_modulationIDAC[curSensor] = (CapSense_modulationIDAC[curSensor] + 1u) 
 430:Generated_Source\PSoC4/CapSense.c ****                 }
ARM GAS  C:\Users\SHOZO\AppData\Local\Temp\ccICMltU.s 			page 12


 431:Generated_Source\PSoC4/CapSense.c ****                 CapSense_CSD_IDAC_REG |= CapSense_CSD_IDAC2_MODE_FIXED;
 432:Generated_Source\PSoC4/CapSense.c ****             #endif /* (CapSense_IDAC_CNT > 1u) */
 433:Generated_Source\PSoC4/CapSense.c **** 
 434:Generated_Source\PSoC4/CapSense.c ****         #endif /* (0u != CapSense_AUTOCALIBRATION_ENABLE) */
 435:Generated_Source\PSoC4/CapSense.c **** 
 436:Generated_Source\PSoC4/CapSense.c ****     #endif /* ((CapSense_TUNING_METHOD == CapSense__TUNING_AUTO) */
 437:Generated_Source\PSoC4/CapSense.c **** 
 438:Generated_Source\PSoC4/CapSense.c ****     /* Initialize Advanced Centroid */
 439:Generated_Source\PSoC4/CapSense.c ****     #if(CapSense_TOTAL_TRACKPAD_GESTURES_COUNT > 0u)
 440:Generated_Source\PSoC4/CapSense.c ****         CapSense_AdvancedCentroidInit();
 441:Generated_Source\PSoC4/CapSense.c ****     #endif /* (CapSense_TOTAL_TRACKPAD_GESTURES_COUNT > 0u) */
 442:Generated_Source\PSoC4/CapSense.c **** 
 443:Generated_Source\PSoC4/CapSense.c ****     /* Connect sense comparator input to AMUXA */
 444:Generated_Source\PSoC4/CapSense.c ****     CapSense_CSD_CFG_REG |= CapSense_CSD_CFG_SENSE_INSEL;
 445:Generated_Source\PSoC4/CapSense.c **** }
 446:Generated_Source\PSoC4/CapSense.c **** 
 447:Generated_Source\PSoC4/CapSense.c **** 
 448:Generated_Source\PSoC4/CapSense.c **** /*******************************************************************************
 449:Generated_Source\PSoC4/CapSense.c **** * Function Name: CapSense_Stop
 450:Generated_Source\PSoC4/CapSense.c **** ********************************************************************************
 451:Generated_Source\PSoC4/CapSense.c **** *
 452:Generated_Source\PSoC4/CapSense.c **** * Summary:
 453:Generated_Source\PSoC4/CapSense.c **** *  Stops the sensor scanning, disables component interrupts, and resets all the
 454:Generated_Source\PSoC4/CapSense.c **** *  sensors to an inactive state. Disables the Active mode power template bits for
 455:Generated_Source\PSoC4/CapSense.c **** *  the subcomponents used within CapSense.
 456:Generated_Source\PSoC4/CapSense.c **** *
 457:Generated_Source\PSoC4/CapSense.c **** * Parameters:
 458:Generated_Source\PSoC4/CapSense.c **** *  None
 459:Generated_Source\PSoC4/CapSense.c **** *
 460:Generated_Source\PSoC4/CapSense.c **** * Return:
 461:Generated_Source\PSoC4/CapSense.c **** *  None
 462:Generated_Source\PSoC4/CapSense.c **** *
 463:Generated_Source\PSoC4/CapSense.c **** * Global Variables:
 464:Generated_Source\PSoC4/CapSense.c **** *  CapSense_csdTrim1 - Contains the IDAC trim register value for the Sourcing Mode.
 465:Generated_Source\PSoC4/CapSense.c **** *  CapSense_csdTrim2 - Contains the IDAC trim register value for vSinking Mode.
 466:Generated_Source\PSoC4/CapSense.c **** *
 467:Generated_Source\PSoC4/CapSense.c **** * Side Effects:
 468:Generated_Source\PSoC4/CapSense.c **** *  This function should be called after scans are completed.
 469:Generated_Source\PSoC4/CapSense.c **** *
 470:Generated_Source\PSoC4/CapSense.c **** *******************************************************************************/
 471:Generated_Source\PSoC4/CapSense.c **** void CapSense_Stop(void)
 472:Generated_Source\PSoC4/CapSense.c **** {
 198              		.loc 1 472 0
 199              		.cfi_startproc
 200              		@ args = 0, pretend = 0, frame = 0
 201              		@ frame_needed = 0, uses_anonymous_args = 0
 202 0000 10B5     		push	{r4, lr}
 203              		.cfi_def_cfa_offset 8
 204              		.cfi_offset 4, -8
 205              		.cfi_offset 14, -4
 473:Generated_Source\PSoC4/CapSense.c ****     /* Disable interrupt */
 474:Generated_Source\PSoC4/CapSense.c ****     CyIntDisable(CapSense_ISR_NUMBER);
 206              		.loc 1 474 0
 207 0002 0F20     		movs	r0, #15
 208 0004 FFF7FEFF 		bl	CyIntDisable
 209              	.LVL23:
 475:Generated_Source\PSoC4/CapSense.c **** 
ARM GAS  C:\Users\SHOZO\AppData\Local\Temp\ccICMltU.s 			page 13


 476:Generated_Source\PSoC4/CapSense.c ****     CapSense_CSD_CFG_REG &= ~(CapSense_CSD_CFG_SENSE_COMP_EN | CapSense_CSD_CFG_SENSE_EN);
 210              		.loc 1 476 0
 211 0008 064A     		ldr	r2, .L8
 212 000a 1168     		ldr	r1, [r2]
 213 000c 064B     		ldr	r3, .L8+4
 214 000e 0B40     		ands	r3, r1
 215 0010 1360     		str	r3, [r2]
 477:Generated_Source\PSoC4/CapSense.c **** 
 478:Generated_Source\PSoC4/CapSense.c ****     #if(CapSense_IDAC_CNT == 2u)
 479:Generated_Source\PSoC4/CapSense.c ****         CapSense_CSD_CFG_REG &= ~(CapSense_CSD_CFG_ENABLE);
 216              		.loc 1 479 0
 217 0012 1368     		ldr	r3, [r2]
 218 0014 5B00     		lsls	r3, r3, #1
 219 0016 5B08     		lsrs	r3, r3, #1
 220 0018 1360     		str	r3, [r2]
 480:Generated_Source\PSoC4/CapSense.c ****     #endif /* (CapSense_IDAC_CNT == 2u) */
 481:Generated_Source\PSoC4/CapSense.c **** 
 482:Generated_Source\PSoC4/CapSense.c ****     /* Disable the Clocks */
 483:Generated_Source\PSoC4/CapSense.c ****     CapSense_SenseClk_Stop();
 221              		.loc 1 483 0
 222 001a FFF7FEFF 		bl	CapSense_SenseClk_Stop
 223              	.LVL24:
 484:Generated_Source\PSoC4/CapSense.c ****     CapSense_SampleClk_Stop();
 224              		.loc 1 484 0
 225 001e FFF7FEFF 		bl	CapSense_SampleClk_Stop
 226              	.LVL25:
 485:Generated_Source\PSoC4/CapSense.c **** }
 227              		.loc 1 485 0
 228              		@ sp needed
 229 0022 10BD     		pop	{r4, pc}
 230              	.L9:
 231              		.align	2
 232              	.L8:
 233 0024 04000840 		.word	1074266116
 234 0028 FFEFF7FF 		.word	-528385
 235              		.cfi_endproc
 236              	.LFE36:
 237              		.size	CapSense_Stop, .-CapSense_Stop
 238              		.section	.text.CapSense_IsBusy,"ax",%progbits
 239              		.align	2
 240              		.global	CapSense_IsBusy
 241              		.code	16
 242              		.thumb_func
 243              		.type	CapSense_IsBusy, %function
 244              	CapSense_IsBusy:
 245              	.LFB41:
 486:Generated_Source\PSoC4/CapSense.c **** 
 487:Generated_Source\PSoC4/CapSense.c **** 
 488:Generated_Source\PSoC4/CapSense.c **** /*******************************************************************************
 489:Generated_Source\PSoC4/CapSense.c **** * Function Name: CapSense_FindNextSensor
 490:Generated_Source\PSoC4/CapSense.c **** ********************************************************************************
 491:Generated_Source\PSoC4/CapSense.c **** *
 492:Generated_Source\PSoC4/CapSense.c **** * Summary:
 493:Generated_Source\PSoC4/CapSense.c **** *  Finds the next sensor to scan.
 494:Generated_Source\PSoC4/CapSense.c **** *
 495:Generated_Source\PSoC4/CapSense.c **** * Parameters:
 496:Generated_Source\PSoC4/CapSense.c **** *  snsIndex:  Current index of sensor.
ARM GAS  C:\Users\SHOZO\AppData\Local\Temp\ccICMltU.s 			page 14


 497:Generated_Source\PSoC4/CapSense.c **** *
 498:Generated_Source\PSoC4/CapSense.c **** * Return:
 499:Generated_Source\PSoC4/CapSense.c **** *  Returns the next sensor index to scan.
 500:Generated_Source\PSoC4/CapSense.c **** *
 501:Generated_Source\PSoC4/CapSense.c **** * Global Variables:
 502:Generated_Source\PSoC4/CapSense.c **** *  CapSense_sensorEnableMask[] - used to store bit masks of the enabled sensors.
 503:Generated_Source\PSoC4/CapSense.c **** *
 504:Generated_Source\PSoC4/CapSense.c **** * Side Effects:
 505:Generated_Source\PSoC4/CapSense.c **** *  This function affects the  current scanning and should not
 506:Generated_Source\PSoC4/CapSense.c **** *  be used outside the component.
 507:Generated_Source\PSoC4/CapSense.c **** *
 508:Generated_Source\PSoC4/CapSense.c **** *******************************************************************************/
 509:Generated_Source\PSoC4/CapSense.c **** uint8 CapSense_FindNextSensor(uint8 snsIndex)
 510:Generated_Source\PSoC4/CapSense.c **** {
 511:Generated_Source\PSoC4/CapSense.c ****     uint32 enableFlag;
 512:Generated_Source\PSoC4/CapSense.c **** 
 513:Generated_Source\PSoC4/CapSense.c ****     /* Check if sensor enabled */
 514:Generated_Source\PSoC4/CapSense.c ****     do
 515:Generated_Source\PSoC4/CapSense.c ****     {
 516:Generated_Source\PSoC4/CapSense.c ****         /* Proceed with next sensor */
 517:Generated_Source\PSoC4/CapSense.c ****         snsIndex++;
 518:Generated_Source\PSoC4/CapSense.c ****         if(snsIndex == CapSense_TOTAL_SENSOR_COUNT)
 519:Generated_Source\PSoC4/CapSense.c ****         {
 520:Generated_Source\PSoC4/CapSense.c ****             break;
 521:Generated_Source\PSoC4/CapSense.c ****         }
 522:Generated_Source\PSoC4/CapSense.c ****         enableFlag = CapSense_GetBitValue(CapSense_sensorEnableMask, (uint32)snsIndex);
 523:Generated_Source\PSoC4/CapSense.c ****     }
 524:Generated_Source\PSoC4/CapSense.c ****     while(enableFlag == 0u);
 525:Generated_Source\PSoC4/CapSense.c **** 
 526:Generated_Source\PSoC4/CapSense.c ****     return ((uint8)snsIndex);
 527:Generated_Source\PSoC4/CapSense.c **** }
 528:Generated_Source\PSoC4/CapSense.c **** 
 529:Generated_Source\PSoC4/CapSense.c **** 
 530:Generated_Source\PSoC4/CapSense.c **** /*******************************************************************************
 531:Generated_Source\PSoC4/CapSense.c **** * Function Name: CapSense_ScanSensor
 532:Generated_Source\PSoC4/CapSense.c **** ********************************************************************************
 533:Generated_Source\PSoC4/CapSense.c **** *
 534:Generated_Source\PSoC4/CapSense.c **** * Summary:
 535:Generated_Source\PSoC4/CapSense.c **** *  Sets the scan settings and starts scanning a sensor. After scanning is complete,
 536:Generated_Source\PSoC4/CapSense.c **** *  the ISR copies the measured sensor raw data to the global raw sensor array.
 537:Generated_Source\PSoC4/CapSense.c **** *  Use of the ISR ensures this function is non-blocking.
 538:Generated_Source\PSoC4/CapSense.c **** *  Each sensor has a unique number within the sensor array.
 539:Generated_Source\PSoC4/CapSense.c **** *  This number is assigned by the CapSense customizer in sequence.
 540:Generated_Source\PSoC4/CapSense.c **** *
 541:Generated_Source\PSoC4/CapSense.c **** * Parameters:
 542:Generated_Source\PSoC4/CapSense.c **** *  sensor:  Sensor number.
 543:Generated_Source\PSoC4/CapSense.c **** *
 544:Generated_Source\PSoC4/CapSense.c **** * Return:
 545:Generated_Source\PSoC4/CapSense.c **** *  None
 546:Generated_Source\PSoC4/CapSense.c **** *
 547:Generated_Source\PSoC4/CapSense.c **** * Global Variables:
 548:Generated_Source\PSoC4/CapSense.c **** *  CapSense_csdStatusVar - used to provide the status and mode of the scanning process.
 549:Generated_Source\PSoC4/CapSense.c **** *  Sets the busy status(scan in progress) and mode of scan as single scan.
 550:Generated_Source\PSoC4/CapSense.c **** *  CapSense_sensorIndex - used to store a sensor scanning sensor number.
 551:Generated_Source\PSoC4/CapSense.c **** *  Sets to the provided sensor argument.
 552:Generated_Source\PSoC4/CapSense.c **** *
 553:Generated_Source\PSoC4/CapSense.c **** * Side Effects:
ARM GAS  C:\Users\SHOZO\AppData\Local\Temp\ccICMltU.s 			page 15


 554:Generated_Source\PSoC4/CapSense.c **** *  None
 555:Generated_Source\PSoC4/CapSense.c **** *
 556:Generated_Source\PSoC4/CapSense.c **** *******************************************************************************/
 557:Generated_Source\PSoC4/CapSense.c **** void CapSense_ScanSensor(uint32 sensor)
 558:Generated_Source\PSoC4/CapSense.c **** {
 559:Generated_Source\PSoC4/CapSense.c ****     /* Clears status/control variable and set sensorIndex */
 560:Generated_Source\PSoC4/CapSense.c ****     CapSense_csdStatusVar = 0u;
 561:Generated_Source\PSoC4/CapSense.c ****     CapSense_sensorIndex = (uint8)sensor;
 562:Generated_Source\PSoC4/CapSense.c **** 
 563:Generated_Source\PSoC4/CapSense.c ****     /* Start of sensor scan */
 564:Generated_Source\PSoC4/CapSense.c ****     CapSense_csdStatusVar = (CapSense_SW_STS_BUSY | CapSense_SW_CTRL_SINGLE_SCAN);
 565:Generated_Source\PSoC4/CapSense.c ****     CapSense_PreScan(sensor);
 566:Generated_Source\PSoC4/CapSense.c **** }
 567:Generated_Source\PSoC4/CapSense.c **** 
 568:Generated_Source\PSoC4/CapSense.c **** 
 569:Generated_Source\PSoC4/CapSense.c **** #if(0u != CapSense_CSHL_API_GENERATE)
 570:Generated_Source\PSoC4/CapSense.c **** /*******************************************************************************
 571:Generated_Source\PSoC4/CapSense.c **** * Function Name: CapSense_ScanWidget
 572:Generated_Source\PSoC4/CapSense.c **** ********************************************************************************
 573:Generated_Source\PSoC4/CapSense.c **** *
 574:Generated_Source\PSoC4/CapSense.c **** * Summary:
 575:Generated_Source\PSoC4/CapSense.c **** *  Sets the scan settings and starts scanning a widget.
 576:Generated_Source\PSoC4/CapSense.c **** *
 577:Generated_Source\PSoC4/CapSense.c **** * Parameters:
 578:Generated_Source\PSoC4/CapSense.c **** *  uint32 widget: Widget number.
 579:Generated_Source\PSoC4/CapSense.c **** *
 580:Generated_Source\PSoC4/CapSense.c **** * Return:
 581:Generated_Source\PSoC4/CapSense.c **** *  None
 582:Generated_Source\PSoC4/CapSense.c **** *
 583:Generated_Source\PSoC4/CapSense.c **** * Global Variables:
 584:Generated_Source\PSoC4/CapSense.c **** *  CapSense_csdStatusVar - used to provide the status and mode of the scanning process.
 585:Generated_Source\PSoC4/CapSense.c **** *  Sets the busy status(scan in progress) and clears the single scan mode.
 586:Generated_Source\PSoC4/CapSense.c **** *  CapSense_sensorIndex - used to store a sensor scanning sensor number.
 587:Generated_Source\PSoC4/CapSense.c **** *  Sets to 0xFF and provided to function CapSense_FindNextSensor or
 588:Generated_Source\PSoC4/CapSense.c **** *  CapSense_sensorEnableMask[] - used to store bit masks of the enabled sensors.
 589:Generated_Source\PSoC4/CapSense.c **** *  CapSense_sensorEnableMaskBackup[] - used to backup bit masks of the enabled
 590:Generated_Source\PSoC4/CapSense.c **** *   sensors.
 591:Generated_Source\PSoC4/CapSense.c **** *
 592:Generated_Source\PSoC4/CapSense.c **** * Side Effects:
 593:Generated_Source\PSoC4/CapSense.c **** *  None
 594:Generated_Source\PSoC4/CapSense.c **** *
 595:Generated_Source\PSoC4/CapSense.c **** *******************************************************************************/
 596:Generated_Source\PSoC4/CapSense.c **** void CapSense_ScanWidget(uint32 widget)
 597:Generated_Source\PSoC4/CapSense.c **** {
 598:Generated_Source\PSoC4/CapSense.c ****     uint32 sensorsPerWidget;
 599:Generated_Source\PSoC4/CapSense.c ****     uint32 lastSensor;
 600:Generated_Source\PSoC4/CapSense.c ****     uint32 snsIndex;
 601:Generated_Source\PSoC4/CapSense.c **** 
 602:Generated_Source\PSoC4/CapSense.c ****     /* Get first sensor in widget */
 603:Generated_Source\PSoC4/CapSense.c ****     CapSense_sensorIndex = CapSense_rawDataIndex[widget];
 604:Generated_Source\PSoC4/CapSense.c **** 
 605:Generated_Source\PSoC4/CapSense.c ****     /* Get number of sensors in widget */
 606:Generated_Source\PSoC4/CapSense.c ****     sensorsPerWidget = CapSense_numberOfSensors[widget];
 607:Generated_Source\PSoC4/CapSense.c **** 
 608:Generated_Source\PSoC4/CapSense.c ****     /* Check if generic Sensor */
 609:Generated_Source\PSoC4/CapSense.c ****     if(sensorsPerWidget == 0u)
 610:Generated_Source\PSoC4/CapSense.c ****     {
ARM GAS  C:\Users\SHOZO\AppData\Local\Temp\ccICMltU.s 			page 16


 611:Generated_Source\PSoC4/CapSense.c ****         sensorsPerWidget = 1u;
 612:Generated_Source\PSoC4/CapSense.c ****     }
 613:Generated_Source\PSoC4/CapSense.c **** 
 614:Generated_Source\PSoC4/CapSense.c ****     /* Get last sensor in widget */
 615:Generated_Source\PSoC4/CapSense.c ****     lastSensor = (CapSense_rawDataIndex[widget] + sensorsPerWidget) - 1u;
 616:Generated_Source\PSoC4/CapSense.c **** 
 617:Generated_Source\PSoC4/CapSense.c ****     /* Backup sensorEnableMask array */
 618:Generated_Source\PSoC4/CapSense.c ****     for(snsIndex = 0u; snsIndex < CapSense_TOTAL_SENSOR_MASK; snsIndex++)
 619:Generated_Source\PSoC4/CapSense.c ****     {
 620:Generated_Source\PSoC4/CapSense.c ****         /* Backup sensorEnableMask array */
 621:Generated_Source\PSoC4/CapSense.c ****         CapSense_sensorEnableMaskBackup[snsIndex] = CapSense_sensorEnableMask[snsIndex];
 622:Generated_Source\PSoC4/CapSense.c ****     }
 623:Generated_Source\PSoC4/CapSense.c **** 
 624:Generated_Source\PSoC4/CapSense.c ****     /* Update sensorEnableMask to scan the sensors that belong to widget */
 625:Generated_Source\PSoC4/CapSense.c ****     for(snsIndex = 0u; snsIndex < CapSense_TOTAL_SENSOR_COUNT; snsIndex++)
 626:Generated_Source\PSoC4/CapSense.c ****     {
 627:Generated_Source\PSoC4/CapSense.c ****         /* Update sensorEnableMask array bits to scan the widget only */
 628:Generated_Source\PSoC4/CapSense.c ****         if((snsIndex >= CapSense_sensorIndex) && (snsIndex <= lastSensor))
 629:Generated_Source\PSoC4/CapSense.c ****         {
 630:Generated_Source\PSoC4/CapSense.c ****             /* Set sensor bit to scan */
 631:Generated_Source\PSoC4/CapSense.c ****             CapSense_SetBitValue(CapSense_sensorEnableMask, snsIndex, 1u);
 632:Generated_Source\PSoC4/CapSense.c ****         }
 633:Generated_Source\PSoC4/CapSense.c ****         else
 634:Generated_Source\PSoC4/CapSense.c ****         {
 635:Generated_Source\PSoC4/CapSense.c ****             /* Reset sensor bit to do not scan */
 636:Generated_Source\PSoC4/CapSense.c ****             CapSense_SetBitValue(CapSense_sensorEnableMask, snsIndex, 0u);
 637:Generated_Source\PSoC4/CapSense.c ****         }
 638:Generated_Source\PSoC4/CapSense.c ****     }
 639:Generated_Source\PSoC4/CapSense.c **** 
 640:Generated_Source\PSoC4/CapSense.c ****     /* Check end of scan condition */
 641:Generated_Source\PSoC4/CapSense.c ****     if(CapSense_sensorIndex < CapSense_TOTAL_SENSOR_COUNT)
 642:Generated_Source\PSoC4/CapSense.c ****     {
 643:Generated_Source\PSoC4/CapSense.c ****         /* Set widget busy bit in status/control variable*/
 644:Generated_Source\PSoC4/CapSense.c ****         CapSense_csdStatusVar = (CapSense_SW_STS_BUSY | CapSense_SW_CTRL_WIDGET_SCAN);
 645:Generated_Source\PSoC4/CapSense.c ****         /* Scan first sensor of widget*/
 646:Generated_Source\PSoC4/CapSense.c ****         CapSense_PreScan((uint32)CapSense_sensorIndex);
 647:Generated_Source\PSoC4/CapSense.c ****     }
 648:Generated_Source\PSoC4/CapSense.c **** }
 649:Generated_Source\PSoC4/CapSense.c **** #endif /* (0u != CapSense_CSHL_API_GENERATE) */
 650:Generated_Source\PSoC4/CapSense.c **** 
 651:Generated_Source\PSoC4/CapSense.c **** 
 652:Generated_Source\PSoC4/CapSense.c **** /*******************************************************************************
 653:Generated_Source\PSoC4/CapSense.c **** * Function Name: CapSense_ScanEnableWidgets
 654:Generated_Source\PSoC4/CapSense.c **** ********************************************************************************
 655:Generated_Source\PSoC4/CapSense.c **** *
 656:Generated_Source\PSoC4/CapSense.c **** * Summary:
 657:Generated_Source\PSoC4/CapSense.c **** *  This is the preferred method to scan all of the enabled widgets.
 658:Generated_Source\PSoC4/CapSense.c **** *  The API starts scanning a sensor within the enabled widgets.
 659:Generated_Source\PSoC4/CapSense.c **** *  The ISR continues scanning the sensors until all the enabled widgets are scanned.
 660:Generated_Source\PSoC4/CapSense.c **** *  Use of the ISR ensures this function is non-blocking.
 661:Generated_Source\PSoC4/CapSense.c **** *  All the widgets are enabled by default except proximity widgets.
 662:Generated_Source\PSoC4/CapSense.c **** *  The proximity widgets must be manually enabled as their long scan time
 663:Generated_Source\PSoC4/CapSense.c **** *  is incompatible with a fast response required of other widget types.
 664:Generated_Source\PSoC4/CapSense.c **** *
 665:Generated_Source\PSoC4/CapSense.c **** * Parameters:
 666:Generated_Source\PSoC4/CapSense.c **** *  None
 667:Generated_Source\PSoC4/CapSense.c **** *
ARM GAS  C:\Users\SHOZO\AppData\Local\Temp\ccICMltU.s 			page 17


 668:Generated_Source\PSoC4/CapSense.c **** * Return:
 669:Generated_Source\PSoC4/CapSense.c **** *  None
 670:Generated_Source\PSoC4/CapSense.c **** *
 671:Generated_Source\PSoC4/CapSense.c **** * Global Variables:
 672:Generated_Source\PSoC4/CapSense.c **** *  CapSense_csdStatusVar - used to provide the status and mode of the scanning process.
 673:Generated_Source\PSoC4/CapSense.c **** *  Sets the busy status(scan in progress) and clears the single scan mode.
 674:Generated_Source\PSoC4/CapSense.c **** *  CapSense_sensorIndex - used to store a sensor scanning sensor number.
 675:Generated_Source\PSoC4/CapSense.c **** *  Sets to 0xFF and provided to function CapSense_FindNextSensor or
 676:Generated_Source\PSoC4/CapSense.c **** *
 677:Generated_Source\PSoC4/CapSense.c **** * Side Effects:
 678:Generated_Source\PSoC4/CapSense.c **** *  None
 679:Generated_Source\PSoC4/CapSense.c **** *
 680:Generated_Source\PSoC4/CapSense.c **** *******************************************************************************/
 681:Generated_Source\PSoC4/CapSense.c **** void CapSense_ScanEnabledWidgets(void)
 682:Generated_Source\PSoC4/CapSense.c **** {
 683:Generated_Source\PSoC4/CapSense.c ****     /* Clears status/control variable and set sensorIndex */
 684:Generated_Source\PSoC4/CapSense.c ****     CapSense_csdStatusVar = 0u;
 685:Generated_Source\PSoC4/CapSense.c ****     CapSense_sensorIndex = 0xFFu;
 686:Generated_Source\PSoC4/CapSense.c **** 
 687:Generated_Source\PSoC4/CapSense.c ****     /* Find next sensor */
 688:Generated_Source\PSoC4/CapSense.c ****     CapSense_sensorIndex = (uint8)CapSense_FindNextSensor(CapSense_sensorIndex);
 689:Generated_Source\PSoC4/CapSense.c **** 
 690:Generated_Source\PSoC4/CapSense.c ****     /* Check end of scan condition */
 691:Generated_Source\PSoC4/CapSense.c ****     if(CapSense_sensorIndex < CapSense_TOTAL_SENSOR_COUNT)
 692:Generated_Source\PSoC4/CapSense.c ****     {
 693:Generated_Source\PSoC4/CapSense.c ****         CapSense_csdStatusVar |= CapSense_SW_STS_BUSY;
 694:Generated_Source\PSoC4/CapSense.c ****         CapSense_PreScan((uint32)CapSense_sensorIndex);
 695:Generated_Source\PSoC4/CapSense.c ****     }
 696:Generated_Source\PSoC4/CapSense.c **** }
 697:Generated_Source\PSoC4/CapSense.c **** 
 698:Generated_Source\PSoC4/CapSense.c **** 
 699:Generated_Source\PSoC4/CapSense.c **** /*******************************************************************************
 700:Generated_Source\PSoC4/CapSense.c **** * Function Name: CapSense_IsBusy
 701:Generated_Source\PSoC4/CapSense.c **** ********************************************************************************
 702:Generated_Source\PSoC4/CapSense.c **** *
 703:Generated_Source\PSoC4/CapSense.c **** * Summary:
 704:Generated_Source\PSoC4/CapSense.c **** *  Returns the state of the CapSense component. 1 means that scanning in
 705:Generated_Source\PSoC4/CapSense.c **** *  progress and 0 means that scanning is complete.
 706:Generated_Source\PSoC4/CapSense.c **** *
 707:Generated_Source\PSoC4/CapSense.c **** * Parameters:
 708:Generated_Source\PSoC4/CapSense.c **** *  None
 709:Generated_Source\PSoC4/CapSense.c **** *
 710:Generated_Source\PSoC4/CapSense.c **** * Return:
 711:Generated_Source\PSoC4/CapSense.c **** *  Returns the state of scanning. 1 - scanning in progress, 0 - scanning
 712:Generated_Source\PSoC4/CapSense.c **** *  completed.
 713:Generated_Source\PSoC4/CapSense.c **** *
 714:Generated_Source\PSoC4/CapSense.c **** * Global Variables:
 715:Generated_Source\PSoC4/CapSense.c **** *  CapSense_csdStatusVar - used to provide the status and mode of the scanning process.
 716:Generated_Source\PSoC4/CapSense.c **** *  Checks the busy status.
 717:Generated_Source\PSoC4/CapSense.c **** *
 718:Generated_Source\PSoC4/CapSense.c **** * Side Effects:
 719:Generated_Source\PSoC4/CapSense.c **** *  None
 720:Generated_Source\PSoC4/CapSense.c **** *
 721:Generated_Source\PSoC4/CapSense.c **** *******************************************************************************/
 722:Generated_Source\PSoC4/CapSense.c **** uint32 CapSense_IsBusy(void)
 723:Generated_Source\PSoC4/CapSense.c **** {
 246              		.loc 1 723 0
ARM GAS  C:\Users\SHOZO\AppData\Local\Temp\ccICMltU.s 			page 18


 247              		.cfi_startproc
 248              		@ args = 0, pretend = 0, frame = 0
 249              		@ frame_needed = 0, uses_anonymous_args = 0
 250              		@ link register save eliminated.
 724:Generated_Source\PSoC4/CapSense.c ****     return ((uint32)((0u != (CapSense_csdStatusVar & CapSense_SW_STS_BUSY)) ? 1u : 0u));
 251              		.loc 1 724 0
 252 0000 024B     		ldr	r3, .L11
 253 0002 1878     		ldrb	r0, [r3]
 254 0004 0123     		movs	r3, #1
 255 0006 1840     		ands	r0, r3
 725:Generated_Source\PSoC4/CapSense.c **** }
 256              		.loc 1 725 0
 257              		@ sp needed
 258 0008 7047     		bx	lr
 259              	.L12:
 260 000a C046     		.align	2
 261              	.L11:
 262 000c 00000000 		.word	.LANCHOR0
 263              		.cfi_endproc
 264              	.LFE41:
 265              		.size	CapSense_IsBusy, .-CapSense_IsBusy
 266              		.section	.text.CapSense_ReadSensorRaw,"ax",%progbits
 267              		.align	2
 268              		.global	CapSense_ReadSensorRaw
 269              		.code	16
 270              		.thumb_func
 271              		.type	CapSense_ReadSensorRaw, %function
 272              	CapSense_ReadSensorRaw:
 273              	.LFB42:
 726:Generated_Source\PSoC4/CapSense.c **** 
 727:Generated_Source\PSoC4/CapSense.c **** 
 728:Generated_Source\PSoC4/CapSense.c **** /*******************************************************************************
 729:Generated_Source\PSoC4/CapSense.c **** * Function Name: CapSense_ReadSensorRaw
 730:Generated_Source\PSoC4/CapSense.c **** ********************************************************************************
 731:Generated_Source\PSoC4/CapSense.c **** *
 732:Generated_Source\PSoC4/CapSense.c **** * Summary:
 733:Generated_Source\PSoC4/CapSense.c **** *  Returns sensor raw data from the global CapSense_sensorRaw[ ] array.
 734:Generated_Source\PSoC4/CapSense.c **** *  Each scan sensor has a unique number within the sensor array.
 735:Generated_Source\PSoC4/CapSense.c **** *  This number is assigned by the CapSense customizer in sequence.
 736:Generated_Source\PSoC4/CapSense.c **** *  Raw data can be used to perform calculations outside of the CapSense
 737:Generated_Source\PSoC4/CapSense.c **** *  provided framework.
 738:Generated_Source\PSoC4/CapSense.c **** *
 739:Generated_Source\PSoC4/CapSense.c **** * Parameters:
 740:Generated_Source\PSoC4/CapSense.c **** *  sensor:  Sensor number.
 741:Generated_Source\PSoC4/CapSense.c **** *
 742:Generated_Source\PSoC4/CapSense.c **** * Return:
 743:Generated_Source\PSoC4/CapSense.c **** *  Returns the current raw data value for a defined sensor number.
 744:Generated_Source\PSoC4/CapSense.c **** *
 745:Generated_Source\PSoC4/CapSense.c **** * Global Variables:
 746:Generated_Source\PSoC4/CapSense.c **** *  CapSense_sensorRaw[] - used to store sensors raw data.
 747:Generated_Source\PSoC4/CapSense.c **** *
 748:Generated_Source\PSoC4/CapSense.c **** * Side Effects:
 749:Generated_Source\PSoC4/CapSense.c **** *  None
 750:Generated_Source\PSoC4/CapSense.c **** *
 751:Generated_Source\PSoC4/CapSense.c **** *******************************************************************************/
 752:Generated_Source\PSoC4/CapSense.c **** uint16 CapSense_ReadSensorRaw(uint32 sensor)
 753:Generated_Source\PSoC4/CapSense.c **** {
ARM GAS  C:\Users\SHOZO\AppData\Local\Temp\ccICMltU.s 			page 19


 274              		.loc 1 753 0
 275              		.cfi_startproc
 276              		@ args = 0, pretend = 0, frame = 0
 277              		@ frame_needed = 0, uses_anonymous_args = 0
 278              		@ link register save eliminated.
 279              	.LVL26:
 754:Generated_Source\PSoC4/CapSense.c ****     return CapSense_sensorRaw[sensor];
 280              		.loc 1 754 0
 281 0000 4000     		lsls	r0, r0, #1
 282              	.LVL27:
 283 0002 024B     		ldr	r3, .L14
 284 0004 1818     		adds	r0, r3, r0
 285 0006 8088     		ldrh	r0, [r0, #4]
 755:Generated_Source\PSoC4/CapSense.c **** }
 286              		.loc 1 755 0
 287              		@ sp needed
 288 0008 7047     		bx	lr
 289              	.L15:
 290 000a C046     		.align	2
 291              	.L14:
 292 000c 00000000 		.word	.LANCHOR0
 293              		.cfi_endproc
 294              	.LFE42:
 295              		.size	CapSense_ReadSensorRaw, .-CapSense_ReadSensorRaw
 296              		.section	.text.CapSense_WriteSensorRaw,"ax",%progbits
 297              		.align	2
 298              		.global	CapSense_WriteSensorRaw
 299              		.code	16
 300              		.thumb_func
 301              		.type	CapSense_WriteSensorRaw, %function
 302              	CapSense_WriteSensorRaw:
 303              	.LFB43:
 756:Generated_Source\PSoC4/CapSense.c **** 
 757:Generated_Source\PSoC4/CapSense.c **** 
 758:Generated_Source\PSoC4/CapSense.c **** /*******************************************************************************
 759:Generated_Source\PSoC4/CapSense.c **** * Function Name: CapSense_WriteSensorRaw
 760:Generated_Source\PSoC4/CapSense.c **** ********************************************************************************
 761:Generated_Source\PSoC4/CapSense.c **** *
 762:Generated_Source\PSoC4/CapSense.c **** * Summary:
 763:Generated_Source\PSoC4/CapSense.c **** *  This API writes the raw count value passed as an argument to the sensor Raw count array.
 764:Generated_Source\PSoC4/CapSense.c **** *
 765:Generated_Source\PSoC4/CapSense.c **** * Parameters:
 766:Generated_Source\PSoC4/CapSense.c **** *  sensor:  Sensor number.
 767:Generated_Source\PSoC4/CapSense.c **** *  value: Raw count value.
 768:Generated_Source\PSoC4/CapSense.c **** *
 769:Generated_Source\PSoC4/CapSense.c **** * Global Variables:
 770:Generated_Source\PSoC4/CapSense.c **** *  CapSense_sensorRaw[] - used to store sensors raw data.
 771:Generated_Source\PSoC4/CapSense.c **** *
 772:Generated_Source\PSoC4/CapSense.c **** * Return:
 773:Generated_Source\PSoC4/CapSense.c **** *  None
 774:Generated_Source\PSoC4/CapSense.c **** *
 775:Generated_Source\PSoC4/CapSense.c **** * Side Effects:
 776:Generated_Source\PSoC4/CapSense.c **** *  None
 777:Generated_Source\PSoC4/CapSense.c **** *
 778:Generated_Source\PSoC4/CapSense.c **** *******************************************************************************/
 779:Generated_Source\PSoC4/CapSense.c **** void CapSense_WriteSensorRaw(uint32 sensor, uint16 value)
 780:Generated_Source\PSoC4/CapSense.c **** {
ARM GAS  C:\Users\SHOZO\AppData\Local\Temp\ccICMltU.s 			page 20


 304              		.loc 1 780 0
 305              		.cfi_startproc
 306              		@ args = 0, pretend = 0, frame = 0
 307              		@ frame_needed = 0, uses_anonymous_args = 0
 308              		@ link register save eliminated.
 309              	.LVL28:
 781:Generated_Source\PSoC4/CapSense.c ****     CapSense_sensorRaw[sensor] = value;
 310              		.loc 1 781 0
 311 0000 4000     		lsls	r0, r0, #1
 312              	.LVL29:
 313 0002 024B     		ldr	r3, .L17
 314 0004 1818     		adds	r0, r3, r0
 315 0006 8180     		strh	r1, [r0, #4]
 782:Generated_Source\PSoC4/CapSense.c **** }
 316              		.loc 1 782 0
 317              		@ sp needed
 318 0008 7047     		bx	lr
 319              	.L18:
 320 000a C046     		.align	2
 321              	.L17:
 322 000c 00000000 		.word	.LANCHOR0
 323              		.cfi_endproc
 324              	.LFE43:
 325              		.size	CapSense_WriteSensorRaw, .-CapSense_WriteSensorRaw
 326              		.section	.text.CapSense_GetScanResolution,"ax",%progbits
 327              		.align	2
 328              		.global	CapSense_GetScanResolution
 329              		.code	16
 330              		.thumb_func
 331              		.type	CapSense_GetScanResolution, %function
 332              	CapSense_GetScanResolution:
 333              	.LFB44:
 783:Generated_Source\PSoC4/CapSense.c **** 
 784:Generated_Source\PSoC4/CapSense.c **** 
 785:Generated_Source\PSoC4/CapSense.c **** #if (CapSense_TUNING_METHOD != CapSense__TUNING_NONE)
 786:Generated_Source\PSoC4/CapSense.c ****     /*******************************************************************************
 787:Generated_Source\PSoC4/CapSense.c ****     * Function Name: CapSense_SetScanResolution
 788:Generated_Source\PSoC4/CapSense.c ****     ********************************************************************************
 789:Generated_Source\PSoC4/CapSense.c ****     *
 790:Generated_Source\PSoC4/CapSense.c ****     * Summary:
 791:Generated_Source\PSoC4/CapSense.c ****     *  Sets a value of the sensor scan resolution for a widget.
 792:Generated_Source\PSoC4/CapSense.c ****     *  The MIN resolution can be set 8-bit. The MAX Resolution can be set 16 bit.
 793:Generated_Source\PSoC4/CapSense.c ****     *  This function is not available for the tuning mode "None".
 794:Generated_Source\PSoC4/CapSense.c ****     *
 795:Generated_Source\PSoC4/CapSense.c ****     * Parameters:
 796:Generated_Source\PSoC4/CapSense.c ****     *  widget:     Widget index.
 797:Generated_Source\PSoC4/CapSense.c ****     *  resolution: Represents the resolution value. The following defines which are available in th
 798:Generated_Source\PSoC4/CapSense.c ****     *              CapSense.h file should be used:
 799:Generated_Source\PSoC4/CapSense.c ****     *              CapSense_RESOLUTION_6_BITS
 800:Generated_Source\PSoC4/CapSense.c ****     *              CapSense_RESOLUTION_7_BITS
 801:Generated_Source\PSoC4/CapSense.c ****     *              CapSense_RESOLUTION_8_BITS
 802:Generated_Source\PSoC4/CapSense.c ****     *              CapSense_RESOLUTION_9_BITS
 803:Generated_Source\PSoC4/CapSense.c ****     *              CapSense_RESOLUTION_10_BITS
 804:Generated_Source\PSoC4/CapSense.c ****     *              CapSense_RESOLUTION_11_BITS
 805:Generated_Source\PSoC4/CapSense.c ****     *              CapSense_RESOLUTION_12_BITS
 806:Generated_Source\PSoC4/CapSense.c ****     *              CapSense_RESOLUTION_13_BITS
 807:Generated_Source\PSoC4/CapSense.c ****     *              CapSense_RESOLUTION_14_BITS
ARM GAS  C:\Users\SHOZO\AppData\Local\Temp\ccICMltU.s 			page 21


 808:Generated_Source\PSoC4/CapSense.c ****     *              CapSense_RESOLUTION_15_BITS
 809:Generated_Source\PSoC4/CapSense.c ****     *              CapSense_RESOLUTION_16_BITS
 810:Generated_Source\PSoC4/CapSense.c ****     *
 811:Generated_Source\PSoC4/CapSense.c ****     * Return:
 812:Generated_Source\PSoC4/CapSense.c ****     *  None
 813:Generated_Source\PSoC4/CapSense.c ****     *
 814:Generated_Source\PSoC4/CapSense.c ****     * Global Variables:
 815:Generated_Source\PSoC4/CapSense.c ****     *  CapSense_widgetResolution[] - used to store scan resolution of each widget.
 816:Generated_Source\PSoC4/CapSense.c ****     *
 817:Generated_Source\PSoC4/CapSense.c ****     * Side Effects:
 818:Generated_Source\PSoC4/CapSense.c ****     *  None
 819:Generated_Source\PSoC4/CapSense.c ****     *
 820:Generated_Source\PSoC4/CapSense.c ****     *******************************************************************************/
 821:Generated_Source\PSoC4/CapSense.c ****     void CapSense_SetScanResolution(uint32 widget, uint32 resolution)
 822:Generated_Source\PSoC4/CapSense.c ****     {
 823:Generated_Source\PSoC4/CapSense.c ****         CapSense_widgetResolution[widget] = resolution;
 824:Generated_Source\PSoC4/CapSense.c ****     }
 825:Generated_Source\PSoC4/CapSense.c **** #endif /* (CapSense_TUNING_METHOD != CapSense__TUNING_NONE) */
 826:Generated_Source\PSoC4/CapSense.c **** 
 827:Generated_Source\PSoC4/CapSense.c **** 
 828:Generated_Source\PSoC4/CapSense.c **** /*******************************************************************************
 829:Generated_Source\PSoC4/CapSense.c **** * Function Name: CapSense_GetScanResolution
 830:Generated_Source\PSoC4/CapSense.c **** ********************************************************************************
 831:Generated_Source\PSoC4/CapSense.c **** *
 832:Generated_Source\PSoC4/CapSense.c **** * Summary:
 833:Generated_Source\PSoC4/CapSense.c **** *  Returns the resolution value for the appropriate sensor.
 834:Generated_Source\PSoC4/CapSense.c **** *  This function is not available for tuning mode "None".
 835:Generated_Source\PSoC4/CapSense.c **** *
 836:Generated_Source\PSoC4/CapSense.c **** * Parameters:
 837:Generated_Source\PSoC4/CapSense.c **** *  widget:     Widget index.
 838:Generated_Source\PSoC4/CapSense.c **** *
 839:Generated_Source\PSoC4/CapSense.c **** * Return:
 840:Generated_Source\PSoC4/CapSense.c **** *  resolution: Returns the resolution value for the appropriate sensor.
 841:Generated_Source\PSoC4/CapSense.c **** *              The resolution values are defined in the CapSense.h file
 842:Generated_Source\PSoC4/CapSense.c **** *              The defines are encountered below:
 843:Generated_Source\PSoC4/CapSense.c **** *              CapSense_RESOLUTION_6_BITS
 844:Generated_Source\PSoC4/CapSense.c **** *              CapSense_RESOLUTION_7_BITS
 845:Generated_Source\PSoC4/CapSense.c **** *              CapSense_RESOLUTION_8_BITS
 846:Generated_Source\PSoC4/CapSense.c **** *              CapSense_RESOLUTION_9_BITS
 847:Generated_Source\PSoC4/CapSense.c **** *              CapSense_RESOLUTION_10_BITS
 848:Generated_Source\PSoC4/CapSense.c **** *              CapSense_RESOLUTION_11_BITS
 849:Generated_Source\PSoC4/CapSense.c **** *              CapSense_RESOLUTION_12_BITS
 850:Generated_Source\PSoC4/CapSense.c **** *              CapSense_RESOLUTION_13_BITS
 851:Generated_Source\PSoC4/CapSense.c **** *              CapSense_RESOLUTION_14_BITS
 852:Generated_Source\PSoC4/CapSense.c **** *              CapSense_RESOLUTION_15_BITS
 853:Generated_Source\PSoC4/CapSense.c **** *              CapSense_RESOLUTION_16_BITS
 854:Generated_Source\PSoC4/CapSense.c **** *
 855:Generated_Source\PSoC4/CapSense.c **** * Global Variables:
 856:Generated_Source\PSoC4/CapSense.c **** *  CapSense_widgetResolution[] - used to store scan resolution of every widget.
 857:Generated_Source\PSoC4/CapSense.c **** *
 858:Generated_Source\PSoC4/CapSense.c **** * Side Effects:
 859:Generated_Source\PSoC4/CapSense.c **** *  None
 860:Generated_Source\PSoC4/CapSense.c **** *
 861:Generated_Source\PSoC4/CapSense.c **** *******************************************************************************/
 862:Generated_Source\PSoC4/CapSense.c **** uint32 CapSense_GetScanResolution(uint32 widget)
 863:Generated_Source\PSoC4/CapSense.c **** {
 334              		.loc 1 863 0
ARM GAS  C:\Users\SHOZO\AppData\Local\Temp\ccICMltU.s 			page 22


 335              		.cfi_startproc
 336              		@ args = 0, pretend = 0, frame = 0
 337              		@ frame_needed = 0, uses_anonymous_args = 0
 338              		@ link register save eliminated.
 339              	.LVL30:
 864:Generated_Source\PSoC4/CapSense.c ****     return(CapSense_widgetResolution[widget]);
 865:Generated_Source\PSoC4/CapSense.c **** }
 340              		.loc 1 865 0
 341 0000 0048     		ldr	r0, .L20
 342              	.LVL31:
 343              		@ sp needed
 344 0002 7047     		bx	lr
 345              	.L21:
 346              		.align	2
 347              	.L20:
 348 0004 0000FF03 		.word	67043328
 349              		.cfi_endproc
 350              	.LFE44:
 351              		.size	CapSense_GetScanResolution, .-CapSense_GetScanResolution
 352              		.section	.text.CapSense_EnableSensor,"ax",%progbits
 353              		.align	2
 354              		.global	CapSense_EnableSensor
 355              		.code	16
 356              		.thumb_func
 357              		.type	CapSense_EnableSensor, %function
 358              	CapSense_EnableSensor:
 359              	.LFB46:
 866:Generated_Source\PSoC4/CapSense.c **** 
 867:Generated_Source\PSoC4/CapSense.c **** 
 868:Generated_Source\PSoC4/CapSense.c **** /*******************************************************************************
 869:Generated_Source\PSoC4/CapSense.c **** * Function Name: CapSense_ClearSensors
 870:Generated_Source\PSoC4/CapSense.c **** ********************************************************************************
 871:Generated_Source\PSoC4/CapSense.c **** *
 872:Generated_Source\PSoC4/CapSense.c **** * Summary:
 873:Generated_Source\PSoC4/CapSense.c **** *  Resets all the sensors to the non-sampling state by sequentially disconnecting
 874:Generated_Source\PSoC4/CapSense.c **** *  all the sensors from Analog MUX Bus and putting them to an inactive state.
 875:Generated_Source\PSoC4/CapSense.c **** *
 876:Generated_Source\PSoC4/CapSense.c **** * Parameters:
 877:Generated_Source\PSoC4/CapSense.c **** *  None
 878:Generated_Source\PSoC4/CapSense.c **** *
 879:Generated_Source\PSoC4/CapSense.c **** * Return:
 880:Generated_Source\PSoC4/CapSense.c **** *  None
 881:Generated_Source\PSoC4/CapSense.c **** *
 882:Generated_Source\PSoC4/CapSense.c **** * Global Variables:
 883:Generated_Source\PSoC4/CapSense.c **** *  None
 884:Generated_Source\PSoC4/CapSense.c **** *
 885:Generated_Source\PSoC4/CapSense.c **** * Side Effects:
 886:Generated_Source\PSoC4/CapSense.c **** *  None
 887:Generated_Source\PSoC4/CapSense.c **** *
 888:Generated_Source\PSoC4/CapSense.c **** *******************************************************************************/
 889:Generated_Source\PSoC4/CapSense.c **** void CapSense_ClearSensors(void)
 890:Generated_Source\PSoC4/CapSense.c **** {
 891:Generated_Source\PSoC4/CapSense.c ****     uint32 snsIndex;
 892:Generated_Source\PSoC4/CapSense.c **** 
 893:Generated_Source\PSoC4/CapSense.c ****     for (snsIndex = 0u; snsIndex < CapSense_TOTAL_SENSOR_COUNT; snsIndex++)
 894:Generated_Source\PSoC4/CapSense.c ****     {
 895:Generated_Source\PSoC4/CapSense.c ****         CapSense_DisableScanSlot(snsIndex);
ARM GAS  C:\Users\SHOZO\AppData\Local\Temp\ccICMltU.s 			page 23


 896:Generated_Source\PSoC4/CapSense.c ****     }
 897:Generated_Source\PSoC4/CapSense.c **** }
 898:Generated_Source\PSoC4/CapSense.c **** 
 899:Generated_Source\PSoC4/CapSense.c **** 
 900:Generated_Source\PSoC4/CapSense.c **** #if (CapSense_IS_COMPLEX_SCANSLOTS)
 901:Generated_Source\PSoC4/CapSense.c ****     /*******************************************************************************
 902:Generated_Source\PSoC4/CapSense.c ****     * Function Name: CapSense_EnableScanSlot
 903:Generated_Source\PSoC4/CapSense.c ****     ********************************************************************************
 904:Generated_Source\PSoC4/CapSense.c ****     *
 905:Generated_Source\PSoC4/CapSense.c ****     * Summary:
 906:Generated_Source\PSoC4/CapSense.c ****     *  Configures the selected slot to measure during the next measurement
 907:Generated_Source\PSoC4/CapSense.c ****     *  cycle. The corresponding pin/pins are set to Analog High-Z mode and
 908:Generated_Source\PSoC4/CapSense.c ****     *  connected to the Analog Mux Bus. This also enables the comparator function.
 909:Generated_Source\PSoC4/CapSense.c ****     *
 910:Generated_Source\PSoC4/CapSense.c ****     * Parameters:
 911:Generated_Source\PSoC4/CapSense.c ****     *  slot:  Slot number.
 912:Generated_Source\PSoC4/CapSense.c ****     *
 913:Generated_Source\PSoC4/CapSense.c ****     * Return:
 914:Generated_Source\PSoC4/CapSense.c ****     *  None
 915:Generated_Source\PSoC4/CapSense.c ****     *
 916:Generated_Source\PSoC4/CapSense.c ****     * Global Constants:
 917:Generated_Source\PSoC4/CapSense.c ****     *  CapSense_portTable[]  - used to store the port number that pin
 918:Generated_Source\PSoC4/CapSense.c ****     *  belongs to for each sensor.
 919:Generated_Source\PSoC4/CapSense.c ****     *  CapSense_maskTable[]  - used to store the pin within the port for
 920:Generated_Source\PSoC4/CapSense.c ****     *  each sensor.
 921:Generated_Source\PSoC4/CapSense.c ****     *  CapSense_indexTable[] - used to store indexes of complex sensors.
 922:Generated_Source\PSoC4/CapSense.c ****     *  The offset and position in this array are stored in a port and mask table for
 923:Generated_Source\PSoC4/CapSense.c ****     *  complex sensors.
 924:Generated_Source\PSoC4/CapSense.c ****     *  Bit 7 (msb) is used to define the sensor type: single or complex.
 925:Generated_Source\PSoC4/CapSense.c ****     *
 926:Generated_Source\PSoC4/CapSense.c ****     * Side Effects:
 927:Generated_Source\PSoC4/CapSense.c ****     *  None
 928:Generated_Source\PSoC4/CapSense.c ****     *
 929:Generated_Source\PSoC4/CapSense.c ****     *******************************************************************************/
 930:Generated_Source\PSoC4/CapSense.c ****     void CapSense_EnableScanSlot(uint32 slot)
 931:Generated_Source\PSoC4/CapSense.c ****     {
 932:Generated_Source\PSoC4/CapSense.c ****         uint8 j;
 933:Generated_Source\PSoC4/CapSense.c ****         uint8 snsNumber;
 934:Generated_Source\PSoC4/CapSense.c ****         const uint8 *index;
 935:Generated_Source\PSoC4/CapSense.c ****         /* Read sensor type: single or complex */
 936:Generated_Source\PSoC4/CapSense.c ****         uint8 snsType = CapSense_portTable[slot];
 937:Generated_Source\PSoC4/CapSense.c **** 
 938:Generated_Source\PSoC4/CapSense.c ****         /* Check if sensor is complex */
 939:Generated_Source\PSoC4/CapSense.c ****         if ((snsType & CapSense_COMPLEX_SS_FLAG) == 0u)
 940:Generated_Source\PSoC4/CapSense.c ****         {
 941:Generated_Source\PSoC4/CapSense.c ****             /* Enable sensor (single) */
 942:Generated_Source\PSoC4/CapSense.c ****             CapSense_EnableSensor(slot);
 943:Generated_Source\PSoC4/CapSense.c ****         }
 944:Generated_Source\PSoC4/CapSense.c ****         else
 945:Generated_Source\PSoC4/CapSense.c ****         {
 946:Generated_Source\PSoC4/CapSense.c ****             /* Enable complex sensor */
 947:Generated_Source\PSoC4/CapSense.c ****             snsType &= ~CapSense_COMPLEX_SS_FLAG;
 948:Generated_Source\PSoC4/CapSense.c ****             index = &CapSense_indexTable[snsType];
 949:Generated_Source\PSoC4/CapSense.c ****             snsNumber = CapSense_maskTable[slot];
 950:Generated_Source\PSoC4/CapSense.c **** 
 951:Generated_Source\PSoC4/CapSense.c ****             for (j = 0u; j < snsNumber; j++)
 952:Generated_Source\PSoC4/CapSense.c ****             {
ARM GAS  C:\Users\SHOZO\AppData\Local\Temp\ccICMltU.s 			page 24


 953:Generated_Source\PSoC4/CapSense.c ****                 CapSense_EnableSensor(index[j]);
 954:Generated_Source\PSoC4/CapSense.c ****             }
 955:Generated_Source\PSoC4/CapSense.c ****         }
 956:Generated_Source\PSoC4/CapSense.c ****     }
 957:Generated_Source\PSoC4/CapSense.c **** 
 958:Generated_Source\PSoC4/CapSense.c **** 
 959:Generated_Source\PSoC4/CapSense.c ****     /*******************************************************************************
 960:Generated_Source\PSoC4/CapSense.c ****     * Function Name: CapSense_DisableScanSlot
 961:Generated_Source\PSoC4/CapSense.c ****     ********************************************************************************
 962:Generated_Source\PSoC4/CapSense.c ****     *
 963:Generated_Source\PSoC4/CapSense.c ****     * Summary:
 964:Generated_Source\PSoC4/CapSense.c ****     *  Disables the selected slot. The corresponding pin/pins is/are disconnected
 965:Generated_Source\PSoC4/CapSense.c ****     *  from the Analog Mux Bus and connected to GND, High_Z or Shield electrode.
 966:Generated_Source\PSoC4/CapSense.c ****     *
 967:Generated_Source\PSoC4/CapSense.c ****     * Parameters:
 968:Generated_Source\PSoC4/CapSense.c ****     *  slot:  Slot number.
 969:Generated_Source\PSoC4/CapSense.c ****     *
 970:Generated_Source\PSoC4/CapSense.c ****     * Return:
 971:Generated_Source\PSoC4/CapSense.c ****     *  None
 972:Generated_Source\PSoC4/CapSense.c ****     *
 973:Generated_Source\PSoC4/CapSense.c ****     * Global Variables:
 974:Generated_Source\PSoC4/CapSense.c ****     *  CapSense_portTable[]  - used to store the port number that pin
 975:Generated_Source\PSoC4/CapSense.c ****     *  belongs to for each sensor.
 976:Generated_Source\PSoC4/CapSense.c ****     *  CapSense_maskTable[]  - used to store the pin within the port for
 977:Generated_Source\PSoC4/CapSense.c ****     *  each sensor.
 978:Generated_Source\PSoC4/CapSense.c ****     *  CapSense_indexTable[] - used to store indexes of complex sensors.
 979:Generated_Source\PSoC4/CapSense.c ****     *  The offset and position in this array are stored in a port and mask table for
 980:Generated_Source\PSoC4/CapSense.c ****     *  complex sensors.
 981:Generated_Source\PSoC4/CapSense.c ****     *  7bit(msb) is used to define the sensor type: single or complex.
 982:Generated_Source\PSoC4/CapSense.c ****     *
 983:Generated_Source\PSoC4/CapSense.c ****     * Side Effects:
 984:Generated_Source\PSoC4/CapSense.c ****     *  None
 985:Generated_Source\PSoC4/CapSense.c ****     *
 986:Generated_Source\PSoC4/CapSense.c ****     *******************************************************************************/
 987:Generated_Source\PSoC4/CapSense.c ****     void CapSense_DisableScanSlot(uint32 slot)
 988:Generated_Source\PSoC4/CapSense.c ****     {
 989:Generated_Source\PSoC4/CapSense.c ****         uint8 j;
 990:Generated_Source\PSoC4/CapSense.c ****         uint8 snsNumber;
 991:Generated_Source\PSoC4/CapSense.c ****         const uint8 *index;
 992:Generated_Source\PSoC4/CapSense.c **** 
 993:Generated_Source\PSoC4/CapSense.c ****         /* Read sensor type: single or complex */
 994:Generated_Source\PSoC4/CapSense.c ****         uint8 snsType = CapSense_portTable[slot];
 995:Generated_Source\PSoC4/CapSense.c **** 
 996:Generated_Source\PSoC4/CapSense.c ****         /* Check if sensor is complex */
 997:Generated_Source\PSoC4/CapSense.c ****         if ((snsType & CapSense_COMPLEX_SS_FLAG) == 0u)
 998:Generated_Source\PSoC4/CapSense.c ****         {
 999:Generated_Source\PSoC4/CapSense.c ****             /* Disable sensor (single) */
1000:Generated_Source\PSoC4/CapSense.c ****             CapSense_DisableSensor(slot);
1001:Generated_Source\PSoC4/CapSense.c ****         }
1002:Generated_Source\PSoC4/CapSense.c ****         else
1003:Generated_Source\PSoC4/CapSense.c ****         {
1004:Generated_Source\PSoC4/CapSense.c ****             /* Disable complex sensor */
1005:Generated_Source\PSoC4/CapSense.c ****             snsType &= ~CapSense_COMPLEX_SS_FLAG;
1006:Generated_Source\PSoC4/CapSense.c ****             index = &CapSense_indexTable[snsType];
1007:Generated_Source\PSoC4/CapSense.c ****             snsNumber = CapSense_maskTable[slot];
1008:Generated_Source\PSoC4/CapSense.c **** 
1009:Generated_Source\PSoC4/CapSense.c ****             for (j=0; j < snsNumber; j++)
ARM GAS  C:\Users\SHOZO\AppData\Local\Temp\ccICMltU.s 			page 25


1010:Generated_Source\PSoC4/CapSense.c ****             {
1011:Generated_Source\PSoC4/CapSense.c ****                 CapSense_DisableSensor(index[j]);
1012:Generated_Source\PSoC4/CapSense.c ****             }
1013:Generated_Source\PSoC4/CapSense.c ****         }
1014:Generated_Source\PSoC4/CapSense.c ****     }
1015:Generated_Source\PSoC4/CapSense.c **** #endif  /* CapSense_IS_COMPLEX_SCANSLOTS */
1016:Generated_Source\PSoC4/CapSense.c **** 
1017:Generated_Source\PSoC4/CapSense.c **** 
1018:Generated_Source\PSoC4/CapSense.c **** /*******************************************************************************
1019:Generated_Source\PSoC4/CapSense.c **** * Function Name: CapSense_EnableSensor
1020:Generated_Source\PSoC4/CapSense.c **** ********************************************************************************
1021:Generated_Source\PSoC4/CapSense.c **** *
1022:Generated_Source\PSoC4/CapSense.c **** * Summary:
1023:Generated_Source\PSoC4/CapSense.c **** *  Configures the selected sensor to measure during the next measurement cycle.
1024:Generated_Source\PSoC4/CapSense.c **** *  The corresponding pins are set to Analog High-Z mode and connected to the
1025:Generated_Source\PSoC4/CapSense.c **** *  Analog Mux Bus. This also enables the comparator function.
1026:Generated_Source\PSoC4/CapSense.c **** *
1027:Generated_Source\PSoC4/CapSense.c **** * Parameters:
1028:Generated_Source\PSoC4/CapSense.c **** *  sensor:  Sensor number.
1029:Generated_Source\PSoC4/CapSense.c **** *
1030:Generated_Source\PSoC4/CapSense.c **** * Return:
1031:Generated_Source\PSoC4/CapSense.c **** *  None
1032:Generated_Source\PSoC4/CapSense.c **** *
1033:Generated_Source\PSoC4/CapSense.c **** * Global Variables:
1034:Generated_Source\PSoC4/CapSense.c **** *  CapSense_portTable[] - used to store the port number that pin
1035:Generated_Source\PSoC4/CapSense.c **** *  belongs to for each sensor.
1036:Generated_Source\PSoC4/CapSense.c **** *  CapSense_pinShiftTbl[] - used to store position of pin that
1037:Generated_Source\PSoC4/CapSense.c **** *  configured as sensor in port.
1038:Generated_Source\PSoC4/CapSense.c **** *  CapSense_prtSelTbl[] - Contains pointers to the HSIOM
1039:Generated_Source\PSoC4/CapSense.c **** *  registers for each port.
1040:Generated_Source\PSoC4/CapSense.c **** *  CapSense_PrtCfgTb[] - Contains pointers to the port config
1041:Generated_Source\PSoC4/CapSense.c **** *  registers for each port.
1042:Generated_Source\PSoC4/CapSense.c **** *
1043:Generated_Source\PSoC4/CapSense.c **** * Side Effects:
1044:Generated_Source\PSoC4/CapSense.c **** *  None
1045:Generated_Source\PSoC4/CapSense.c **** *
1046:Generated_Source\PSoC4/CapSense.c **** *******************************************************************************/
1047:Generated_Source\PSoC4/CapSense.c **** void CapSense_EnableSensor(uint32 sensor)
1048:Generated_Source\PSoC4/CapSense.c **** {
 360              		.loc 1 1048 0
 361              		.cfi_startproc
 362              		@ args = 0, pretend = 0, frame = 0
 363              		@ frame_needed = 0, uses_anonymous_args = 0
 364              	.LVL32:
 365 0000 F8B5     		push	{r3, r4, r5, r6, r7, lr}
 366              		.cfi_def_cfa_offset 24
 367              		.cfi_offset 3, -24
 368              		.cfi_offset 4, -20
 369              		.cfi_offset 5, -16
 370              		.cfi_offset 6, -12
 371              		.cfi_offset 7, -8
 372              		.cfi_offset 14, -4
1049:Generated_Source\PSoC4/CapSense.c ****     uint8  pinModeShift;
1050:Generated_Source\PSoC4/CapSense.c ****     uint8  pinHSIOMShift;
1051:Generated_Source\PSoC4/CapSense.c ****     uint8 interruptState;
1052:Generated_Source\PSoC4/CapSense.c ****     uint32 newRegisterValue;
1053:Generated_Source\PSoC4/CapSense.c ****     uint32 port;
ARM GAS  C:\Users\SHOZO\AppData\Local\Temp\ccICMltU.s 			page 26


1054:Generated_Source\PSoC4/CapSense.c **** 
1055:Generated_Source\PSoC4/CapSense.c ****     port = (uint32) CapSense_portTable[sensor];
 373              		.loc 1 1055 0
 374 0002 104F     		ldr	r7, .L23
 375 0004 3E5C     		ldrb	r6, [r7, r0]
 376              	.LVL33:
1056:Generated_Source\PSoC4/CapSense.c ****     pinModeShift = CapSense_pinShiftTbl[sensor]  * CapSense_PC_PIN_CFG_SIZE;
 377              		.loc 1 1056 0
 378 0006 3818     		adds	r0, r7, r0
 379              	.LVL34:
 380 0008 037A     		ldrb	r3, [r0, #8]
 381 000a 5D00     		lsls	r5, r3, #1
 382 000c 5D19     		adds	r5, r3, r5
 383 000e EDB2     		uxtb	r5, r5
 384              	.LVL35:
1057:Generated_Source\PSoC4/CapSense.c ****     pinHSIOMShift = CapSense_pinShiftTbl[sensor] * CapSense_HSIOM_PIN_CFG_SIZE;
 385              		.loc 1 1057 0
 386 0010 9B00     		lsls	r3, r3, #2
 387 0012 DCB2     		uxtb	r4, r3
 388              	.LVL36:
1058:Generated_Source\PSoC4/CapSense.c **** 
1059:Generated_Source\PSoC4/CapSense.c ****     interruptState = CyEnterCriticalSection();
 389              		.loc 1 1059 0
 390 0014 FFF7FEFF 		bl	CyEnterCriticalSection
 391              	.LVL37:
1060:Generated_Source\PSoC4/CapSense.c **** 
1061:Generated_Source\PSoC4/CapSense.c ****     newRegisterValue = *CapSense_prtSelTbl[port];
 392              		.loc 1 1061 0
 393 0018 B300     		lsls	r3, r6, #2
 394 001a FB18     		adds	r3, r7, r3
 395 001c 1E69     		ldr	r6, [r3, #16]
 396              	.LVL38:
 397 001e 3268     		ldr	r2, [r6]
 398              	.LVL39:
1062:Generated_Source\PSoC4/CapSense.c ****     newRegisterValue &= ~(CapSense_CSD_HSIOM_MASK << pinHSIOMShift);
 399              		.loc 1 1062 0
 400 0020 0F21     		movs	r1, #15
 401 0022 A140     		lsls	r1, r1, r4
 402 0024 8A43     		bics	r2, r1
 403              	.LVL40:
 404 0026 1100     		movs	r1, r2
 405              	.LVL41:
1063:Generated_Source\PSoC4/CapSense.c ****     newRegisterValue |= (uint32)((uint32)CapSense_CSD_SENSE_PORT_MODE << pinHSIOMShift);
 406              		.loc 1 1063 0
 407 0028 0422     		movs	r2, #4
 408 002a A240     		lsls	r2, r2, r4
 409 002c 0A43     		orrs	r2, r1
 410              	.LVL42:
1064:Generated_Source\PSoC4/CapSense.c **** 
1065:Generated_Source\PSoC4/CapSense.c ****     *CapSense_prtCfgTbl[port] &= (uint32)~((uint32)CapSense_CSD_PIN_MODE_MASK << pinModeShift);
 411              		.loc 1 1065 0
 412 002e 5C6A     		ldr	r4, [r3, #36]
 413              	.LVL43:
 414 0030 2368     		ldr	r3, [r4]
 415 0032 0721     		movs	r1, #7
 416 0034 A940     		lsls	r1, r1, r5
 417 0036 8B43     		bics	r3, r1
ARM GAS  C:\Users\SHOZO\AppData\Local\Temp\ccICMltU.s 			page 27


 418 0038 2360     		str	r3, [r4]
1066:Generated_Source\PSoC4/CapSense.c ****     *CapSense_prtSelTbl[port] = newRegisterValue;
 419              		.loc 1 1066 0
 420 003a 3260     		str	r2, [r6]
1067:Generated_Source\PSoC4/CapSense.c **** 
1068:Generated_Source\PSoC4/CapSense.c ****     CyExitCriticalSection(interruptState);
 421              		.loc 1 1068 0
 422 003c FFF7FEFF 		bl	CyExitCriticalSection
 423              	.LVL44:
1069:Generated_Source\PSoC4/CapSense.c **** }
 424              		.loc 1 1069 0
 425              		@ sp needed
 426              	.LVL45:
 427              	.LVL46:
 428 0040 F8BD     		pop	{r3, r4, r5, r6, r7, pc}
 429              	.L24:
 430 0042 C046     		.align	2
 431              	.L23:
 432 0044 00000000 		.word	.LANCHOR1
 433              		.cfi_endproc
 434              	.LFE46:
 435              		.size	CapSense_EnableSensor, .-CapSense_EnableSensor
 436              		.section	.text.CapSense_DisableSensor,"ax",%progbits
 437              		.align	2
 438              		.global	CapSense_DisableSensor
 439              		.code	16
 440              		.thumb_func
 441              		.type	CapSense_DisableSensor, %function
 442              	CapSense_DisableSensor:
 443              	.LFB47:
1070:Generated_Source\PSoC4/CapSense.c **** 
1071:Generated_Source\PSoC4/CapSense.c **** 
1072:Generated_Source\PSoC4/CapSense.c **** /*******************************************************************************
1073:Generated_Source\PSoC4/CapSense.c **** * Function Name: CapSense_DisableSensor
1074:Generated_Source\PSoC4/CapSense.c **** ********************************************************************************
1075:Generated_Source\PSoC4/CapSense.c **** *
1076:Generated_Source\PSoC4/CapSense.c **** * Summary:
1077:Generated_Source\PSoC4/CapSense.c **** *  Disables the selected sensor. The corresponding pin is disconnected from the
1078:Generated_Source\PSoC4/CapSense.c **** *  Analog Mux Bus and connected to GND, High_Z or Shield electrode.
1079:Generated_Source\PSoC4/CapSense.c **** *
1080:Generated_Source\PSoC4/CapSense.c **** * Parameters:
1081:Generated_Source\PSoC4/CapSense.c **** *  sensor:  Sensor number
1082:Generated_Source\PSoC4/CapSense.c **** *
1083:Generated_Source\PSoC4/CapSense.c **** * Return:
1084:Generated_Source\PSoC4/CapSense.c **** *  None
1085:Generated_Source\PSoC4/CapSense.c **** *
1086:Generated_Source\PSoC4/CapSense.c **** * Global Variables:
1087:Generated_Source\PSoC4/CapSense.c **** *  CapSense_portTable[] - used to store the port number that pin
1088:Generated_Source\PSoC4/CapSense.c **** *  belongs to for each sensor.
1089:Generated_Source\PSoC4/CapSense.c **** *  CapSense_pinShiftTbl[] - used to store position of pin that
1090:Generated_Source\PSoC4/CapSense.c **** *  configured as a sensor in the port.
1091:Generated_Source\PSoC4/CapSense.c **** *  CapSense_prtSelTbl[] - Contains pointers to the HSIOM
1092:Generated_Source\PSoC4/CapSense.c **** *  registers for each port.
1093:Generated_Source\PSoC4/CapSense.c **** *  CapSense_PrtCfgTb[] - Contains pointers to the port config
1094:Generated_Source\PSoC4/CapSense.c **** *  registers for each port.
1095:Generated_Source\PSoC4/CapSense.c **** *
1096:Generated_Source\PSoC4/CapSense.c **** * Side Effects:
ARM GAS  C:\Users\SHOZO\AppData\Local\Temp\ccICMltU.s 			page 28


1097:Generated_Source\PSoC4/CapSense.c **** *  None
1098:Generated_Source\PSoC4/CapSense.c **** *
1099:Generated_Source\PSoC4/CapSense.c **** *******************************************************************************/
1100:Generated_Source\PSoC4/CapSense.c **** void CapSense_DisableSensor(uint32 sensor)
1101:Generated_Source\PSoC4/CapSense.c **** {
 444              		.loc 1 1101 0
 445              		.cfi_startproc
 446              		@ args = 0, pretend = 0, frame = 0
 447              		@ frame_needed = 0, uses_anonymous_args = 0
 448              	.LVL47:
 449 0000 F8B5     		push	{r3, r4, r5, r6, r7, lr}
 450              		.cfi_def_cfa_offset 24
 451              		.cfi_offset 3, -24
 452              		.cfi_offset 4, -20
 453              		.cfi_offset 5, -16
 454              		.cfi_offset 6, -12
 455              		.cfi_offset 7, -8
 456              		.cfi_offset 14, -4
1102:Generated_Source\PSoC4/CapSense.c ****     uint8 interruptState;
1103:Generated_Source\PSoC4/CapSense.c ****     uint32 newRegisterValue;
1104:Generated_Source\PSoC4/CapSense.c **** 
1105:Generated_Source\PSoC4/CapSense.c ****     uint32 port = (uint32) CapSense_portTable[sensor];
 457              		.loc 1 1105 0
 458 0002 194A     		ldr	r2, .L30
 459 0004 145C     		ldrb	r4, [r2, r0]
 460              	.LVL48:
1106:Generated_Source\PSoC4/CapSense.c ****     uint8  pinHSIOMShift = CapSense_pinShiftTbl[sensor] * CapSense_HSIOM_PIN_CFG_SIZE;
 461              		.loc 1 1106 0
 462 0006 1318     		adds	r3, r2, r0
 463 0008 1F7A     		ldrb	r7, [r3, #8]
 464 000a B900     		lsls	r1, r7, #2
 465 000c C9B2     		uxtb	r1, r1
 466              	.LVL49:
1107:Generated_Source\PSoC4/CapSense.c ****     uint8  pinModeShift = CapSense_pinShiftTbl[sensor]  * CapSense_PC_PIN_CFG_SIZE;
 467              		.loc 1 1107 0
 468 000e 7D00     		lsls	r5, r7, #1
 469 0010 7D19     		adds	r5, r7, r5
 470 0012 EDB2     		uxtb	r5, r5
 471              	.LVL50:
1108:Generated_Source\PSoC4/CapSense.c **** 
1109:Generated_Source\PSoC4/CapSense.c ****     uint32 inactiveConnect = CapSense_SNS_HIZANALOG_CONNECT;
1110:Generated_Source\PSoC4/CapSense.c ****     uint32 sensorState = CapSense_unscannedSnsDriveMode[sensor];
 472              		.loc 1 1110 0
 473 0014 154B     		ldr	r3, .L30+4
 474 0016 185C     		ldrb	r0, [r3, r0]
 475              	.LVL51:
1111:Generated_Source\PSoC4/CapSense.c **** 
1112:Generated_Source\PSoC4/CapSense.c ****     *CapSense_prtSelTbl[port] &= ~(CapSense_CSD_HSIOM_MASK << pinHSIOMShift);
 476              		.loc 1 1112 0
 477 0018 A300     		lsls	r3, r4, #2
 478 001a D318     		adds	r3, r2, r3
 479 001c 1E69     		ldr	r6, [r3, #16]
 480 001e 3368     		ldr	r3, [r6]
 481 0020 0F22     		movs	r2, #15
 482 0022 8A40     		lsls	r2, r2, r1
 483 0024 9343     		bics	r3, r2
 484 0026 3360     		str	r3, [r6]
ARM GAS  C:\Users\SHOZO\AppData\Local\Temp\ccICMltU.s 			page 29


1113:Generated_Source\PSoC4/CapSense.c **** 
1114:Generated_Source\PSoC4/CapSense.c ****     #if(CapSense_IS_SHIELD_ENABLE != 0)
1115:Generated_Source\PSoC4/CapSense.c ****     if(sensorState != (uint32)CapSense__SHIELD)
1116:Generated_Source\PSoC4/CapSense.c ****     {
1117:Generated_Source\PSoC4/CapSense.c ****     #else
1118:Generated_Source\PSoC4/CapSense.c ****         /* Connected to Ground if shield is disabled */
1119:Generated_Source\PSoC4/CapSense.c ****         if(sensorState == (uint32)CapSense__SHIELD)
 485              		.loc 1 1119 0
 486 0028 0228     		cmp	r0, #2
 487 002a 00D1     		bne	.L26
1120:Generated_Source\PSoC4/CapSense.c ****         {
1121:Generated_Source\PSoC4/CapSense.c ****             sensorState = (uint32)CapSense__GROUND;
 488              		.loc 1 1121 0
 489 002c 0020     		movs	r0, #0
 490              	.LVL52:
 491              	.L26:
1122:Generated_Source\PSoC4/CapSense.c ****         }
1123:Generated_Source\PSoC4/CapSense.c ****     #endif /* (CapSense_IS_SHIELD_ENABLE) */
1124:Generated_Source\PSoC4/CapSense.c ****         if(sensorState != (uint32)CapSense__HIZ_ANALOG)
 492              		.loc 1 1124 0
 493 002e 0128     		cmp	r0, #1
 494 0030 01D1     		bne	.L29
1109:Generated_Source\PSoC4/CapSense.c ****     uint32 sensorState = CapSense_unscannedSnsDriveMode[sensor];
 495              		.loc 1 1109 0
 496 0032 0026     		movs	r6, #0
 497 0034 00E0     		b	.L27
 498              	.L29:
1125:Generated_Source\PSoC4/CapSense.c ****         {
1126:Generated_Source\PSoC4/CapSense.c ****             /* Connected to Ground */
1127:Generated_Source\PSoC4/CapSense.c ****             inactiveConnect = (uint32)CapSense_SNS_GROUND_CONNECT;
 499              		.loc 1 1127 0
 500 0036 0626     		movs	r6, #6
 501              	.L27:
 502              	.LVL53:
1128:Generated_Source\PSoC4/CapSense.c ****         }
1129:Generated_Source\PSoC4/CapSense.c **** 
1130:Generated_Source\PSoC4/CapSense.c ****         interruptState = CyEnterCriticalSection();
 503              		.loc 1 1130 0
 504 0038 FFF7FEFF 		bl	CyEnterCriticalSection
 505              	.LVL54:
1131:Generated_Source\PSoC4/CapSense.c **** 
1132:Generated_Source\PSoC4/CapSense.c ****         /* Set drive mode */
1133:Generated_Source\PSoC4/CapSense.c ****         newRegisterValue = *CapSense_prtCfgTbl[port];
 506              		.loc 1 1133 0
 507 003c A400     		lsls	r4, r4, #2
 508              	.LVL55:
 509 003e 0A4B     		ldr	r3, .L30
 510              	.LVL56:
 511 0040 1C19     		adds	r4, r3, r4
 512 0042 616A     		ldr	r1, [r4, #36]
 513 0044 0B68     		ldr	r3, [r1]
 514              	.LVL57:
1134:Generated_Source\PSoC4/CapSense.c ****         newRegisterValue &= ~(CapSense_CSD_PIN_MODE_MASK << pinModeShift);
 515              		.loc 1 1134 0
 516 0046 0722     		movs	r2, #7
 517 0048 AA40     		lsls	r2, r2, r5
 518 004a 9343     		bics	r3, r2
ARM GAS  C:\Users\SHOZO\AppData\Local\Temp\ccICMltU.s 			page 30


 519              	.LVL58:
 520 004c 1A00     		movs	r2, r3
 521              	.LVL59:
1135:Generated_Source\PSoC4/CapSense.c ****         newRegisterValue |=  (uint32)(inactiveConnect << pinModeShift);
 522              		.loc 1 1135 0
 523 004e 3300     		movs	r3, r6
 524 0050 AB40     		lsls	r3, r3, r5
 525 0052 1343     		orrs	r3, r2
 526              	.LVL60:
1136:Generated_Source\PSoC4/CapSense.c ****         *CapSense_prtCfgTbl[port] =  newRegisterValue;
 527              		.loc 1 1136 0
 528 0054 0B60     		str	r3, [r1]
1137:Generated_Source\PSoC4/CapSense.c **** 
1138:Generated_Source\PSoC4/CapSense.c ****         CyExitCriticalSection(interruptState);
 529              		.loc 1 1138 0
 530 0056 FFF7FEFF 		bl	CyExitCriticalSection
 531              	.LVL61:
1139:Generated_Source\PSoC4/CapSense.c **** 
1140:Generated_Source\PSoC4/CapSense.c ****         *CapSense_prtDRTbl[port]  &=  (uint32)~(uint32)((uint32)1u << CapSense_pinShiftTbl[sensor])
 532              		.loc 1 1140 0
 533 005a A16B     		ldr	r1, [r4, #56]
 534 005c 0B68     		ldr	r3, [r1]
 535 005e 0122     		movs	r2, #1
 536 0060 BA40     		lsls	r2, r2, r7
 537 0062 9343     		bics	r3, r2
 538 0064 0B60     		str	r3, [r1]
1141:Generated_Source\PSoC4/CapSense.c ****     #if(CapSense_IS_SHIELD_ENABLE != 0)
1142:Generated_Source\PSoC4/CapSense.c ****     }
1143:Generated_Source\PSoC4/CapSense.c ****     else
1144:Generated_Source\PSoC4/CapSense.c ****     {
1145:Generated_Source\PSoC4/CapSense.c ****         /* Connect to Shield */
1146:Generated_Source\PSoC4/CapSense.c ****         *CapSense_prtSelTbl[port] |= (CapSense_CSD_SHIELD_PORT_MODE << pinHSIOMShift);
1147:Generated_Source\PSoC4/CapSense.c ****     }
1148:Generated_Source\PSoC4/CapSense.c ****     #endif /* (CapSense_IS_SHIELD_ENABLE) */
1149:Generated_Source\PSoC4/CapSense.c **** }
 539              		.loc 1 1149 0
 540              		@ sp needed
 541              	.LVL62:
 542              	.LVL63:
 543              	.LVL64:
 544 0066 F8BD     		pop	{r3, r4, r5, r6, r7, pc}
 545              	.L31:
 546              		.align	2
 547              	.L30:
 548 0068 00000000 		.word	.LANCHOR1
 549 006c 00000000 		.word	CapSense_unscannedSnsDriveMode
 550              		.cfi_endproc
 551              	.LFE47:
 552              		.size	CapSense_DisableSensor, .-CapSense_DisableSensor
 553              		.section	.text.CapSense_ClearSensors,"ax",%progbits
 554              		.align	2
 555              		.global	CapSense_ClearSensors
 556              		.code	16
 557              		.thumb_func
 558              		.type	CapSense_ClearSensors, %function
 559              	CapSense_ClearSensors:
 560              	.LFB45:
ARM GAS  C:\Users\SHOZO\AppData\Local\Temp\ccICMltU.s 			page 31


 890:Generated_Source\PSoC4/CapSense.c ****     uint32 snsIndex;
 561              		.loc 1 890 0
 562              		.cfi_startproc
 563              		@ args = 0, pretend = 0, frame = 0
 564              		@ frame_needed = 0, uses_anonymous_args = 0
 565 0000 10B5     		push	{r4, lr}
 566              		.cfi_def_cfa_offset 8
 567              		.cfi_offset 4, -8
 568              		.cfi_offset 14, -4
 569              	.LVL65:
 893:Generated_Source\PSoC4/CapSense.c ****     {
 570              		.loc 1 893 0
 571 0002 0024     		movs	r4, #0
 572 0004 03E0     		b	.L33
 573              	.LVL66:
 574              	.L34:
 895:Generated_Source\PSoC4/CapSense.c ****     }
 575              		.loc 1 895 0 discriminator 3
 576 0006 2000     		movs	r0, r4
 577 0008 FFF7FEFF 		bl	CapSense_DisableSensor
 578              	.LVL67:
 893:Generated_Source\PSoC4/CapSense.c ****     {
 579              		.loc 1 893 0 discriminator 3
 580 000c 0134     		adds	r4, r4, #1
 581              	.LVL68:
 582              	.L33:
 893:Generated_Source\PSoC4/CapSense.c ****     {
 583              		.loc 1 893 0 is_stmt 0 discriminator 1
 584 000e 042C     		cmp	r4, #4
 585 0010 F9D9     		bls	.L34
 897:Generated_Source\PSoC4/CapSense.c **** 
 586              		.loc 1 897 0 is_stmt 1
 587              		@ sp needed
 588              	.LVL69:
 589 0012 10BD     		pop	{r4, pc}
 590              		.cfi_endproc
 591              	.LFE45:
 592              		.size	CapSense_ClearSensors, .-CapSense_ClearSensors
 593              		.section	.text.CapSense_SetPinDriveMode,"ax",%progbits
 594              		.align	2
 595              		.global	CapSense_SetPinDriveMode
 596              		.code	16
 597              		.thumb_func
 598              		.type	CapSense_SetPinDriveMode, %function
 599              	CapSense_SetPinDriveMode:
 600              	.LFB50:
1150:Generated_Source\PSoC4/CapSense.c **** 
1151:Generated_Source\PSoC4/CapSense.c **** 
1152:Generated_Source\PSoC4/CapSense.c **** /*******************************************************************************
1153:Generated_Source\PSoC4/CapSense.c **** * Function Name: CapSense_SetDriveModeAllPins
1154:Generated_Source\PSoC4/CapSense.c **** ********************************************************************************
1155:Generated_Source\PSoC4/CapSense.c **** *
1156:Generated_Source\PSoC4/CapSense.c **** * Summary:
1157:Generated_Source\PSoC4/CapSense.c **** * This API sets the drive mode of port pins used by the CapSense
1158:Generated_Source\PSoC4/CapSense.c **** * component (sensors, guard, shield, shield tank and Cmod) to drive the
1159:Generated_Source\PSoC4/CapSense.c **** * mode specified by the argument.
1160:Generated_Source\PSoC4/CapSense.c **** *
ARM GAS  C:\Users\SHOZO\AppData\Local\Temp\ccICMltU.s 			page 32


1161:Generated_Source\PSoC4/CapSense.c **** * Parameters:
1162:Generated_Source\PSoC4/CapSense.c **** *  driveMode:  Drive mode definition.
1163:Generated_Source\PSoC4/CapSense.c **** *
1164:Generated_Source\PSoC4/CapSense.c **** * Return:
1165:Generated_Source\PSoC4/CapSense.c **** *  None
1166:Generated_Source\PSoC4/CapSense.c **** *
1167:Generated_Source\PSoC4/CapSense.c **** * Global Variables:
1168:Generated_Source\PSoC4/CapSense.c **** *  CapSense_portTable[] - used to store the port number that pin
1169:Generated_Source\PSoC4/CapSense.c **** *  belongs to for each sensor.
1170:Generated_Source\PSoC4/CapSense.c **** *  CapSense_pinShiftTbl[] - used to store position of pin that
1171:Generated_Source\PSoC4/CapSense.c **** *  configured as a sensor in the port.
1172:Generated_Source\PSoC4/CapSense.c **** *
1173:Generated_Source\PSoC4/CapSense.c **** * Side Effects:
1174:Generated_Source\PSoC4/CapSense.c **** *  This API shall be called only after CapSense component is stopped.
1175:Generated_Source\PSoC4/CapSense.c **** *
1176:Generated_Source\PSoC4/CapSense.c **** *******************************************************************************/
1177:Generated_Source\PSoC4/CapSense.c **** void CapSense_SetDriveModeAllPins(uint32 driveMode)
1178:Generated_Source\PSoC4/CapSense.c **** {
1179:Generated_Source\PSoC4/CapSense.c ****     uint8 curSensor;
1180:Generated_Source\PSoC4/CapSense.c ****     #if (CapSense_IS_COMPLEX_SCANSLOTS)
1181:Generated_Source\PSoC4/CapSense.c ****         uint8 snsNumber;
1182:Generated_Source\PSoC4/CapSense.c ****         uint8 snsType;
1183:Generated_Source\PSoC4/CapSense.c ****     #endif  /* CapSense_IS_COMPLEX_SCANSLOTS */
1184:Generated_Source\PSoC4/CapSense.c ****     uint32 prtNumberTmp;
1185:Generated_Source\PSoC4/CapSense.c ****     uint32 pinNumberTmp;
1186:Generated_Source\PSoC4/CapSense.c **** 
1187:Generated_Source\PSoC4/CapSense.c ****     for(curSensor = 0u; curSensor < CapSense_TOTAL_SENSOR_COUNT; curSensor++)
1188:Generated_Source\PSoC4/CapSense.c ****     {
1189:Generated_Source\PSoC4/CapSense.c ****         #if (CapSense_IS_COMPLEX_SCANSLOTS)
1190:Generated_Source\PSoC4/CapSense.c ****             /* Read sensor type: single or complex */
1191:Generated_Source\PSoC4/CapSense.c ****             snsType = CapSense_portTable[curSensor];
1192:Generated_Source\PSoC4/CapSense.c **** 
1193:Generated_Source\PSoC4/CapSense.c ****             /* Check if sensor is complex */
1194:Generated_Source\PSoC4/CapSense.c ****             if ((snsType & CapSense_COMPLEX_SS_FLAG) == 0u)
1195:Generated_Source\PSoC4/CapSense.c ****             {
1196:Generated_Source\PSoC4/CapSense.c ****                 /* The sensor is not complex */
1197:Generated_Source\PSoC4/CapSense.c ****                 snsNumber = curSensor;
1198:Generated_Source\PSoC4/CapSense.c ****             }
1199:Generated_Source\PSoC4/CapSense.c ****             else
1200:Generated_Source\PSoC4/CapSense.c ****             {
1201:Generated_Source\PSoC4/CapSense.c ****                 /* Get dedicated sensor ID of the complex sensor */
1202:Generated_Source\PSoC4/CapSense.c ****                 snsType &= ~CapSense_COMPLEX_SS_FLAG;
1203:Generated_Source\PSoC4/CapSense.c ****                 snsNumber = CapSense_indexTable[snsType];
1204:Generated_Source\PSoC4/CapSense.c ****             }
1205:Generated_Source\PSoC4/CapSense.c **** 
1206:Generated_Source\PSoC4/CapSense.c ****             prtNumberTmp = CapSense_portTable[snsNumber];
1207:Generated_Source\PSoC4/CapSense.c ****             pinNumberTmp = CapSense_pinShiftTbl[snsNumber];
1208:Generated_Source\PSoC4/CapSense.c ****         #else
1209:Generated_Source\PSoC4/CapSense.c ****             prtNumberTmp = CapSense_portTable[curSensor];
1210:Generated_Source\PSoC4/CapSense.c ****             pinNumberTmp = CapSense_pinShiftTbl[curSensor];
1211:Generated_Source\PSoC4/CapSense.c ****         #endif  /* CapSense_IS_COMPLEX_SCANSLOTS */
1212:Generated_Source\PSoC4/CapSense.c **** 
1213:Generated_Source\PSoC4/CapSense.c ****         CapSense_SetPinDriveMode(driveMode, pinNumberTmp, prtNumberTmp);
1214:Generated_Source\PSoC4/CapSense.c ****     }
1215:Generated_Source\PSoC4/CapSense.c **** 
1216:Generated_Source\PSoC4/CapSense.c ****     CapSense_SetPinDriveMode(driveMode, (uint32)CapSense_CMOD_PIN_NUMBER, (uint32)CapSense_CMOD_PRT
1217:Generated_Source\PSoC4/CapSense.c **** 
ARM GAS  C:\Users\SHOZO\AppData\Local\Temp\ccICMltU.s 			page 33


1218:Generated_Source\PSoC4/CapSense.c ****     #if(0u != CapSense_CSH_TANK_ENABLE)
1219:Generated_Source\PSoC4/CapSense.c ****         CapSense_SetPinDriveMode(driveMode, (uint32)CapSense_CTANK_PIN_NUMBER, (uint32)CapSense_CTA
1220:Generated_Source\PSoC4/CapSense.c ****     #endif /* (0u != CapSense_CSH_TANK_ENABLE) */
1221:Generated_Source\PSoC4/CapSense.c **** 
1222:Generated_Source\PSoC4/CapSense.c ****     #if(0u != CapSense_IS_SHIELD_ENABLE)
1223:Generated_Source\PSoC4/CapSense.c ****         CapSense_SetPinDriveMode(driveMode, (uint32)CapSense_SHIELD_PIN_NUMBER, (uint32)CapSense_SH
1224:Generated_Source\PSoC4/CapSense.c ****     #endif /* (0u != CapSense_IS_SHIELD_ENABLE) */
1225:Generated_Source\PSoC4/CapSense.c **** }
1226:Generated_Source\PSoC4/CapSense.c **** 
1227:Generated_Source\PSoC4/CapSense.c **** 
1228:Generated_Source\PSoC4/CapSense.c **** /*******************************************************************************
1229:Generated_Source\PSoC4/CapSense.c **** * Function Name: CapSense_RestoreDriveModeAllPins
1230:Generated_Source\PSoC4/CapSense.c **** ********************************************************************************
1231:Generated_Source\PSoC4/CapSense.c **** *
1232:Generated_Source\PSoC4/CapSense.c **** * Summary:
1233:Generated_Source\PSoC4/CapSense.c **** *  This API restores the drive for all the CapSense port pins to the original
1234:Generated_Source\PSoC4/CapSense.c **** *  state.
1235:Generated_Source\PSoC4/CapSense.c **** *
1236:Generated_Source\PSoC4/CapSense.c **** * Parameters:
1237:Generated_Source\PSoC4/CapSense.c **** *  None
1238:Generated_Source\PSoC4/CapSense.c **** *
1239:Generated_Source\PSoC4/CapSense.c **** * Return:
1240:Generated_Source\PSoC4/CapSense.c **** *  None
1241:Generated_Source\PSoC4/CapSense.c **** *
1242:Generated_Source\PSoC4/CapSense.c **** * Global Variables:
1243:Generated_Source\PSoC4/CapSense.c **** *  CapSense_prtSelTbl[] - Contains pointers to the HSIOM
1244:Generated_Source\PSoC4/CapSense.c **** *  registers for each port.
1245:Generated_Source\PSoC4/CapSense.c **** *
1246:Generated_Source\PSoC4/CapSense.c **** * Side Effects:
1247:Generated_Source\PSoC4/CapSense.c **** *  This API is called only after the CapSense component is stopped.
1248:Generated_Source\PSoC4/CapSense.c **** *
1249:Generated_Source\PSoC4/CapSense.c **** *******************************************************************************/
1250:Generated_Source\PSoC4/CapSense.c **** void CapSense_RestoreDriveModeAllPins(void)
1251:Generated_Source\PSoC4/CapSense.c **** {
1252:Generated_Source\PSoC4/CapSense.c ****     uint32 newRegisterValue;
1253:Generated_Source\PSoC4/CapSense.c **** 
1254:Generated_Source\PSoC4/CapSense.c ****     CapSense_SetDriveModeAllPins(CY_SYS_PINS_DM_ALG_HIZ);
1255:Generated_Source\PSoC4/CapSense.c **** 
1256:Generated_Source\PSoC4/CapSense.c ****     newRegisterValue = CapSense_CMOD_CONNECTION_REG;
1257:Generated_Source\PSoC4/CapSense.c ****     newRegisterValue &= ~(CapSense_CSD_CMOD_CONNECTION_MASK);
1258:Generated_Source\PSoC4/CapSense.c ****     newRegisterValue |= CapSense_CSD_CMOD_TO_AMUXBUS_A;
1259:Generated_Source\PSoC4/CapSense.c ****     CapSense_CMOD_CONNECTION_REG = newRegisterValue;
1260:Generated_Source\PSoC4/CapSense.c **** 
1261:Generated_Source\PSoC4/CapSense.c ****     #if(0u != CapSense_CSH_TANK_ENABLE)
1262:Generated_Source\PSoC4/CapSense.c ****         newRegisterValue = CapSense_CTANK_CONNECTION_REG;
1263:Generated_Source\PSoC4/CapSense.c ****         newRegisterValue &= ~(CapSense_CSD_CTANK_CONNECTION_MASK);
1264:Generated_Source\PSoC4/CapSense.c ****         newRegisterValue |= CapSense_CSD_CTANK_TO_AMUXBUS_B;
1265:Generated_Source\PSoC4/CapSense.c ****         CapSense_CTANK_CONNECTION_REG = newRegisterValue;
1266:Generated_Source\PSoC4/CapSense.c ****     #endif/* (0u != CapSense_CSH_TANK_ENABLE) */
1267:Generated_Source\PSoC4/CapSense.c **** 
1268:Generated_Source\PSoC4/CapSense.c ****     #if(0u != CapSense_IS_SHIELD_ENABLE)
1269:Generated_Source\PSoC4/CapSense.c ****         newRegisterValue = *CapSense_prtSelTbl[CapSense_SHIELD_PORT_NUMBER];
1270:Generated_Source\PSoC4/CapSense.c ****         newRegisterValue &= ~(CapSense_CSD_HSIOM_MASK << ((uint32)CapSense_SHIELD_PIN_NUMBER * CapS
1271:Generated_Source\PSoC4/CapSense.c ****         newRegisterValue |= (CapSense_CSD_SHIELD_PORT_MODE << ((uint32)CapSense_SHIELD_PIN_NUMBER *
1272:Generated_Source\PSoC4/CapSense.c ****         *CapSense_prtSelTbl[CapSense_SHIELD_PORT_NUMBER] = newRegisterValue;
1273:Generated_Source\PSoC4/CapSense.c ****     #endif /* (0u != CapSense_IS_SHIELD_ENABLE) */
1274:Generated_Source\PSoC4/CapSense.c **** }
ARM GAS  C:\Users\SHOZO\AppData\Local\Temp\ccICMltU.s 			page 34


1275:Generated_Source\PSoC4/CapSense.c **** 
1276:Generated_Source\PSoC4/CapSense.c **** 
1277:Generated_Source\PSoC4/CapSense.c **** /*******************************************************************************
1278:Generated_Source\PSoC4/CapSense.c **** * Function Name: CapSense_SetPinDriveMode
1279:Generated_Source\PSoC4/CapSense.c **** ********************************************************************************
1280:Generated_Source\PSoC4/CapSense.c **** *
1281:Generated_Source\PSoC4/CapSense.c **** * Summary:
1282:Generated_Source\PSoC4/CapSense.c **** * This API sets the drive mode for the appropriate port/pin.
1283:Generated_Source\PSoC4/CapSense.c **** *
1284:Generated_Source\PSoC4/CapSense.c **** * Parameters:
1285:Generated_Source\PSoC4/CapSense.c **** *  driveMode:  Drive mode definition.
1286:Generated_Source\PSoC4/CapSense.c **** *  portNumber: contains port number (0, 1, 2).
1287:Generated_Source\PSoC4/CapSense.c **** *  pinNumber: contains pin number (0, 1, 2, ... , 7).
1288:Generated_Source\PSoC4/CapSense.c **** *
1289:Generated_Source\PSoC4/CapSense.c **** * Return:
1290:Generated_Source\PSoC4/CapSense.c **** *  None
1291:Generated_Source\PSoC4/CapSense.c **** *
1292:Generated_Source\PSoC4/CapSense.c **** * Global Variables:
1293:Generated_Source\PSoC4/CapSense.c **** *  CapSense_prtSelTbl[] - Contains pointers to the HSIOM
1294:Generated_Source\PSoC4/CapSense.c **** *  registers for each port.
1295:Generated_Source\PSoC4/CapSense.c **** *  CapSense_prtCfgTb[] - Contains pointers to the port config
1296:Generated_Source\PSoC4/CapSense.c **** *  registers for each port.
1297:Generated_Source\PSoC4/CapSense.c **** *
1298:Generated_Source\PSoC4/CapSense.c **** * Side Effects:
1299:Generated_Source\PSoC4/CapSense.c **** *  This API is called only after CapSense component is stopped.
1300:Generated_Source\PSoC4/CapSense.c **** *
1301:Generated_Source\PSoC4/CapSense.c **** *******************************************************************************/
1302:Generated_Source\PSoC4/CapSense.c **** void CapSense_SetPinDriveMode(uint32 driveMode, uint32 pinNumber, uint32 portNumber)
1303:Generated_Source\PSoC4/CapSense.c **** {
 601              		.loc 1 1303 0
 602              		.cfi_startproc
 603              		@ args = 0, pretend = 0, frame = 0
 604              		@ frame_needed = 0, uses_anonymous_args = 0
 605              	.LVL70:
 606 0000 10B5     		push	{r4, lr}
 607              		.cfi_def_cfa_offset 8
 608              		.cfi_offset 4, -8
 609              		.cfi_offset 14, -4
1304:Generated_Source\PSoC4/CapSense.c ****     uint32  pinModeShift;
1305:Generated_Source\PSoC4/CapSense.c ****     uint32 newRegisterValue;
1306:Generated_Source\PSoC4/CapSense.c **** 
1307:Generated_Source\PSoC4/CapSense.c ****     pinModeShift  = pinNumber * CapSense_PC_PIN_CFG_SIZE;
 610              		.loc 1 1307 0
 611 0002 4B00     		lsls	r3, r1, #1
 612 0004 5918     		adds	r1, r3, r1
 613              	.LVL71:
1308:Generated_Source\PSoC4/CapSense.c **** 
1309:Generated_Source\PSoC4/CapSense.c ****     newRegisterValue = *CapSense_prtCfgTbl[portNumber];
 614              		.loc 1 1309 0
 615 0006 9200     		lsls	r2, r2, #2
 616              	.LVL72:
 617 0008 054B     		ldr	r3, .L36
 618 000a 9A18     		adds	r2, r3, r2
 619 000c 546A     		ldr	r4, [r2, #36]
 620 000e 2368     		ldr	r3, [r4]
 621              	.LVL73:
1310:Generated_Source\PSoC4/CapSense.c ****     newRegisterValue &= ~(CapSense_CSD_PIN_MODE_MASK << pinModeShift);
ARM GAS  C:\Users\SHOZO\AppData\Local\Temp\ccICMltU.s 			page 35


 622              		.loc 1 1310 0
 623 0010 0722     		movs	r2, #7
 624 0012 8A40     		lsls	r2, r2, r1
 625 0014 9343     		bics	r3, r2
 626              	.LVL74:
1311:Generated_Source\PSoC4/CapSense.c ****     newRegisterValue |=  (uint32)((uint32)driveMode << pinModeShift);
 627              		.loc 1 1311 0
 628 0016 8840     		lsls	r0, r0, r1
 629              	.LVL75:
 630 0018 1843     		orrs	r0, r3
 631              	.LVL76:
1312:Generated_Source\PSoC4/CapSense.c ****     *CapSense_prtCfgTbl[portNumber] =  newRegisterValue;
 632              		.loc 1 1312 0
 633 001a 2060     		str	r0, [r4]
1313:Generated_Source\PSoC4/CapSense.c **** }
 634              		.loc 1 1313 0
 635              		@ sp needed
 636 001c 10BD     		pop	{r4, pc}
 637              	.L37:
 638 001e C046     		.align	2
 639              	.L36:
 640 0020 00000000 		.word	.LANCHOR1
 641              		.cfi_endproc
 642              	.LFE50:
 643              		.size	CapSense_SetPinDriveMode, .-CapSense_SetPinDriveMode
 644              		.section	.text.CapSense_SetDriveModeAllPins,"ax",%progbits
 645              		.align	2
 646              		.global	CapSense_SetDriveModeAllPins
 647              		.code	16
 648              		.thumb_func
 649              		.type	CapSense_SetDriveModeAllPins, %function
 650              	CapSense_SetDriveModeAllPins:
 651              	.LFB48:
1178:Generated_Source\PSoC4/CapSense.c ****     uint8 curSensor;
 652              		.loc 1 1178 0
 653              		.cfi_startproc
 654              		@ args = 0, pretend = 0, frame = 0
 655              		@ frame_needed = 0, uses_anonymous_args = 0
 656              	.LVL77:
 657 0000 70B5     		push	{r4, r5, r6, lr}
 658              		.cfi_def_cfa_offset 16
 659              		.cfi_offset 4, -16
 660              		.cfi_offset 5, -12
 661              		.cfi_offset 6, -8
 662              		.cfi_offset 14, -4
 663 0002 0500     		movs	r5, r0
 664              	.LVL78:
1187:Generated_Source\PSoC4/CapSense.c ****     {
 665              		.loc 1 1187 0
 666 0004 0024     		movs	r4, #0
 667 0006 08E0     		b	.L39
 668              	.LVL79:
 669              	.L40:
1209:Generated_Source\PSoC4/CapSense.c ****             pinNumberTmp = CapSense_pinShiftTbl[curSensor];
 670              		.loc 1 1209 0 discriminator 3
 671 0008 084B     		ldr	r3, .L41
 672 000a 1A5D     		ldrb	r2, [r3, r4]
ARM GAS  C:\Users\SHOZO\AppData\Local\Temp\ccICMltU.s 			page 36


 673              	.LVL80:
1210:Generated_Source\PSoC4/CapSense.c ****         #endif  /* CapSense_IS_COMPLEX_SCANSLOTS */
 674              		.loc 1 1210 0 discriminator 3
 675 000c 1B19     		adds	r3, r3, r4
 676 000e 197A     		ldrb	r1, [r3, #8]
 677              	.LVL81:
1213:Generated_Source\PSoC4/CapSense.c ****     }
 678              		.loc 1 1213 0 discriminator 3
 679 0010 2800     		movs	r0, r5
 680 0012 FFF7FEFF 		bl	CapSense_SetPinDriveMode
 681              	.LVL82:
1187:Generated_Source\PSoC4/CapSense.c ****     {
 682              		.loc 1 1187 0 discriminator 3
 683 0016 0134     		adds	r4, r4, #1
 684              	.LVL83:
 685 0018 E4B2     		uxtb	r4, r4
 686              	.LVL84:
 687              	.L39:
1187:Generated_Source\PSoC4/CapSense.c ****     {
 688              		.loc 1 1187 0 is_stmt 0 discriminator 1
 689 001a 042C     		cmp	r4, #4
 690 001c F4D9     		bls	.L40
1216:Generated_Source\PSoC4/CapSense.c **** 
 691              		.loc 1 1216 0 is_stmt 1
 692 001e 0422     		movs	r2, #4
 693 0020 0221     		movs	r1, #2
 694 0022 2800     		movs	r0, r5
 695 0024 FFF7FEFF 		bl	CapSense_SetPinDriveMode
 696              	.LVL85:
1225:Generated_Source\PSoC4/CapSense.c **** 
 697              		.loc 1 1225 0
 698              		@ sp needed
 699              	.LVL86:
 700              	.LVL87:
 701 0028 70BD     		pop	{r4, r5, r6, pc}
 702              	.L42:
 703 002a C046     		.align	2
 704              	.L41:
 705 002c 00000000 		.word	.LANCHOR1
 706              		.cfi_endproc
 707              	.LFE48:
 708              		.size	CapSense_SetDriveModeAllPins, .-CapSense_SetDriveModeAllPins
 709              		.section	.text.CapSense_RestoreDriveModeAllPins,"ax",%progbits
 710              		.align	2
 711              		.global	CapSense_RestoreDriveModeAllPins
 712              		.code	16
 713              		.thumb_func
 714              		.type	CapSense_RestoreDriveModeAllPins, %function
 715              	CapSense_RestoreDriveModeAllPins:
 716              	.LFB49:
1251:Generated_Source\PSoC4/CapSense.c ****     uint32 newRegisterValue;
 717              		.loc 1 1251 0
 718              		.cfi_startproc
 719              		@ args = 0, pretend = 0, frame = 0
 720              		@ frame_needed = 0, uses_anonymous_args = 0
 721 0000 10B5     		push	{r4, lr}
 722              		.cfi_def_cfa_offset 8
ARM GAS  C:\Users\SHOZO\AppData\Local\Temp\ccICMltU.s 			page 37


 723              		.cfi_offset 4, -8
 724              		.cfi_offset 14, -4
1254:Generated_Source\PSoC4/CapSense.c **** 
 725              		.loc 1 1254 0
 726 0002 0020     		movs	r0, #0
 727 0004 FFF7FEFF 		bl	CapSense_SetDriveModeAllPins
 728              	.LVL88:
1256:Generated_Source\PSoC4/CapSense.c ****     newRegisterValue &= ~(CapSense_CSD_CMOD_CONNECTION_MASK);
 729              		.loc 1 1256 0
 730 0008 044A     		ldr	r2, .L44
 731 000a 1168     		ldr	r1, [r2]
 732              	.LVL89:
1257:Generated_Source\PSoC4/CapSense.c ****     newRegisterValue |= CapSense_CSD_CMOD_TO_AMUXBUS_A;
 733              		.loc 1 1257 0
 734 000c 044B     		ldr	r3, .L44+4
 735 000e 0B40     		ands	r3, r1
 736              	.LVL90:
1258:Generated_Source\PSoC4/CapSense.c ****     CapSense_CMOD_CONNECTION_REG = newRegisterValue;
 737              		.loc 1 1258 0
 738 0010 C021     		movs	r1, #192
 739 0012 C900     		lsls	r1, r1, #3
 740 0014 0B43     		orrs	r3, r1
 741              	.LVL91:
1259:Generated_Source\PSoC4/CapSense.c **** 
 742              		.loc 1 1259 0
 743 0016 1360     		str	r3, [r2]
1274:Generated_Source\PSoC4/CapSense.c **** 
 744              		.loc 1 1274 0
 745              		@ sp needed
 746 0018 10BD     		pop	{r4, pc}
 747              	.L45:
 748 001a C046     		.align	2
 749              	.L44:
 750 001c 10000140 		.word	1073807376
 751 0020 FFF0FFFF 		.word	-3841
 752              		.cfi_endproc
 753              	.LFE49:
 754              		.size	CapSense_RestoreDriveModeAllPins, .-CapSense_RestoreDriveModeAllPins
 755              		.section	.text.CapSense_PreScan,"ax",%progbits
 756              		.align	2
 757              		.global	CapSense_PreScan
 758              		.code	16
 759              		.thumb_func
 760              		.type	CapSense_PreScan, %function
 761              	CapSense_PreScan:
 762              	.LFB51:
1314:Generated_Source\PSoC4/CapSense.c **** 
1315:Generated_Source\PSoC4/CapSense.c **** 
1316:Generated_Source\PSoC4/CapSense.c **** /*******************************************************************************
1317:Generated_Source\PSoC4/CapSense.c **** * Function Name: CapSense_PreScan
1318:Generated_Source\PSoC4/CapSense.c **** ********************************************************************************
1319:Generated_Source\PSoC4/CapSense.c **** *
1320:Generated_Source\PSoC4/CapSense.c **** * Summary:
1321:Generated_Source\PSoC4/CapSense.c **** *  Sets required settings, enables a sensor, removes Vref from AMUX and starts the
1322:Generated_Source\PSoC4/CapSense.c **** *  scanning process of the sensor.
1323:Generated_Source\PSoC4/CapSense.c **** *
1324:Generated_Source\PSoC4/CapSense.c **** * Parameters:
ARM GAS  C:\Users\SHOZO\AppData\Local\Temp\ccICMltU.s 			page 38


1325:Generated_Source\PSoC4/CapSense.c **** *  sensor:  Sensor number.
1326:Generated_Source\PSoC4/CapSense.c **** *
1327:Generated_Source\PSoC4/CapSense.c **** * Return:
1328:Generated_Source\PSoC4/CapSense.c **** *  None
1329:Generated_Source\PSoC4/CapSense.c **** *
1330:Generated_Source\PSoC4/CapSense.c **** * Global Variables:
1331:Generated_Source\PSoC4/CapSense.c **** * CapSense_widgetNumber[] - This array contains numbers of widgets for each sensor.
1332:Generated_Source\PSoC4/CapSense.c **** * CapSense_widgetResolution[] - Contains the widget resolution.
1333:Generated_Source\PSoC4/CapSense.c **** *
1334:Generated_Source\PSoC4/CapSense.c **** * Side Effects:
1335:Generated_Source\PSoC4/CapSense.c **** *  None
1336:Generated_Source\PSoC4/CapSense.c **** *
1337:Generated_Source\PSoC4/CapSense.c **** *******************************************************************************/
1338:Generated_Source\PSoC4/CapSense.c **** void CapSense_PreScan(uint32 sensor)
1339:Generated_Source\PSoC4/CapSense.c **** {
 763              		.loc 1 1339 0
 764              		.cfi_startproc
 765              		@ args = 0, pretend = 0, frame = 0
 766              		@ frame_needed = 0, uses_anonymous_args = 0
 767              	.LVL92:
 768 0000 F8B5     		push	{r3, r4, r5, r6, r7, lr}
 769              		.cfi_def_cfa_offset 24
 770              		.cfi_offset 3, -24
 771              		.cfi_offset 4, -20
 772              		.cfi_offset 5, -16
 773              		.cfi_offset 6, -12
 774              		.cfi_offset 7, -8
 775              		.cfi_offset 14, -4
 776 0002 0500     		movs	r5, r0
 777              	.LVL93:
1340:Generated_Source\PSoC4/CapSense.c ****     uint8 widget;
1341:Generated_Source\PSoC4/CapSense.c ****     uint8 interruptState;
1342:Generated_Source\PSoC4/CapSense.c ****     uint32 newRegValue;
1343:Generated_Source\PSoC4/CapSense.c ****     uint32 counterResolution;
1344:Generated_Source\PSoC4/CapSense.c **** 
1345:Generated_Source\PSoC4/CapSense.c ****     #if(CapSense_PRS_OPTIONS == CapSense__PRS_AUTO)
1346:Generated_Source\PSoC4/CapSense.c ****         uint8 senseClkDivMath;
1347:Generated_Source\PSoC4/CapSense.c ****         uint8 sampleClkDivMath;
1348:Generated_Source\PSoC4/CapSense.c ****     #endif /* (CapSense_PRS_OPTIONS == CapSense__PRS_AUTO) */
1349:Generated_Source\PSoC4/CapSense.c **** 
1350:Generated_Source\PSoC4/CapSense.c ****     #if ((CapSense_TUNING_METHOD == CapSense__TUNING_AUTO) &&\
1351:Generated_Source\PSoC4/CapSense.c ****          (0 != CapSense_IS_OVERSAMPLING_EN))
1352:Generated_Source\PSoC4/CapSense.c ****         uint32 oversamplingFactor;
1353:Generated_Source\PSoC4/CapSense.c ****     #endif /* ((CapSense_TUNING_METHOD == CapSense__TUNING_AUTO) &&\
1354:Generated_Source\PSoC4/CapSense.c ****                (0 != CapSense_IS_OVERSAMPLING_EN)) */
1355:Generated_Source\PSoC4/CapSense.c **** 
1356:Generated_Source\PSoC4/CapSense.c ****     /* Define widget sensor belongs to */
1357:Generated_Source\PSoC4/CapSense.c ****     widget = CapSense_widgetNumber[sensor];
1358:Generated_Source\PSoC4/CapSense.c **** 
1359:Generated_Source\PSoC4/CapSense.c ****     /* Recalculate Counter Resolution to MSB 16 bits */
1360:Generated_Source\PSoC4/CapSense.c ****     counterResolution = CapSense_widgetResolution[widget];
1361:Generated_Source\PSoC4/CapSense.c **** 
1362:Generated_Source\PSoC4/CapSense.c ****     #if ((CapSense_TUNING_METHOD == CapSense__TUNING_AUTO) &&\
1363:Generated_Source\PSoC4/CapSense.c ****          (0 != CapSense_IS_OVERSAMPLING_EN))
1364:Generated_Source\PSoC4/CapSense.c ****         oversamplingFactor = CapSense_GetBitValue(CapSense_scanSpeedTbl, sensor);
1365:Generated_Source\PSoC4/CapSense.c **** 
1366:Generated_Source\PSoC4/CapSense.c ****         if(counterResolution < CapSense_RESOLUTION_16_BITS)
ARM GAS  C:\Users\SHOZO\AppData\Local\Temp\ccICMltU.s 			page 39


1367:Generated_Source\PSoC4/CapSense.c ****         {
1368:Generated_Source\PSoC4/CapSense.c ****             counterResolution <<= oversamplingFactor;
1369:Generated_Source\PSoC4/CapSense.c ****             counterResolution |= (uint32)(CapSense_RESOLUTION_8_BITS);
1370:Generated_Source\PSoC4/CapSense.c ****         }
1371:Generated_Source\PSoC4/CapSense.c ****     #endif /* ((CapSense_TUNING_METHOD == CapSense__TUNING_AUTO) &&\
1372:Generated_Source\PSoC4/CapSense.c ****                (0 != CapSense_IS_OVERSAMPLING_EN)) */
1373:Generated_Source\PSoC4/CapSense.c **** 
1374:Generated_Source\PSoC4/CapSense.c ****     #if (0u != CapSense_IS_M0S8PERI_BLOCK)
1375:Generated_Source\PSoC4/CapSense.c ****         CapSense_SenseClk_Stop();
1376:Generated_Source\PSoC4/CapSense.c ****         CapSense_SampleClk_Stop();
1377:Generated_Source\PSoC4/CapSense.c ****     #endif /* (0u != CapSense_IS_M0S8PERI_BLOCK) */
1378:Generated_Source\PSoC4/CapSense.c **** 
1379:Generated_Source\PSoC4/CapSense.c ****     #if (0u != CapSense_MULTIPLE_FREQUENCY_SET)
1380:Generated_Source\PSoC4/CapSense.c ****         CapSense_SampleClk_SetDividerValue((uint16)CapSense_sampleClkDividerVal[sensor]);
 778              		.loc 1 1380 0
 779 0004 284C     		ldr	r4, .L48
 780 0006 2418     		adds	r4, r4, r0
 781 0008 4C23     		movs	r3, #76
 782 000a E65C     		ldrb	r6, [r4, r3]
 783 000c 701E     		subs	r0, r6, #1
 784              	.LVL94:
 785 000e 80B2     		uxth	r0, r0
 786 0010 0021     		movs	r1, #0
 787 0012 FFF7FEFF 		bl	CapSense_SampleClk_SetFractionalDividerRegister
 788              	.LVL95:
1381:Generated_Source\PSoC4/CapSense.c ****         CapSense_SenseClk_SetDividerValue((uint16)CapSense_senseClkDividerVal[sensor]);
 789              		.loc 1 1381 0
 790 0016 5423     		movs	r3, #84
 791 0018 E45C     		ldrb	r4, [r4, r3]
 792 001a 601E     		subs	r0, r4, #1
 793 001c 80B2     		uxth	r0, r0
 794 001e 0021     		movs	r1, #0
 795 0020 FFF7FEFF 		bl	CapSense_SenseClk_SetFractionalDividerRegister
 796              	.LVL96:
1382:Generated_Source\PSoC4/CapSense.c ****     #else
1383:Generated_Source\PSoC4/CapSense.c ****         CapSense_SampleClk_SetDividerValue((uint16)CapSense_sampleClkDividerVal);
1384:Generated_Source\PSoC4/CapSense.c ****         CapSense_SenseClk_SetDividerValue((uint16)CapSense_senseClkDividerVal);
1385:Generated_Source\PSoC4/CapSense.c ****     #endif /* (0u != CapSense_MULTIPLE_FREQUENCY_SET) */
1386:Generated_Source\PSoC4/CapSense.c **** 
1387:Generated_Source\PSoC4/CapSense.c ****     #if (0u != CapSense_IS_M0S8PERI_BLOCK)
1388:Generated_Source\PSoC4/CapSense.c ****         CapSense_SampleClk_Start();
1389:Generated_Source\PSoC4/CapSense.c ****         CapSense_SenseClk_StartEx(CapSense_SampleClk__DIV_ID);
1390:Generated_Source\PSoC4/CapSense.c **** 
1391:Generated_Source\PSoC4/CapSense.c ****         #if(CapSense_PRS_OPTIONS == CapSense__PRS_NONE)
1392:Generated_Source\PSoC4/CapSense.c ****             CyIntDisable(CapSense_ISR_NUMBER);
1393:Generated_Source\PSoC4/CapSense.c ****             CapSense_CSD_CNT_REG = CapSense_ONE_CYCLE;
1394:Generated_Source\PSoC4/CapSense.c ****             while(0u != (CapSense_CSD_CNT_REG & CapSense_RESOLUTION_16_BITS))
1395:Generated_Source\PSoC4/CapSense.c ****             {
1396:Generated_Source\PSoC4/CapSense.c ****             /* Wait until scanning is complete */
1397:Generated_Source\PSoC4/CapSense.c ****             }
1398:Generated_Source\PSoC4/CapSense.c ****             CapSense_CSD_INTR_REG = 1u;
1399:Generated_Source\PSoC4/CapSense.c ****             CyIntClearPending(CapSense_ISR_NUMBER);
1400:Generated_Source\PSoC4/CapSense.c ****             CyIntEnable(CapSense_ISR_NUMBER);
1401:Generated_Source\PSoC4/CapSense.c ****         #endif /* CapSense_PRS_OPTIONS == CapSense__PRS_NONE */
1402:Generated_Source\PSoC4/CapSense.c ****     #endif /* (0u != CapSense_IS_M0S8PERI_BLOCK) */
1403:Generated_Source\PSoC4/CapSense.c **** 
1404:Generated_Source\PSoC4/CapSense.c **** #if(CapSense_PRS_OPTIONS != CapSense__PRS_NONE)
ARM GAS  C:\Users\SHOZO\AppData\Local\Temp\ccICMltU.s 			page 40


1405:Generated_Source\PSoC4/CapSense.c **** 
1406:Generated_Source\PSoC4/CapSense.c ****     #if(CapSense_TUNING_METHOD == CapSense__TUNING_AUTO)
1407:Generated_Source\PSoC4/CapSense.c ****         if(CapSense_prescalersTuningDone != 0u)
1408:Generated_Source\PSoC4/CapSense.c ****         {
1409:Generated_Source\PSoC4/CapSense.c ****     #endif /* (CapSense_TUNING_METHOD == CapSense__TUNING_AUTO) */
1410:Generated_Source\PSoC4/CapSense.c **** 
1411:Generated_Source\PSoC4/CapSense.c ****             CyIntDisable(CapSense_ISR_NUMBER);
 797              		.loc 1 1411 0
 798 0024 0F20     		movs	r0, #15
 799 0026 FFF7FEFF 		bl	CyIntDisable
 800              	.LVL97:
1412:Generated_Source\PSoC4/CapSense.c **** 
1413:Generated_Source\PSoC4/CapSense.c ****             newRegValue = CapSense_CSD_CFG_REG;
 801              		.loc 1 1413 0
 802 002a 204B     		ldr	r3, .L48+4
 803 002c 1968     		ldr	r1, [r3]
 804              	.LVL98:
 805 002e 8023     		movs	r3, #128
 806 0030 9943     		bics	r1, r3
 807              	.LVL99:
1414:Generated_Source\PSoC4/CapSense.c ****             newRegValue |= CapSense_CSD_CFG_PRS_SELECT;
1415:Generated_Source\PSoC4/CapSense.c **** 
1416:Generated_Source\PSoC4/CapSense.c ****             #if(CapSense_PRS_OPTIONS == CapSense__PRS_AUTO)
1417:Generated_Source\PSoC4/CapSense.c **** 
1418:Generated_Source\PSoC4/CapSense.c ****                 newRegValue &= ~(CapSense_PRS_MODE_MASK);
 808              		.loc 1 1418 0
 809 0032 403B     		subs	r3, r3, #64
 810 0034 0B43     		orrs	r3, r1
 811              	.LVL100:
1419:Generated_Source\PSoC4/CapSense.c **** 
1420:Generated_Source\PSoC4/CapSense.c ****                 #if (0u != CapSense_MULTIPLE_FREQUENCY_SET)
1421:Generated_Source\PSoC4/CapSense.c ****                     senseClkDivMath = CapSense_senseClkDividerVal[sensor];
1422:Generated_Source\PSoC4/CapSense.c ****                     sampleClkDivMath = CapSense_sampleClkDividerVal[sensor];
1423:Generated_Source\PSoC4/CapSense.c ****                 #else
1424:Generated_Source\PSoC4/CapSense.c ****                     senseClkDivMath = CapSense_senseClkDividerVal;
1425:Generated_Source\PSoC4/CapSense.c ****                     sampleClkDivMath = CapSense_sampleClkDividerVal;
1426:Generated_Source\PSoC4/CapSense.c ****                 #endif /* ( CapSense_MULTIPLE_FREQUENCY_SET) */
1427:Generated_Source\PSoC4/CapSense.c **** 
1428:Generated_Source\PSoC4/CapSense.c ****                 #if(0u == CapSense_IS_M0S8PERI_BLOCK)
1429:Generated_Source\PSoC4/CapSense.c ****                     senseClkDivMath *= sampleClkDivMath;
 812              		.loc 1 1429 0
 813 0036 7443     		muls	r4, r6
 814              	.LVL101:
 815 0038 E4B2     		uxtb	r4, r4
 816              	.LVL102:
1430:Generated_Source\PSoC4/CapSense.c ****                 #endif /* (0u == CapSense_IS_M0S8PERI_BLOCK) */
1431:Generated_Source\PSoC4/CapSense.c **** 
1432:Generated_Source\PSoC4/CapSense.c ****                 if((senseClkDivMath * CapSense_RESOLUTION_12_BITS) <
 817              		.loc 1 1432 0
 818 003a 2203     		lsls	r2, r4, #12
 819 003c 141B     		subs	r4, r2, r4
 820              	.LVL103:
 821 003e 2704     		lsls	r7, r4, #16
1433:Generated_Source\PSoC4/CapSense.c ****                    (sampleClkDivMath * CapSense_widgetResolution[widget]))
 822              		.loc 1 1433 0
 823 0040 B202     		lsls	r2, r6, #10
 824 0042 921B     		subs	r2, r2, r6
ARM GAS  C:\Users\SHOZO\AppData\Local\Temp\ccICMltU.s 			page 41


 825 0044 1004     		lsls	r0, r2, #16
1432:Generated_Source\PSoC4/CapSense.c ****                    (sampleClkDivMath * CapSense_widgetResolution[widget]))
 826              		.loc 1 1432 0
 827 0046 8742     		cmp	r7, r0
 828 0048 01D2     		bcs	.L47
1434:Generated_Source\PSoC4/CapSense.c ****                 {
1435:Generated_Source\PSoC4/CapSense.c ****                     newRegValue |= CapSense_CSD_PRS_12_BIT;
 829              		.loc 1 1435 0
 830 004a C023     		movs	r3, #192
 831              	.LVL104:
 832 004c 0B43     		orrs	r3, r1
 833              	.LVL105:
 834              	.L47:
1436:Generated_Source\PSoC4/CapSense.c ****                 }
1437:Generated_Source\PSoC4/CapSense.c ****             #endif /* (CapSense_PRS_OPTIONS == CapSense__PRS_AUTO) */
1438:Generated_Source\PSoC4/CapSense.c **** 
1439:Generated_Source\PSoC4/CapSense.c ****             CapSense_CSD_CFG_REG = newRegValue;
 835              		.loc 1 1439 0
 836 004e 174E     		ldr	r6, .L48+4
 837              	.LVL106:
 838 0050 3360     		str	r3, [r6]
1440:Generated_Source\PSoC4/CapSense.c **** 
1441:Generated_Source\PSoC4/CapSense.c ****             CyIntEnable(CapSense_ISR_NUMBER);
 839              		.loc 1 1441 0
 840 0052 0F20     		movs	r0, #15
 841 0054 FFF7FEFF 		bl	CyIntEnable
 842              	.LVL107:
1442:Generated_Source\PSoC4/CapSense.c **** 
1443:Generated_Source\PSoC4/CapSense.c ****     #if(CapSense_TUNING_METHOD == CapSense__TUNING_AUTO)
1444:Generated_Source\PSoC4/CapSense.c ****         }
1445:Generated_Source\PSoC4/CapSense.c ****     #endif /* (CapSense_PRS_OPTIONS != CapSense__PRS_NONE) */
1446:Generated_Source\PSoC4/CapSense.c **** 
1447:Generated_Source\PSoC4/CapSense.c **** #endif /* (CapSense_PRS_OPTIONS == CapSense__PRS_NONE) */
1448:Generated_Source\PSoC4/CapSense.c **** 
1449:Generated_Source\PSoC4/CapSense.c ****     /* Set Idac Value */
1450:Generated_Source\PSoC4/CapSense.c ****     CyIntDisable(CapSense_ISR_NUMBER);
 843              		.loc 1 1450 0
 844 0058 0F20     		movs	r0, #15
 845 005a FFF7FEFF 		bl	CyIntDisable
 846              	.LVL108:
1451:Generated_Source\PSoC4/CapSense.c ****     newRegValue = CapSense_CSD_IDAC_REG;
 847              		.loc 1 1451 0
 848 005e 1448     		ldr	r0, .L48+8
 849 0060 0168     		ldr	r1, [r0]
 850              	.LVL109:
1452:Generated_Source\PSoC4/CapSense.c **** 
1453:Generated_Source\PSoC4/CapSense.c **** #if (CapSense_IDAC_CNT == 1u)
1454:Generated_Source\PSoC4/CapSense.c ****     newRegValue &= ~(CapSense_CSD_IDAC1_DATA_MASK);
1455:Generated_Source\PSoC4/CapSense.c ****     newRegValue |= CapSense_modulationIDAC[sensor];
1456:Generated_Source\PSoC4/CapSense.c **** #else
1457:Generated_Source\PSoC4/CapSense.c ****     newRegValue &= ~(CapSense_CSD_IDAC1_DATA_MASK | CapSense_CSD_IDAC2_DATA_MASK);
 851              		.loc 1 1457 0
 852 0062 144B     		ldr	r3, .L48+12
 853 0064 1940     		ands	r1, r3
 854              	.LVL110:
1458:Generated_Source\PSoC4/CapSense.c ****     newRegValue |= (CapSense_modulationIDAC[sensor] |
 855              		.loc 1 1458 0
ARM GAS  C:\Users\SHOZO\AppData\Local\Temp\ccICMltU.s 			page 42


 856 0066 144A     		ldr	r2, .L48+16
 857 0068 535D     		ldrb	r3, [r2, r5]
1459:Generated_Source\PSoC4/CapSense.c ****                             (uint32)((uint32)CapSense_compensationIDAC[sensor] <<
 858              		.loc 1 1459 0
 859 006a 5219     		adds	r2, r2, r5
 860 006c 127A     		ldrb	r2, [r2, #8]
 861 006e 1204     		lsls	r2, r2, #16
1458:Generated_Source\PSoC4/CapSense.c ****     newRegValue |= (CapSense_modulationIDAC[sensor] |
 862              		.loc 1 1458 0
 863 0070 1343     		orrs	r3, r2
 864 0072 0B43     		orrs	r3, r1
 865              	.LVL111:
1460:Generated_Source\PSoC4/CapSense.c ****                             CapSense_CSD_IDAC2_DATA_OFFSET));
1461:Generated_Source\PSoC4/CapSense.c **** #endif /* (CapSense_IDAC_CNT == 1u) */
1462:Generated_Source\PSoC4/CapSense.c **** 
1463:Generated_Source\PSoC4/CapSense.c ****     CapSense_CSD_IDAC_REG = newRegValue;
 866              		.loc 1 1463 0
 867 0074 0360     		str	r3, [r0]
1464:Generated_Source\PSoC4/CapSense.c **** 
1465:Generated_Source\PSoC4/CapSense.c **** #if(CapSense_CMOD_PREGARGE_OPTION == CapSense__CAPPRIOBUF)
1466:Generated_Source\PSoC4/CapSense.c ****     newRegValue = CapSense_CMOD_CONNECTION_REG;
1467:Generated_Source\PSoC4/CapSense.c ****     newRegValue &= ~(CapSense_CSD_CMOD_CONNECTION_MASK);
1468:Generated_Source\PSoC4/CapSense.c ****     newRegValue |= CapSense_CSD_CMOD_TO_AMUXBUS_A;
1469:Generated_Source\PSoC4/CapSense.c ****     CapSense_CMOD_CONNECTION_REG = newRegValue;
1470:Generated_Source\PSoC4/CapSense.c **** 
1471:Generated_Source\PSoC4/CapSense.c ****     newRegValue = CapSense_CMOD_PORT_PC_REG;
1472:Generated_Source\PSoC4/CapSense.c ****     newRegValue &= ~(CapSense_CSD_CMOD_PC_MASK);
1473:Generated_Source\PSoC4/CapSense.c ****     newRegValue |= CapSense_CMOD_PC_HIGH_Z_MODE;
1474:Generated_Source\PSoC4/CapSense.c ****     CapSense_CMOD_PORT_PC_REG = newRegValue;
1475:Generated_Source\PSoC4/CapSense.c **** #endif /* (CapSense_CMOD_PREGARGE_OPTION == CapSense__CAPPRIOBUF) */
1476:Generated_Source\PSoC4/CapSense.c **** 
1477:Generated_Source\PSoC4/CapSense.c ****     /* Disconnect Vref Buffer from AMUX */
1478:Generated_Source\PSoC4/CapSense.c ****     newRegValue = CapSense_CSD_CFG_REG;
 868              		.loc 1 1478 0
 869 0076 3468     		ldr	r4, [r6]
 870              	.LVL112:
1479:Generated_Source\PSoC4/CapSense.c ****     newRegValue &= ~(CapSense_PRECHARGE_CONFIG_MASK);
 871              		.loc 1 1479 0
 872 0078 104B     		ldr	r3, .L48+20
 873 007a 1C40     		ands	r4, r3
 874              	.LVL113:
1480:Generated_Source\PSoC4/CapSense.c ****     newRegValue |= CapSense_CTANK_PRECHARGE_CONFIG;
 875              		.loc 1 1480 0
 876 007c 104B     		ldr	r3, .L48+24
 877 007e 1C43     		orrs	r4, r3
 878              	.LVL114:
1481:Generated_Source\PSoC4/CapSense.c **** 
1482:Generated_Source\PSoC4/CapSense.c ****     CyIntEnable(CapSense_ISR_NUMBER);
 879              		.loc 1 1482 0
 880 0080 0F20     		movs	r0, #15
 881 0082 FFF7FEFF 		bl	CyIntEnable
 882              	.LVL115:
1483:Generated_Source\PSoC4/CapSense.c **** 
1484:Generated_Source\PSoC4/CapSense.c ****     /* Enable Sensor */
1485:Generated_Source\PSoC4/CapSense.c ****     CapSense_EnableScanSlot(sensor);
 883              		.loc 1 1485 0
 884 0086 2800     		movs	r0, r5
ARM GAS  C:\Users\SHOZO\AppData\Local\Temp\ccICMltU.s 			page 43


 885 0088 FFF7FEFF 		bl	CapSense_EnableSensor
 886              	.LVL116:
1486:Generated_Source\PSoC4/CapSense.c **** 
1487:Generated_Source\PSoC4/CapSense.c ****     interruptState = CyEnterCriticalSection();
 887              		.loc 1 1487 0
 888 008c FFF7FEFF 		bl	CyEnterCriticalSection
 889              	.LVL117:
 890 0090 0500     		movs	r5, r0
 891              	.LVL118:
1488:Generated_Source\PSoC4/CapSense.c ****     CapSense_CSD_CFG_REG = newRegValue;
 892              		.loc 1 1488 0
 893 0092 3460     		str	r4, [r6]
1489:Generated_Source\PSoC4/CapSense.c **** 
1490:Generated_Source\PSoC4/CapSense.c ****     /* `#START CapSense_PreSettlingDelay_Debug` */
1491:Generated_Source\PSoC4/CapSense.c **** 
1492:Generated_Source\PSoC4/CapSense.c ****     /* `#END` */
1493:Generated_Source\PSoC4/CapSense.c **** 
1494:Generated_Source\PSoC4/CapSense.c **** #ifdef CapSense_PRE_SCAN_PRE_SETTLING_DELAY_DEBUG_CALLBACK
1495:Generated_Source\PSoC4/CapSense.c ****     CapSense_PreScan_Pre_SettlingDelay_Debug_Callback();
1496:Generated_Source\PSoC4/CapSense.c **** #endif /* CapSense_PRE_SCAN_PRE_SETTLING_DELAY_DEBUG_CALLBACK */
1497:Generated_Source\PSoC4/CapSense.c **** 
1498:Generated_Source\PSoC4/CapSense.c ****     CyDelayCycles(CapSense_GLITCH_ELIMINATION_CYCLES);
 894              		.loc 1 1498 0
 895 0094 0020     		movs	r0, #0
 896 0096 FFF7FEFF 		bl	CyDelayCycles
 897              	.LVL119:
1499:Generated_Source\PSoC4/CapSense.c **** 
1500:Generated_Source\PSoC4/CapSense.c ****     /* `#START CapSense_PreScan_Debug` */
1501:Generated_Source\PSoC4/CapSense.c **** 
1502:Generated_Source\PSoC4/CapSense.c ****     /* `#END` */
1503:Generated_Source\PSoC4/CapSense.c **** 
1504:Generated_Source\PSoC4/CapSense.c **** #ifdef CapSense_PRE_SCAN_DEBUG_CALLBACK
1505:Generated_Source\PSoC4/CapSense.c ****     CapSense_PreScan_Debug_Callback();
1506:Generated_Source\PSoC4/CapSense.c **** #endif /* CapSense_PRE_SCAN_DEBUG_CALLBACK */
1507:Generated_Source\PSoC4/CapSense.c **** 
1508:Generated_Source\PSoC4/CapSense.c ****     CapSense_CSD_CNT_REG = counterResolution;
 898              		.loc 1 1508 0
 899 009a 0A4A     		ldr	r2, .L48+28
 900 009c 0A4B     		ldr	r3, .L48+32
 901 009e 1A60     		str	r2, [r3]
1509:Generated_Source\PSoC4/CapSense.c ****     CyExitCriticalSection(interruptState);
 902              		.loc 1 1509 0
 903 00a0 2800     		movs	r0, r5
 904 00a2 FFF7FEFF 		bl	CyExitCriticalSection
 905              	.LVL120:
1510:Generated_Source\PSoC4/CapSense.c **** }
 906              		.loc 1 1510 0
 907              		@ sp needed
 908              	.LVL121:
 909              	.LVL122:
 910 00a6 F8BD     		pop	{r3, r4, r5, r6, r7, pc}
 911              	.L49:
 912              		.align	2
 913              	.L48:
 914 00a8 00000000 		.word	.LANCHOR1
 915 00ac 04000840 		.word	1074266116
 916 00b0 08000840 		.word	1074266120
ARM GAS  C:\Users\SHOZO\AppData\Local\Temp\ccICMltU.s 			page 44


 917 00b4 00FF80FF 		.word	-8323328
 918 00b8 00000000 		.word	.LANCHOR2
 919 00bc FF1FDFFF 		.word	-2154497
 920 00c0 20E02000 		.word	2154528
 921 00c4 0000FF03 		.word	67043328
 922 00c8 0C000840 		.word	1074266124
 923              		.cfi_endproc
 924              	.LFE51:
 925              		.size	CapSense_PreScan, .-CapSense_PreScan
 926              		.section	.text.CapSense_ScanSensor,"ax",%progbits
 927              		.align	2
 928              		.global	CapSense_ScanSensor
 929              		.code	16
 930              		.thumb_func
 931              		.type	CapSense_ScanSensor, %function
 932              	CapSense_ScanSensor:
 933              	.LFB38:
 558:Generated_Source\PSoC4/CapSense.c ****     /* Clears status/control variable and set sensorIndex */
 934              		.loc 1 558 0
 935              		.cfi_startproc
 936              		@ args = 0, pretend = 0, frame = 0
 937              		@ frame_needed = 0, uses_anonymous_args = 0
 938              	.LVL123:
 939 0000 10B5     		push	{r4, lr}
 940              		.cfi_def_cfa_offset 8
 941              		.cfi_offset 4, -8
 942              		.cfi_offset 14, -4
 560:Generated_Source\PSoC4/CapSense.c ****     CapSense_sensorIndex = (uint8)sensor;
 943              		.loc 1 560 0
 944 0002 054B     		ldr	r3, .L51
 945 0004 0022     		movs	r2, #0
 946 0006 1A70     		strb	r2, [r3]
 561:Generated_Source\PSoC4/CapSense.c **** 
 947              		.loc 1 561 0
 948 0008 C2B2     		uxtb	r2, r0
 949 000a 9A73     		strb	r2, [r3, #14]
 564:Generated_Source\PSoC4/CapSense.c ****     CapSense_PreScan(sensor);
 950              		.loc 1 564 0
 951 000c 8122     		movs	r2, #129
 952 000e 1A70     		strb	r2, [r3]
 565:Generated_Source\PSoC4/CapSense.c **** }
 953              		.loc 1 565 0
 954 0010 FFF7FEFF 		bl	CapSense_PreScan
 955              	.LVL124:
 566:Generated_Source\PSoC4/CapSense.c **** 
 956              		.loc 1 566 0
 957              		@ sp needed
 958 0014 10BD     		pop	{r4, pc}
 959              	.L52:
 960 0016 C046     		.align	2
 961              	.L51:
 962 0018 00000000 		.word	.LANCHOR0
 963              		.cfi_endproc
 964              	.LFE38:
 965              		.size	CapSense_ScanSensor, .-CapSense_ScanSensor
 966              		.section	.text.CapSense_PostScan,"ax",%progbits
 967              		.align	2
ARM GAS  C:\Users\SHOZO\AppData\Local\Temp\ccICMltU.s 			page 45


 968              		.global	CapSense_PostScan
 969              		.code	16
 970              		.thumb_func
 971              		.type	CapSense_PostScan, %function
 972              	CapSense_PostScan:
 973              	.LFB52:
1511:Generated_Source\PSoC4/CapSense.c **** 
1512:Generated_Source\PSoC4/CapSense.c **** 
1513:Generated_Source\PSoC4/CapSense.c **** /*******************************************************************************
1514:Generated_Source\PSoC4/CapSense.c **** * Function Name: CapSense_PostScan
1515:Generated_Source\PSoC4/CapSense.c **** ********************************************************************************
1516:Generated_Source\PSoC4/CapSense.c **** *
1517:Generated_Source\PSoC4/CapSense.c **** * Summary:
1518:Generated_Source\PSoC4/CapSense.c **** *  Stores the results of measurement in the CapSense_sensorRaw[] array,
1519:Generated_Source\PSoC4/CapSense.c **** *  sets the scanning sensor in the non-sampling state, turns off Idac(Current Source IDAC),
1520:Generated_Source\PSoC4/CapSense.c **** *  disconnects the IDAC(Sink mode), and applies Vref on AMUX.
1521:Generated_Source\PSoC4/CapSense.c **** *
1522:Generated_Source\PSoC4/CapSense.c **** * Parameters:
1523:Generated_Source\PSoC4/CapSense.c **** *  sensor:  Sensor number.
1524:Generated_Source\PSoC4/CapSense.c **** *
1525:Generated_Source\PSoC4/CapSense.c **** * Return:
1526:Generated_Source\PSoC4/CapSense.c **** *  None
1527:Generated_Source\PSoC4/CapSense.c **** *
1528:Generated_Source\PSoC4/CapSense.c **** * Global Variables:
1529:Generated_Source\PSoC4/CapSense.c **** *  CapSense_sensorRaw[] - used to store sensors raw data.
1530:Generated_Source\PSoC4/CapSense.c **** *
1531:Generated_Source\PSoC4/CapSense.c **** * Side Effects:
1532:Generated_Source\PSoC4/CapSense.c **** *  None
1533:Generated_Source\PSoC4/CapSense.c **** *
1534:Generated_Source\PSoC4/CapSense.c **** *******************************************************************************/
1535:Generated_Source\PSoC4/CapSense.c **** void CapSense_PostScan(uint32 sensor)
1536:Generated_Source\PSoC4/CapSense.c **** {
 974              		.loc 1 1536 0
 975              		.cfi_startproc
 976              		@ args = 0, pretend = 0, frame = 0
 977              		@ frame_needed = 0, uses_anonymous_args = 0
 978              	.LVL125:
 979 0000 10B5     		push	{r4, lr}
 980              		.cfi_def_cfa_offset 8
 981              		.cfi_offset 4, -8
 982              		.cfi_offset 14, -4
1537:Generated_Source\PSoC4/CapSense.c ****     uint32 newRegValue;
1538:Generated_Source\PSoC4/CapSense.c **** #if ((CapSense_TUNING_METHOD == CapSense__TUNING_AUTO) &&\
1539:Generated_Source\PSoC4/CapSense.c ****      (0 != CapSense_IS_OVERSAMPLING_EN))
1540:Generated_Source\PSoC4/CapSense.c ****     uint32 oversamplingFactor;
1541:Generated_Source\PSoC4/CapSense.c ****     uint32 widget;
1542:Generated_Source\PSoC4/CapSense.c **** #endif /* ((CapSense_TUNING_METHOD == CapSense__TUNING_AUTO) &&\
1543:Generated_Source\PSoC4/CapSense.c ****            (0 != CapSense_IS_OVERSAMPLING_EN)) */
1544:Generated_Source\PSoC4/CapSense.c **** 
1545:Generated_Source\PSoC4/CapSense.c ****     /* `#START CapSense_PostScan_Debug` */
1546:Generated_Source\PSoC4/CapSense.c **** 
1547:Generated_Source\PSoC4/CapSense.c ****     /* `#END` */
1548:Generated_Source\PSoC4/CapSense.c **** 
1549:Generated_Source\PSoC4/CapSense.c **** #ifdef CapSense_POST_SCAN_DEBUG_CALLBACK
1550:Generated_Source\PSoC4/CapSense.c ****     CapSense_PostScan_Debug_Callback();
1551:Generated_Source\PSoC4/CapSense.c **** #endif /* CapSense_POST_SCAN_DEBUG_Callback */
1552:Generated_Source\PSoC4/CapSense.c **** 
ARM GAS  C:\Users\SHOZO\AppData\Local\Temp\ccICMltU.s 			page 46


1553:Generated_Source\PSoC4/CapSense.c ****     /* Read SlotResult from Raw Counter */
1554:Generated_Source\PSoC4/CapSense.c ****     CapSense_sensorRaw[sensor]  = (uint16)CapSense_CSD_CNT_REG;
 983              		.loc 1 1554 0
 984 0002 0E4B     		ldr	r3, .L54
 985 0004 1A68     		ldr	r2, [r3]
 986 0006 4300     		lsls	r3, r0, #1
 987 0008 0D49     		ldr	r1, .L54+4
 988 000a CB18     		adds	r3, r1, r3
 989 000c 9A80     		strh	r2, [r3, #4]
1555:Generated_Source\PSoC4/CapSense.c **** 
1556:Generated_Source\PSoC4/CapSense.c **** #if ((CapSense_TUNING_METHOD == CapSense__TUNING_AUTO) &&\
1557:Generated_Source\PSoC4/CapSense.c ****      (0 != CapSense_IS_OVERSAMPLING_EN))
1558:Generated_Source\PSoC4/CapSense.c ****     widget = CapSense_widgetNumber[sensor];
1559:Generated_Source\PSoC4/CapSense.c ****     if(CapSense_widgetResolution[widget] < CapSense_RESOLUTION_16_BITS)
1560:Generated_Source\PSoC4/CapSense.c ****     {
1561:Generated_Source\PSoC4/CapSense.c ****         oversamplingFactor = CapSense_GetBitValue(CapSense_scanSpeedTbl, sensor);
1562:Generated_Source\PSoC4/CapSense.c ****         CapSense_sensorRaw[sensor] >>= oversamplingFactor;
1563:Generated_Source\PSoC4/CapSense.c ****     }
1564:Generated_Source\PSoC4/CapSense.c **** #endif /* ((CapSense_TUNING_METHOD == CapSense__TUNING_AUTO) &&\
1565:Generated_Source\PSoC4/CapSense.c ****            (0 != CapSense_IS_OVERSAMPLING_EN)) */
1566:Generated_Source\PSoC4/CapSense.c **** 
1567:Generated_Source\PSoC4/CapSense.c ****     /* Disable Sensor */
1568:Generated_Source\PSoC4/CapSense.c ****     CapSense_DisableScanSlot(sensor);
 990              		.loc 1 1568 0
 991 000e FFF7FEFF 		bl	CapSense_DisableSensor
 992              	.LVL126:
1569:Generated_Source\PSoC4/CapSense.c **** 
1570:Generated_Source\PSoC4/CapSense.c ****     CyIntDisable(CapSense_ISR_NUMBER);
 993              		.loc 1 1570 0
 994 0012 0F20     		movs	r0, #15
 995 0014 FFF7FEFF 		bl	CyIntDisable
 996              	.LVL127:
1571:Generated_Source\PSoC4/CapSense.c **** 
1572:Generated_Source\PSoC4/CapSense.c **** #if(CapSense_CMOD_PREGARGE_OPTION == CapSense__CAPPRIOBUF)
1573:Generated_Source\PSoC4/CapSense.c ****     newRegValue = CapSense_CMOD_CONNECTION_REG;
1574:Generated_Source\PSoC4/CapSense.c ****     newRegValue &= ~(CapSense_CSD_CMOD_CONNECTION_MASK);
1575:Generated_Source\PSoC4/CapSense.c ****     newRegValue |= CapSense_CSD_CMOD_TO_AMUXBUS_B;
1576:Generated_Source\PSoC4/CapSense.c ****     CapSense_CMOD_CONNECTION_REG = newRegValue;
1577:Generated_Source\PSoC4/CapSense.c **** 
1578:Generated_Source\PSoC4/CapSense.c ****     newRegValue = CapSense_CMOD_PORT_PC_REG;
1579:Generated_Source\PSoC4/CapSense.c ****     newRegValue &= ~(CapSense_CSD_CMOD_PC_MASK);
1580:Generated_Source\PSoC4/CapSense.c ****     newRegValue |= CapSense_CMOD_PC_STRONG_MODE;
1581:Generated_Source\PSoC4/CapSense.c ****     CapSense_CMOD_PORT_PC_REG = newRegValue;
1582:Generated_Source\PSoC4/CapSense.c **** 
1583:Generated_Source\PSoC4/CapSense.c ****     newRegValue = CapSense_CMOD_PORT_DR_REG;
1584:Generated_Source\PSoC4/CapSense.c ****     newRegValue &= ~(CapSense_CMOD_DR_MASK);
1585:Generated_Source\PSoC4/CapSense.c ****     newRegValue |= CapSense_CMOD_DR_CONFIG;
1586:Generated_Source\PSoC4/CapSense.c ****     CapSense_CMOD_PORT_DR_REG = newRegValue;
1587:Generated_Source\PSoC4/CapSense.c **** #endif /* (CapSense_CMOD_PREGARGE_OPTION == CapSense__CAPPRIOBUF) */
1588:Generated_Source\PSoC4/CapSense.c **** 
1589:Generated_Source\PSoC4/CapSense.c ****     /* Connect Vref Buffer to AMUX bus  */
1590:Generated_Source\PSoC4/CapSense.c ****     newRegValue = CapSense_CSD_CFG_REG;
 997              		.loc 1 1590 0
 998 0018 0A4A     		ldr	r2, .L54+8
 999 001a 1168     		ldr	r1, [r2]
 1000              	.LVL128:
1591:Generated_Source\PSoC4/CapSense.c ****     newRegValue &= ~(CapSense_PRECHARGE_CONFIG_MASK);
ARM GAS  C:\Users\SHOZO\AppData\Local\Temp\ccICMltU.s 			page 47


 1001              		.loc 1 1591 0
 1002 001c 0A4B     		ldr	r3, .L54+12
 1003 001e 0B40     		ands	r3, r1
 1004              	.LVL129:
1592:Generated_Source\PSoC4/CapSense.c ****     newRegValue |= CapSense_CMOD_PRECHARGE_CONFIG;
 1005              		.loc 1 1592 0
 1006 0020 A021     		movs	r1, #160
 1007 0022 0902     		lsls	r1, r1, #8
 1008 0024 0B43     		orrs	r3, r1
 1009              	.LVL130:
1593:Generated_Source\PSoC4/CapSense.c ****     CapSense_CSD_CFG_REG = newRegValue;
 1010              		.loc 1 1593 0
 1011 0026 1360     		str	r3, [r2]
1594:Generated_Source\PSoC4/CapSense.c **** 
1595:Generated_Source\PSoC4/CapSense.c ****     /* Set Idac Value = 0 */
1596:Generated_Source\PSoC4/CapSense.c **** #if (CapSense_IDAC_CNT == 1u)
1597:Generated_Source\PSoC4/CapSense.c ****     CapSense_CSD_IDAC_REG &= ~(CapSense_CSD_IDAC1_DATA_MASK);
1598:Generated_Source\PSoC4/CapSense.c **** #else
1599:Generated_Source\PSoC4/CapSense.c ****     CapSense_CSD_IDAC_REG &= ~(CapSense_CSD_IDAC1_DATA_MASK | CapSense_CSD_IDAC2_DATA_MASK);
 1012              		.loc 1 1599 0
 1013 0028 084A     		ldr	r2, .L54+16
 1014 002a 1168     		ldr	r1, [r2]
 1015 002c 084B     		ldr	r3, .L54+20
 1016              	.LVL131:
 1017 002e 0B40     		ands	r3, r1
 1018 0030 1360     		str	r3, [r2]
 1019              	.LVL132:
1600:Generated_Source\PSoC4/CapSense.c **** #endif /* (CapSense_IDAC_CNT == 1u) */
1601:Generated_Source\PSoC4/CapSense.c **** 
1602:Generated_Source\PSoC4/CapSense.c ****     CyIntEnable(CapSense_ISR_NUMBER);
 1020              		.loc 1 1602 0
 1021 0032 0F20     		movs	r0, #15
 1022 0034 FFF7FEFF 		bl	CyIntEnable
 1023              	.LVL133:
1603:Generated_Source\PSoC4/CapSense.c **** }
 1024              		.loc 1 1603 0
 1025              		@ sp needed
 1026 0038 10BD     		pop	{r4, pc}
 1027              	.L55:
 1028 003a C046     		.align	2
 1029              	.L54:
 1030 003c 0C000840 		.word	1074266124
 1031 0040 00000000 		.word	.LANCHOR0
 1032 0044 04000840 		.word	1074266116
 1033 0048 FF1FDFFF 		.word	-2154497
 1034 004c 08000840 		.word	1074266120
 1035 0050 00FF80FF 		.word	-8323328
 1036              		.cfi_endproc
 1037              	.LFE52:
 1038              		.size	CapSense_PostScan, .-CapSense_PostScan
 1039              		.section	.text.CapSense_EnableShieldElectrode,"ax",%progbits
 1040              		.align	2
 1041              		.global	CapSense_EnableShieldElectrode
 1042              		.code	16
 1043              		.thumb_func
 1044              		.type	CapSense_EnableShieldElectrode, %function
 1045              	CapSense_EnableShieldElectrode:
ARM GAS  C:\Users\SHOZO\AppData\Local\Temp\ccICMltU.s 			page 48


 1046              	.LFB53:
1604:Generated_Source\PSoC4/CapSense.c **** 
1605:Generated_Source\PSoC4/CapSense.c **** 
1606:Generated_Source\PSoC4/CapSense.c **** /*******************************************************************************
1607:Generated_Source\PSoC4/CapSense.c **** * Function Name: CapSense_EnableShieldElectrode
1608:Generated_Source\PSoC4/CapSense.c **** ********************************************************************************
1609:Generated_Source\PSoC4/CapSense.c **** *
1610:Generated_Source\PSoC4/CapSense.c **** * Summary:
1611:Generated_Source\PSoC4/CapSense.c **** *  This API enables or disables the shield electrode on a specified port pin.
1612:Generated_Source\PSoC4/CapSense.c **** *
1613:Generated_Source\PSoC4/CapSense.c **** * Parameters:
1614:Generated_Source\PSoC4/CapSense.c **** *  portNumber: contains the shield electrode port number (0, 1, 2).
1615:Generated_Source\PSoC4/CapSense.c **** *  pinNumber: contains the shield electrode pin number (0, 1, 2, ... , 7).
1616:Generated_Source\PSoC4/CapSense.c **** *
1617:Generated_Source\PSoC4/CapSense.c **** * Return:
1618:Generated_Source\PSoC4/CapSense.c **** *  None
1619:Generated_Source\PSoC4/CapSense.c **** *
1620:Generated_Source\PSoC4/CapSense.c **** * Global Variables:
1621:Generated_Source\PSoC4/CapSense.c **** *  CapSense_prtCfgTbl[] - Contains pointers to the port config registers for each port.
1622:Generated_Source\PSoC4/CapSense.c **** *  CapSense_prtSelTbl[] - Contains pointers to the HSIOM registers for each port.
1623:Generated_Source\PSoC4/CapSense.c **** *
1624:Generated_Source\PSoC4/CapSense.c **** * Side Effects:
1625:Generated_Source\PSoC4/CapSense.c **** *  None
1626:Generated_Source\PSoC4/CapSense.c **** *
1627:Generated_Source\PSoC4/CapSense.c **** *******************************************************************************/
1628:Generated_Source\PSoC4/CapSense.c **** void CapSense_EnableShieldElectrode(uint32 pinNumber, uint32 portNumber)
1629:Generated_Source\PSoC4/CapSense.c **** {
 1047              		.loc 1 1629 0
 1048              		.cfi_startproc
 1049              		@ args = 0, pretend = 0, frame = 0
 1050              		@ frame_needed = 0, uses_anonymous_args = 0
 1051              	.LVL134:
 1052 0000 30B5     		push	{r4, r5, lr}
 1053              		.cfi_def_cfa_offset 12
 1054              		.cfi_offset 4, -12
 1055              		.cfi_offset 5, -8
 1056              		.cfi_offset 14, -4
1630:Generated_Source\PSoC4/CapSense.c ****     uint32 newRegValue;
1631:Generated_Source\PSoC4/CapSense.c **** 
1632:Generated_Source\PSoC4/CapSense.c ****     *CapSense_prtCfgTbl[portNumber] &= ~(CapSense_CSD_PIN_MODE_MASK << (pinNumber * CapSense_PC_PIN
 1057              		.loc 1 1632 0
 1058 0002 8900     		lsls	r1, r1, #2
 1059              	.LVL135:
 1060 0004 0A4B     		ldr	r3, .L57
 1061 0006 5918     		adds	r1, r3, r1
 1062 0008 4D6A     		ldr	r5, [r1, #36]
 1063 000a 2B68     		ldr	r3, [r5]
 1064 000c 4400     		lsls	r4, r0, #1
 1065 000e 2418     		adds	r4, r4, r0
 1066 0010 0722     		movs	r2, #7
 1067 0012 A240     		lsls	r2, r2, r4
 1068 0014 9343     		bics	r3, r2
 1069 0016 2B60     		str	r3, [r5]
1633:Generated_Source\PSoC4/CapSense.c ****     newRegValue = *CapSense_prtSelTbl[portNumber];
 1070              		.loc 1 1633 0
 1071 0018 0969     		ldr	r1, [r1, #16]
 1072 001a 0B68     		ldr	r3, [r1]
ARM GAS  C:\Users\SHOZO\AppData\Local\Temp\ccICMltU.s 			page 49


 1073              	.LVL136:
1634:Generated_Source\PSoC4/CapSense.c ****     newRegValue &= ~(CapSense_CSD_HSIOM_MASK << (pinNumber * CapSense_HSIOM_PIN_CFG_SIZE));
 1074              		.loc 1 1634 0
 1075 001c 8000     		lsls	r0, r0, #2
 1076              	.LVL137:
 1077 001e 0F22     		movs	r2, #15
 1078 0020 8240     		lsls	r2, r2, r0
 1079 0022 9343     		bics	r3, r2
 1080              	.LVL138:
 1081 0024 1A00     		movs	r2, r3
 1082              	.LVL139:
1635:Generated_Source\PSoC4/CapSense.c ****     newRegValue |= (CapSense_CSD_SHIELD_PORT_MODE << (pinNumber * CapSense_HSIOM_PIN_CFG_SIZE));
 1083              		.loc 1 1635 0
 1084 0026 0523     		movs	r3, #5
 1085 0028 8340     		lsls	r3, r3, r0
 1086 002a 1343     		orrs	r3, r2
 1087              	.LVL140:
1636:Generated_Source\PSoC4/CapSense.c ****     *CapSense_prtSelTbl[portNumber] = newRegValue;
 1088              		.loc 1 1636 0
 1089 002c 0B60     		str	r3, [r1]
1637:Generated_Source\PSoC4/CapSense.c **** }
 1090              		.loc 1 1637 0
 1091              		@ sp needed
 1092 002e 30BD     		pop	{r4, r5, pc}
 1093              	.L58:
 1094              		.align	2
 1095              	.L57:
 1096 0030 00000000 		.word	.LANCHOR1
 1097              		.cfi_endproc
 1098              	.LFE53:
 1099              		.size	CapSense_EnableShieldElectrode, .-CapSense_EnableShieldElectrode
 1100              		.section	.text.CapSense_SetShieldDelay,"ax",%progbits
 1101              		.align	2
 1102              		.global	CapSense_SetShieldDelay
 1103              		.code	16
 1104              		.thumb_func
 1105              		.type	CapSense_SetShieldDelay, %function
 1106              	CapSense_SetShieldDelay:
 1107              	.LFB54:
1638:Generated_Source\PSoC4/CapSense.c **** 
1639:Generated_Source\PSoC4/CapSense.c **** 
1640:Generated_Source\PSoC4/CapSense.c **** /*******************************************************************************
1641:Generated_Source\PSoC4/CapSense.c **** * Function Name: CapSense_SetShieldDelay
1642:Generated_Source\PSoC4/CapSense.c **** ********************************************************************************
1643:Generated_Source\PSoC4/CapSense.c **** *
1644:Generated_Source\PSoC4/CapSense.c **** * Summary:
1645:Generated_Source\PSoC4/CapSense.c **** *  This API sets a shield delay.
1646:Generated_Source\PSoC4/CapSense.c **** *
1647:Generated_Source\PSoC4/CapSense.c **** * Parameters:
1648:Generated_Source\PSoC4/CapSense.c **** *  delay:  shield delay value:
1649:Generated_Source\PSoC4/CapSense.c **** *                               0 - no delay
1650:Generated_Source\PSoC4/CapSense.c **** *                               1 - 1 cycle delay
1651:Generated_Source\PSoC4/CapSense.c **** *                               2 - 2 cycles delay
1652:Generated_Source\PSoC4/CapSense.c **** *
1653:Generated_Source\PSoC4/CapSense.c **** * Return:
1654:Generated_Source\PSoC4/CapSense.c **** *  None
1655:Generated_Source\PSoC4/CapSense.c **** *
ARM GAS  C:\Users\SHOZO\AppData\Local\Temp\ccICMltU.s 			page 50


1656:Generated_Source\PSoC4/CapSense.c **** * Global Variables:
1657:Generated_Source\PSoC4/CapSense.c **** *  None
1658:Generated_Source\PSoC4/CapSense.c **** *
1659:Generated_Source\PSoC4/CapSense.c **** * Side Effects:
1660:Generated_Source\PSoC4/CapSense.c **** *  None
1661:Generated_Source\PSoC4/CapSense.c **** *
1662:Generated_Source\PSoC4/CapSense.c **** *******************************************************************************/
1663:Generated_Source\PSoC4/CapSense.c **** void CapSense_SetShieldDelay(uint32 delay)
1664:Generated_Source\PSoC4/CapSense.c **** {
 1108              		.loc 1 1664 0
 1109              		.cfi_startproc
 1110              		@ args = 0, pretend = 0, frame = 0
 1111              		@ frame_needed = 0, uses_anonymous_args = 0
 1112              		@ link register save eliminated.
 1113              	.LVL141:
1665:Generated_Source\PSoC4/CapSense.c ****     uint32 newRegValue;
1666:Generated_Source\PSoC4/CapSense.c **** 
1667:Generated_Source\PSoC4/CapSense.c ****     delay &= 0x03u;
1668:Generated_Source\PSoC4/CapSense.c **** 
1669:Generated_Source\PSoC4/CapSense.c ****     newRegValue = CapSense_CSD_CFG_REG;
 1114              		.loc 1 1669 0
 1115 0000 044A     		ldr	r2, .L60
 1116 0002 1168     		ldr	r1, [r2]
 1117              	.LVL142:
1670:Generated_Source\PSoC4/CapSense.c ****     newRegValue &= (uint32)(~(uint32)CapSense_SHIELD_DELAY);
1671:Generated_Source\PSoC4/CapSense.c ****     newRegValue |= (delay << CapSense_CSD_CFG_SHIELD_DELAY_POS);
 1118              		.loc 1 1671 0
 1119 0004 4002     		lsls	r0, r0, #9
 1120              	.LVL143:
 1121 0006 C023     		movs	r3, #192
 1122 0008 DB00     		lsls	r3, r3, #3
 1123 000a 1840     		ands	r0, r3
 1124 000c 0843     		orrs	r0, r1
 1125              	.LVL144:
1672:Generated_Source\PSoC4/CapSense.c ****     CapSense_CSD_CFG_REG = newRegValue;
 1126              		.loc 1 1672 0
 1127 000e 1060     		str	r0, [r2]
1673:Generated_Source\PSoC4/CapSense.c **** }
 1128              		.loc 1 1673 0
 1129              		@ sp needed
 1130 0010 7047     		bx	lr
 1131              	.L61:
 1132 0012 C046     		.align	2
 1133              	.L60:
 1134 0014 04000840 		.word	1074266116
 1135              		.cfi_endproc
 1136              	.LFE54:
 1137              		.size	CapSense_SetShieldDelay, .-CapSense_SetShieldDelay
 1138              		.section	.text.CapSense_ReadCurrentScanningSensor,"ax",%progbits
 1139              		.align	2
 1140              		.global	CapSense_ReadCurrentScanningSensor
 1141              		.code	16
 1142              		.thumb_func
 1143              		.type	CapSense_ReadCurrentScanningSensor, %function
 1144              	CapSense_ReadCurrentScanningSensor:
 1145              	.LFB55:
1674:Generated_Source\PSoC4/CapSense.c **** 
ARM GAS  C:\Users\SHOZO\AppData\Local\Temp\ccICMltU.s 			page 51


1675:Generated_Source\PSoC4/CapSense.c **** 
1676:Generated_Source\PSoC4/CapSense.c **** /*******************************************************************************
1677:Generated_Source\PSoC4/CapSense.c **** * Function Name: CapSense_ReadCurrentScanningSensor
1678:Generated_Source\PSoC4/CapSense.c **** ********************************************************************************
1679:Generated_Source\PSoC4/CapSense.c **** *
1680:Generated_Source\PSoC4/CapSense.c **** * Summary:
1681:Generated_Source\PSoC4/CapSense.c **** *  This API returns scanning sensor number when sensor scan is in progress.
1682:Generated_Source\PSoC4/CapSense.c **** *  When sensor scan is completed the API returns
1683:Generated_Source\PSoC4/CapSense.c **** *  $INSTANCE_NAME`_NOT_SENSOR (0xFFFFFFFF) (when no sensor is scanned).
1684:Generated_Source\PSoC4/CapSense.c **** *
1685:Generated_Source\PSoC4/CapSense.c **** * Parameters:
1686:Generated_Source\PSoC4/CapSense.c **** *   None.
1687:Generated_Source\PSoC4/CapSense.c **** *
1688:Generated_Source\PSoC4/CapSense.c **** * Return:
1689:Generated_Source\PSoC4/CapSense.c **** *  Returns Sensor number if sensor is being scanned and
1690:Generated_Source\PSoC4/CapSense.c **** *  $INSTANCE_NAME`_NOT_SENSOR (0xFFFFFFFF) if scanning is complete.
1691:Generated_Source\PSoC4/CapSense.c **** *
1692:Generated_Source\PSoC4/CapSense.c **** * Global Variables:
1693:Generated_Source\PSoC4/CapSense.c **** *  CapSense_sensorIndex - the sensor number is being scanned.
1694:Generated_Source\PSoC4/CapSense.c **** *
1695:Generated_Source\PSoC4/CapSense.c **** * Side Effects:
1696:Generated_Source\PSoC4/CapSense.c **** *  None
1697:Generated_Source\PSoC4/CapSense.c **** *
1698:Generated_Source\PSoC4/CapSense.c **** *******************************************************************************/
1699:Generated_Source\PSoC4/CapSense.c **** uint32 CapSense_ReadCurrentScanningSensor(void)
1700:Generated_Source\PSoC4/CapSense.c **** {
 1146              		.loc 1 1700 0
 1147              		.cfi_startproc
 1148              		@ args = 0, pretend = 0, frame = 0
 1149              		@ frame_needed = 0, uses_anonymous_args = 0
 1150              		@ link register save eliminated.
1701:Generated_Source\PSoC4/CapSense.c ****     return ((uint32)(( 0u != (CapSense_csdStatusVar & CapSense_SW_STS_BUSY)) ?
 1151              		.loc 1 1701 0
 1152 0000 054B     		ldr	r3, .L65
 1153 0002 1B78     		ldrb	r3, [r3]
 1154 0004 DB07     		lsls	r3, r3, #31
 1155 0006 03D5     		bpl	.L64
 1156              		.loc 1 1701 0 is_stmt 0 discriminator 1
 1157 0008 034B     		ldr	r3, .L65
 1158 000a 987B     		ldrb	r0, [r3, #14]
 1159 000c C0B2     		uxtb	r0, r0
 1160 000e 01E0     		b	.L63
 1161              	.L64:
 1162              		.loc 1 1701 0
 1163 0010 0120     		movs	r0, #1
 1164 0012 4042     		rsbs	r0, r0, #0
 1165              	.L63:
1702:Generated_Source\PSoC4/CapSense.c ****                      CapSense_sensorIndex : CapSense_NOT_SENSOR));
1703:Generated_Source\PSoC4/CapSense.c **** }
 1166              		.loc 1 1703 0 is_stmt 1 discriminator 4
 1167              		@ sp needed
 1168 0014 7047     		bx	lr
 1169              	.L66:
 1170 0016 C046     		.align	2
 1171              	.L65:
 1172 0018 00000000 		.word	.LANCHOR0
 1173              		.cfi_endproc
ARM GAS  C:\Users\SHOZO\AppData\Local\Temp\ccICMltU.s 			page 52


 1174              	.LFE55:
 1175              		.size	CapSense_ReadCurrentScanningSensor, .-CapSense_ReadCurrentScanningSensor
 1176              		.section	.text.CapSense_GetBitValue,"ax",%progbits
 1177              		.align	2
 1178              		.global	CapSense_GetBitValue
 1179              		.code	16
 1180              		.thumb_func
 1181              		.type	CapSense_GetBitValue, %function
 1182              	CapSense_GetBitValue:
 1183              	.LFB56:
1704:Generated_Source\PSoC4/CapSense.c **** 
1705:Generated_Source\PSoC4/CapSense.c **** 
1706:Generated_Source\PSoC4/CapSense.c **** /*******************************************************************************
1707:Generated_Source\PSoC4/CapSense.c **** * Function Name: CapSense_GetBitValue
1708:Generated_Source\PSoC4/CapSense.c **** ********************************************************************************
1709:Generated_Source\PSoC4/CapSense.c **** *
1710:Generated_Source\PSoC4/CapSense.c **** * Summary:
1711:Generated_Source\PSoC4/CapSense.c **** *  The API returns a bit status of the bit in the table array which contains the masks.
1712:Generated_Source\PSoC4/CapSense.c **** *
1713:Generated_Source\PSoC4/CapSense.c **** * Parameters:
1714:Generated_Source\PSoC4/CapSense.c **** *  table[] - array with bit masks.
1715:Generated_Source\PSoC4/CapSense.c **** *  position - position of bit in the table[] array.
1716:Generated_Source\PSoC4/CapSense.c **** *
1717:Generated_Source\PSoC4/CapSense.c **** * Return:
1718:Generated_Source\PSoC4/CapSense.c **** *  0 - bit is not set; 1 - bit is set.
1719:Generated_Source\PSoC4/CapSense.c **** *
1720:Generated_Source\PSoC4/CapSense.c **** * Global Variables:
1721:Generated_Source\PSoC4/CapSense.c **** *  None
1722:Generated_Source\PSoC4/CapSense.c **** *
1723:Generated_Source\PSoC4/CapSense.c **** * Side Effects:
1724:Generated_Source\PSoC4/CapSense.c **** *  None
1725:Generated_Source\PSoC4/CapSense.c **** *
1726:Generated_Source\PSoC4/CapSense.c **** *******************************************************************************/
1727:Generated_Source\PSoC4/CapSense.c **** uint32 CapSense_GetBitValue(const uint8 table[], uint32 position)
1728:Generated_Source\PSoC4/CapSense.c **** {
 1184              		.loc 1 1728 0
 1185              		.cfi_startproc
 1186              		@ args = 0, pretend = 0, frame = 0
 1187              		@ frame_needed = 0, uses_anonymous_args = 0
 1188              		@ link register save eliminated.
 1189              	.LVL145:
1729:Generated_Source\PSoC4/CapSense.c ****     uint32 offset;
1730:Generated_Source\PSoC4/CapSense.c ****     uint8 enMask;
1731:Generated_Source\PSoC4/CapSense.c **** 
1732:Generated_Source\PSoC4/CapSense.c ****     /* position is divided by 8 to calculate the element of the
1733:Generated_Source\PSoC4/CapSense.c ****        table[] array that contains the enable bit
1734:Generated_Source\PSoC4/CapSense.c ****        for an appropriate sensor.
1735:Generated_Source\PSoC4/CapSense.c ****     */
1736:Generated_Source\PSoC4/CapSense.c ****     offset = (position >> 3u);
 1190              		.loc 1 1736 0
 1191 0000 CA08     		lsrs	r2, r1, #3
 1192              	.LVL146:
1737:Generated_Source\PSoC4/CapSense.c **** 
1738:Generated_Source\PSoC4/CapSense.c ****     /* The enMask calculation for the appropriate sensor. Operation (position & 0x07u)
1739:Generated_Source\PSoC4/CapSense.c ****        intends to calculate the enable bit offset for the 8-bit element of the
1740:Generated_Source\PSoC4/CapSense.c ****        table[] array.
1741:Generated_Source\PSoC4/CapSense.c ****     */
ARM GAS  C:\Users\SHOZO\AppData\Local\Temp\ccICMltU.s 			page 53


1742:Generated_Source\PSoC4/CapSense.c ****     enMask = 0x01u << (position & 0x07u);
 1193              		.loc 1 1742 0
 1194 0002 0723     		movs	r3, #7
 1195 0004 1940     		ands	r1, r3
 1196              	.LVL147:
 1197 0006 063B     		subs	r3, r3, #6
 1198 0008 8B40     		lsls	r3, r3, r1
 1199              	.LVL148:
1743:Generated_Source\PSoC4/CapSense.c **** 
1744:Generated_Source\PSoC4/CapSense.c ****     return ((0u !=(table[offset] & enMask)) ? 1Lu : 0Lu);
 1200              		.loc 1 1744 0
 1201 000a 825C     		ldrb	r2, [r0, r2]
 1202              	.LVL149:
 1203 000c 1342     		tst	r3, r2
 1204 000e 01D0     		beq	.L69
 1205 0010 0120     		movs	r0, #1
 1206              	.LVL150:
 1207 0012 00E0     		b	.L68
 1208              	.LVL151:
 1209              	.L69:
 1210 0014 0020     		movs	r0, #0
 1211              	.LVL152:
 1212              	.L68:
1745:Generated_Source\PSoC4/CapSense.c **** }
 1213              		.loc 1 1745 0 discriminator 4
 1214              		@ sp needed
 1215 0016 7047     		bx	lr
 1216              		.cfi_endproc
 1217              	.LFE56:
 1218              		.size	CapSense_GetBitValue, .-CapSense_GetBitValue
 1219              		.section	.text.CapSense_FindNextSensor,"ax",%progbits
 1220              		.align	2
 1221              		.global	CapSense_FindNextSensor
 1222              		.code	16
 1223              		.thumb_func
 1224              		.type	CapSense_FindNextSensor, %function
 1225              	CapSense_FindNextSensor:
 1226              	.LFB37:
 510:Generated_Source\PSoC4/CapSense.c ****     uint32 enableFlag;
 1227              		.loc 1 510 0
 1228              		.cfi_startproc
 1229              		@ args = 0, pretend = 0, frame = 0
 1230              		@ frame_needed = 0, uses_anonymous_args = 0
 1231              	.LVL153:
 1232 0000 10B5     		push	{r4, lr}
 1233              		.cfi_def_cfa_offset 8
 1234              		.cfi_offset 4, -8
 1235              		.cfi_offset 14, -4
 1236 0002 0400     		movs	r4, r0
 1237              	.LVL154:
 1238              	.L72:
 517:Generated_Source\PSoC4/CapSense.c ****         if(snsIndex == CapSense_TOTAL_SENSOR_COUNT)
 1239              		.loc 1 517 0
 1240 0004 0134     		adds	r4, r4, #1
 1241              	.LVL155:
 1242 0006 E4B2     		uxtb	r4, r4
 1243              	.LVL156:
ARM GAS  C:\Users\SHOZO\AppData\Local\Temp\ccICMltU.s 			page 54


 518:Generated_Source\PSoC4/CapSense.c ****         {
 1244              		.loc 1 518 0
 1245 0008 052C     		cmp	r4, #5
 1246 000a 06D0     		beq	.L71
 522:Generated_Source\PSoC4/CapSense.c ****     }
 1247              		.loc 1 522 0
 1248 000c 2100     		movs	r1, r4
 1249 000e 0448     		ldr	r0, .L73
 1250 0010 1030     		adds	r0, r0, #16
 1251 0012 FFF7FEFF 		bl	CapSense_GetBitValue
 1252              	.LVL157:
 524:Generated_Source\PSoC4/CapSense.c **** 
 1253              		.loc 1 524 0
 1254 0016 0028     		cmp	r0, #0
 1255 0018 F4D0     		beq	.L72
 1256              	.LVL158:
 1257              	.L71:
 527:Generated_Source\PSoC4/CapSense.c **** 
 1258              		.loc 1 527 0
 1259 001a 2000     		movs	r0, r4
 1260              		@ sp needed
 1261              	.LVL159:
 1262 001c 10BD     		pop	{r4, pc}
 1263              	.L74:
 1264 001e C046     		.align	2
 1265              	.L73:
 1266 0020 00000000 		.word	.LANCHOR2
 1267              		.cfi_endproc
 1268              	.LFE37:
 1269              		.size	CapSense_FindNextSensor, .-CapSense_FindNextSensor
 1270              		.section	.text.CapSense_ScanEnabledWidgets,"ax",%progbits
 1271              		.align	2
 1272              		.global	CapSense_ScanEnabledWidgets
 1273              		.code	16
 1274              		.thumb_func
 1275              		.type	CapSense_ScanEnabledWidgets, %function
 1276              	CapSense_ScanEnabledWidgets:
 1277              	.LFB40:
 682:Generated_Source\PSoC4/CapSense.c ****     /* Clears status/control variable and set sensorIndex */
 1278              		.loc 1 682 0
 1279              		.cfi_startproc
 1280              		@ args = 0, pretend = 0, frame = 0
 1281              		@ frame_needed = 0, uses_anonymous_args = 0
 1282 0000 10B5     		push	{r4, lr}
 1283              		.cfi_def_cfa_offset 8
 1284              		.cfi_offset 4, -8
 1285              		.cfi_offset 14, -4
 684:Generated_Source\PSoC4/CapSense.c ****     CapSense_sensorIndex = 0xFFu;
 1286              		.loc 1 684 0
 1287 0002 0C4C     		ldr	r4, .L77
 1288 0004 0023     		movs	r3, #0
 1289 0006 2370     		strb	r3, [r4]
 685:Generated_Source\PSoC4/CapSense.c **** 
 1290              		.loc 1 685 0
 1291 0008 FF33     		adds	r3, r3, #255
 1292 000a A373     		strb	r3, [r4, #14]
 688:Generated_Source\PSoC4/CapSense.c **** 
ARM GAS  C:\Users\SHOZO\AppData\Local\Temp\ccICMltU.s 			page 55


 1293              		.loc 1 688 0
 1294 000c A07B     		ldrb	r0, [r4, #14]
 1295 000e C0B2     		uxtb	r0, r0
 1296 0010 FFF7FEFF 		bl	CapSense_FindNextSensor
 1297              	.LVL160:
 1298 0014 A073     		strb	r0, [r4, #14]
 691:Generated_Source\PSoC4/CapSense.c ****     {
 1299              		.loc 1 691 0
 1300 0016 A37B     		ldrb	r3, [r4, #14]
 1301 0018 DBB2     		uxtb	r3, r3
 1302 001a 042B     		cmp	r3, #4
 1303 001c 08D8     		bhi	.L75
 693:Generated_Source\PSoC4/CapSense.c ****         CapSense_PreScan((uint32)CapSense_sensorIndex);
 1304              		.loc 1 693 0
 1305 001e 2178     		ldrb	r1, [r4]
 1306 0020 0123     		movs	r3, #1
 1307 0022 0B43     		orrs	r3, r1
 1308 0024 DBB2     		uxtb	r3, r3
 1309 0026 2370     		strb	r3, [r4]
 694:Generated_Source\PSoC4/CapSense.c ****     }
 1310              		.loc 1 694 0
 1311 0028 A07B     		ldrb	r0, [r4, #14]
 1312 002a C0B2     		uxtb	r0, r0
 1313 002c FFF7FEFF 		bl	CapSense_PreScan
 1314              	.LVL161:
 1315              	.L75:
 696:Generated_Source\PSoC4/CapSense.c **** 
 1316              		.loc 1 696 0
 1317              		@ sp needed
 1318 0030 10BD     		pop	{r4, pc}
 1319              	.L78:
 1320 0032 C046     		.align	2
 1321              	.L77:
 1322 0034 00000000 		.word	.LANCHOR0
 1323              		.cfi_endproc
 1324              	.LFE40:
 1325              		.size	CapSense_ScanEnabledWidgets, .-CapSense_ScanEnabledWidgets
 1326              		.section	.text.CapSense_SetBitValue,"ax",%progbits
 1327              		.align	2
 1328              		.global	CapSense_SetBitValue
 1329              		.code	16
 1330              		.thumb_func
 1331              		.type	CapSense_SetBitValue, %function
 1332              	CapSense_SetBitValue:
 1333              	.LFB57:
1746:Generated_Source\PSoC4/CapSense.c **** 
1747:Generated_Source\PSoC4/CapSense.c **** 
1748:Generated_Source\PSoC4/CapSense.c **** /*******************************************************************************
1749:Generated_Source\PSoC4/CapSense.c **** * Function Name: CapSense_SetBitValue
1750:Generated_Source\PSoC4/CapSense.c **** ********************************************************************************
1751:Generated_Source\PSoC4/CapSense.c **** *
1752:Generated_Source\PSoC4/CapSense.c **** * Summary:
1753:Generated_Source\PSoC4/CapSense.c **** *  The API sets a bit status of the bit in the table array which contains masks.
1754:Generated_Source\PSoC4/CapSense.c **** *
1755:Generated_Source\PSoC4/CapSense.c **** * Parameters:
1756:Generated_Source\PSoC4/CapSense.c **** *  table[] - array with bit masks.
1757:Generated_Source\PSoC4/CapSense.c **** *  position - position of bit in the table[] array.
ARM GAS  C:\Users\SHOZO\AppData\Local\Temp\ccICMltU.s 			page 56


1758:Generated_Source\PSoC4/CapSense.c **** *  value: 0 - bit is not set; 1 - bit is set.
1759:Generated_Source\PSoC4/CapSense.c **** *
1760:Generated_Source\PSoC4/CapSense.c **** * Return:
1761:Generated_Source\PSoC4/CapSense.c **** *  None
1762:Generated_Source\PSoC4/CapSense.c **** *
1763:Generated_Source\PSoC4/CapSense.c **** * Global Variables:
1764:Generated_Source\PSoC4/CapSense.c **** *  None
1765:Generated_Source\PSoC4/CapSense.c **** *
1766:Generated_Source\PSoC4/CapSense.c **** * Side Effects:
1767:Generated_Source\PSoC4/CapSense.c **** *  None
1768:Generated_Source\PSoC4/CapSense.c **** *
1769:Generated_Source\PSoC4/CapSense.c **** *******************************************************************************/
1770:Generated_Source\PSoC4/CapSense.c **** void CapSense_SetBitValue(uint8 table[], uint32 position, uint32 value)
1771:Generated_Source\PSoC4/CapSense.c **** {
 1334              		.loc 1 1771 0
 1335              		.cfi_startproc
 1336              		@ args = 0, pretend = 0, frame = 0
 1337              		@ frame_needed = 0, uses_anonymous_args = 0
 1338              	.LVL162:
 1339 0000 10B5     		push	{r4, lr}
 1340              		.cfi_def_cfa_offset 8
 1341              		.cfi_offset 4, -8
 1342              		.cfi_offset 14, -4
1772:Generated_Source\PSoC4/CapSense.c ****     uint32 offset;
1773:Generated_Source\PSoC4/CapSense.c ****     uint8 enMask;
1774:Generated_Source\PSoC4/CapSense.c **** 
1775:Generated_Source\PSoC4/CapSense.c ****     /* position is divided by 8 to calculate the element of the
1776:Generated_Source\PSoC4/CapSense.c ****        table[] array that contains the enable bit
1777:Generated_Source\PSoC4/CapSense.c ****        for an appropriate sensor.
1778:Generated_Source\PSoC4/CapSense.c ****     */
1779:Generated_Source\PSoC4/CapSense.c ****     offset = (position >> 3u);
 1343              		.loc 1 1779 0
 1344 0002 CC08     		lsrs	r4, r1, #3
 1345              	.LVL163:
1780:Generated_Source\PSoC4/CapSense.c **** 
1781:Generated_Source\PSoC4/CapSense.c ****     /* The enMask calculation for the appropriate sensor. Operation (position & 0x07u)
1782:Generated_Source\PSoC4/CapSense.c ****        intends to calculate the enable bit offset for the 8-bit element of the
1783:Generated_Source\PSoC4/CapSense.c ****        table[] array.
1784:Generated_Source\PSoC4/CapSense.c ****     */
1785:Generated_Source\PSoC4/CapSense.c ****     enMask = 0x01u << (position & 0x07u);
 1346              		.loc 1 1785 0
 1347 0004 0723     		movs	r3, #7
 1348 0006 1940     		ands	r1, r3
 1349              	.LVL164:
 1350 0008 063B     		subs	r3, r3, #6
 1351 000a 8B40     		lsls	r3, r3, r1
 1352 000c DBB2     		uxtb	r3, r3
 1353              	.LVL165:
1786:Generated_Source\PSoC4/CapSense.c **** 
1787:Generated_Source\PSoC4/CapSense.c ****     if(0u != value)
 1354              		.loc 1 1787 0
 1355 000e 002A     		cmp	r2, #0
 1356 0010 04D0     		beq	.L80
1788:Generated_Source\PSoC4/CapSense.c ****     {
1789:Generated_Source\PSoC4/CapSense.c ****         table[offset] |= enMask;
 1357              		.loc 1 1789 0
 1358 0012 0419     		adds	r4, r0, r4
ARM GAS  C:\Users\SHOZO\AppData\Local\Temp\ccICMltU.s 			page 57


 1359              	.LVL166:
 1360 0014 2278     		ldrb	r2, [r4]
 1361              	.LVL167:
 1362 0016 1343     		orrs	r3, r2
 1363              	.LVL168:
 1364 0018 2370     		strb	r3, [r4]
 1365 001a 03E0     		b	.L79
 1366              	.LVL169:
 1367              	.L80:
1790:Generated_Source\PSoC4/CapSense.c ****     }
1791:Generated_Source\PSoC4/CapSense.c ****     else
1792:Generated_Source\PSoC4/CapSense.c ****     {
1793:Generated_Source\PSoC4/CapSense.c ****         table[offset] &= (uint8)~(enMask);
 1368              		.loc 1 1793 0
 1369 001c 0419     		adds	r4, r0, r4
 1370              	.LVL170:
 1371 001e 2278     		ldrb	r2, [r4]
 1372              	.LVL171:
 1373 0020 9A43     		bics	r2, r3
 1374 0022 2270     		strb	r2, [r4]
 1375              	.LVL172:
 1376              	.L79:
1794:Generated_Source\PSoC4/CapSense.c ****     }
1795:Generated_Source\PSoC4/CapSense.c **** }
 1377              		.loc 1 1795 0
 1378              		@ sp needed
 1379 0024 10BD     		pop	{r4, pc}
 1380              		.cfi_endproc
 1381              	.LFE57:
 1382              		.size	CapSense_SetBitValue, .-CapSense_SetBitValue
 1383 0026 C046     		.section	.text.CapSense_ScanWidget,"ax",%progbits
 1384              		.align	2
 1385              		.global	CapSense_ScanWidget
 1386              		.code	16
 1387              		.thumb_func
 1388              		.type	CapSense_ScanWidget, %function
 1389              	CapSense_ScanWidget:
 1390              	.LFB39:
 597:Generated_Source\PSoC4/CapSense.c ****     uint32 sensorsPerWidget;
 1391              		.loc 1 597 0
 1392              		.cfi_startproc
 1393              		@ args = 0, pretend = 0, frame = 0
 1394              		@ frame_needed = 0, uses_anonymous_args = 0
 1395              	.LVL173:
 1396 0000 70B5     		push	{r4, r5, r6, lr}
 1397              		.cfi_def_cfa_offset 16
 1398              		.cfi_offset 4, -16
 1399              		.cfi_offset 5, -12
 1400              		.cfi_offset 6, -8
 1401              		.cfi_offset 14, -4
 603:Generated_Source\PSoC4/CapSense.c **** 
 1402              		.loc 1 603 0
 1403 0002 1D4B     		ldr	r3, .L92
 1404 0004 1B5C     		ldrb	r3, [r3, r0]
 1405 0006 1D4A     		ldr	r2, .L92+4
 1406 0008 9373     		strb	r3, [r2, #14]
 606:Generated_Source\PSoC4/CapSense.c **** 
ARM GAS  C:\Users\SHOZO\AppData\Local\Temp\ccICMltU.s 			page 58


 1407              		.loc 1 606 0
 1408 000a 1D4A     		ldr	r2, .L92+8
 1409 000c 155C     		ldrb	r5, [r2, r0]
 1410              	.LVL174:
 609:Generated_Source\PSoC4/CapSense.c ****     {
 1411              		.loc 1 609 0
 1412 000e 002D     		cmp	r5, #0
 1413 0010 00D1     		bne	.L83
 611:Generated_Source\PSoC4/CapSense.c ****     }
 1414              		.loc 1 611 0
 1415 0012 0135     		adds	r5, r5, #1
 1416              	.LVL175:
 1417              	.L83:
 615:Generated_Source\PSoC4/CapSense.c **** 
 1418              		.loc 1 615 0
 1419 0014 5D19     		adds	r5, r3, r5
 1420              	.LVL176:
 1421 0016 013D     		subs	r5, r5, #1
 1422              	.LVL177:
 618:Generated_Source\PSoC4/CapSense.c ****     {
 1423              		.loc 1 618 0
 1424 0018 0023     		movs	r3, #0
 1425 001a 05E0     		b	.L84
 1426              	.LVL178:
 1427              	.L85:
 621:Generated_Source\PSoC4/CapSense.c ****     }
 1428              		.loc 1 621 0 discriminator 3
 1429 001c 194A     		ldr	r2, .L92+12
 1430 001e D218     		adds	r2, r2, r3
 1431 0020 117C     		ldrb	r1, [r2, #16]
 1432 0022 194A     		ldr	r2, .L92+16
 1433 0024 D154     		strb	r1, [r2, r3]
 618:Generated_Source\PSoC4/CapSense.c ****     {
 1434              		.loc 1 618 0 discriminator 3
 1435 0026 0133     		adds	r3, r3, #1
 1436              	.LVL179:
 1437              	.L84:
 618:Generated_Source\PSoC4/CapSense.c ****     {
 1438              		.loc 1 618 0 is_stmt 0 discriminator 1
 1439 0028 002B     		cmp	r3, #0
 1440 002a F7D0     		beq	.L85
 1441 002c 0024     		movs	r4, #0
 1442 002e 14E0     		b	.L86
 1443              	.LVL180:
 1444              	.L89:
 628:Generated_Source\PSoC4/CapSense.c ****         {
 1445              		.loc 1 628 0 is_stmt 1
 1446 0030 124B     		ldr	r3, .L92+4
 1447 0032 9B7B     		ldrb	r3, [r3, #14]
 1448 0034 DBB2     		uxtb	r3, r3
 1449 0036 9C42     		cmp	r4, r3
 1450 0038 08D3     		bcc	.L87
 628:Generated_Source\PSoC4/CapSense.c ****         {
 1451              		.loc 1 628 0 is_stmt 0 discriminator 1
 1452 003a AC42     		cmp	r4, r5
 1453 003c 06D8     		bhi	.L87
 631:Generated_Source\PSoC4/CapSense.c ****         }
ARM GAS  C:\Users\SHOZO\AppData\Local\Temp\ccICMltU.s 			page 59


 1454              		.loc 1 631 0 is_stmt 1
 1455 003e 0122     		movs	r2, #1
 1456 0040 2100     		movs	r1, r4
 1457 0042 1048     		ldr	r0, .L92+12
 1458 0044 1030     		adds	r0, r0, #16
 1459 0046 FFF7FEFF 		bl	CapSense_SetBitValue
 1460              	.LVL181:
 1461 004a 05E0     		b	.L88
 1462              	.L87:
 636:Generated_Source\PSoC4/CapSense.c ****         }
 1463              		.loc 1 636 0
 1464 004c 0022     		movs	r2, #0
 1465 004e 2100     		movs	r1, r4
 1466 0050 0C48     		ldr	r0, .L92+12
 1467 0052 1030     		adds	r0, r0, #16
 1468 0054 FFF7FEFF 		bl	CapSense_SetBitValue
 1469              	.LVL182:
 1470              	.L88:
 625:Generated_Source\PSoC4/CapSense.c ****     {
 1471              		.loc 1 625 0 discriminator 2
 1472 0058 0134     		adds	r4, r4, #1
 1473              	.LVL183:
 1474              	.L86:
 625:Generated_Source\PSoC4/CapSense.c ****     {
 1475              		.loc 1 625 0 is_stmt 0 discriminator 1
 1476 005a 042C     		cmp	r4, #4
 1477 005c E8D9     		bls	.L89
 641:Generated_Source\PSoC4/CapSense.c ****     {
 1478              		.loc 1 641 0 is_stmt 1
 1479 005e 074B     		ldr	r3, .L92+4
 1480 0060 9B7B     		ldrb	r3, [r3, #14]
 1481 0062 DBB2     		uxtb	r3, r3
 1482 0064 042B     		cmp	r3, #4
 1483 0066 06D8     		bhi	.L82
 644:Generated_Source\PSoC4/CapSense.c ****         /* Scan first sensor of widget*/
 1484              		.loc 1 644 0
 1485 0068 044B     		ldr	r3, .L92+4
 1486 006a 4122     		movs	r2, #65
 1487 006c 1A70     		strb	r2, [r3]
 646:Generated_Source\PSoC4/CapSense.c ****     }
 1488              		.loc 1 646 0
 1489 006e 987B     		ldrb	r0, [r3, #14]
 1490 0070 C0B2     		uxtb	r0, r0
 1491 0072 FFF7FEFF 		bl	CapSense_PreScan
 1492              	.LVL184:
 1493              	.L82:
 648:Generated_Source\PSoC4/CapSense.c **** #endif /* (0u != CapSense_CSHL_API_GENERATE) */
 1494              		.loc 1 648 0
 1495              		@ sp needed
 1496              	.LVL185:
 1497              	.LVL186:
 1498 0076 70BD     		pop	{r4, r5, r6, pc}
 1499              	.L93:
 1500              		.align	2
 1501              	.L92:
 1502 0078 00000000 		.word	CapSense_rawDataIndex
 1503 007c 00000000 		.word	.LANCHOR0
ARM GAS  C:\Users\SHOZO\AppData\Local\Temp\ccICMltU.s 			page 60


 1504 0080 00000000 		.word	CapSense_numberOfSensors
 1505 0084 00000000 		.word	.LANCHOR2
 1506 0088 00000000 		.word	CapSense_sensorEnableMaskBackup
 1507              		.cfi_endproc
 1508              	.LFE39:
 1509              		.size	CapSense_ScanWidget, .-CapSense_ScanWidget
 1510              		.section	.text.CapSense_GetSenseClkDivider,"ax",%progbits
 1511              		.align	2
 1512              		.global	CapSense_GetSenseClkDivider
 1513              		.code	16
 1514              		.thumb_func
 1515              		.type	CapSense_GetSenseClkDivider, %function
 1516              	CapSense_GetSenseClkDivider:
 1517              	.LFB58:
1796:Generated_Source\PSoC4/CapSense.c **** 
1797:Generated_Source\PSoC4/CapSense.c **** 
1798:Generated_Source\PSoC4/CapSense.c **** 
1799:Generated_Source\PSoC4/CapSense.c **** /*******************************************************************************
1800:Generated_Source\PSoC4/CapSense.c **** * Function Name: CapSense_GetSenseClkDivider
1801:Generated_Source\PSoC4/CapSense.c **** ********************************************************************************
1802:Generated_Source\PSoC4/CapSense.c **** *
1803:Generated_Source\PSoC4/CapSense.c **** * Summary:
1804:Generated_Source\PSoC4/CapSense.c **** *  This API returns a value of the sense clock divider for the  sensor.
1805:Generated_Source\PSoC4/CapSense.c **** *
1806:Generated_Source\PSoC4/CapSense.c **** * Parameters:
1807:Generated_Source\PSoC4/CapSense.c **** *  sensor: sensor index. The index value can be
1808:Generated_Source\PSoC4/CapSense.c **** *  from 0 to (CapSense_TOTAL_SENSOR_COUNT-1).
1809:Generated_Source\PSoC4/CapSense.c **** *
1810:Generated_Source\PSoC4/CapSense.c **** * Return:
1811:Generated_Source\PSoC4/CapSense.c **** *  This API returns the sense clock divider of the sensor.
1812:Generated_Source\PSoC4/CapSense.c **** *
1813:Generated_Source\PSoC4/CapSense.c **** * Global Variables:
1814:Generated_Source\PSoC4/CapSense.c **** *  CapSense_senseClkDividerVal[] - stores the sense clock divider values.
1815:Generated_Source\PSoC4/CapSense.c **** *
1816:Generated_Source\PSoC4/CapSense.c **** * Side Effects:
1817:Generated_Source\PSoC4/CapSense.c **** *  None
1818:Generated_Source\PSoC4/CapSense.c **** *
1819:Generated_Source\PSoC4/CapSense.c **** *******************************************************************************/
1820:Generated_Source\PSoC4/CapSense.c **** uint32 CapSense_GetSenseClkDivider(uint32 sensor)
1821:Generated_Source\PSoC4/CapSense.c **** {
 1518              		.loc 1 1821 0
 1519              		.cfi_startproc
 1520              		@ args = 0, pretend = 0, frame = 0
 1521              		@ frame_needed = 0, uses_anonymous_args = 0
 1522              		@ link register save eliminated.
 1523              	.LVL187:
1822:Generated_Source\PSoC4/CapSense.c ****     #if(0u != CapSense_MULTIPLE_FREQUENCY_SET)
1823:Generated_Source\PSoC4/CapSense.c ****         return((uint32)CapSense_senseClkDividerVal[sensor]);
 1524              		.loc 1 1823 0
 1525 0000 024B     		ldr	r3, .L95
 1526 0002 1818     		adds	r0, r3, r0
 1527              	.LVL188:
 1528 0004 5423     		movs	r3, #84
 1529 0006 C05C     		ldrb	r0, [r0, r3]
1824:Generated_Source\PSoC4/CapSense.c ****     #else
1825:Generated_Source\PSoC4/CapSense.c ****         return((uint32)CapSense_senseClkDividerVal);
1826:Generated_Source\PSoC4/CapSense.c ****     #endif /* (0u != CapSense_MULTIPLE_FREQUENCY_SET) */
ARM GAS  C:\Users\SHOZO\AppData\Local\Temp\ccICMltU.s 			page 61


1827:Generated_Source\PSoC4/CapSense.c **** }
 1530              		.loc 1 1827 0
 1531              		@ sp needed
 1532 0008 7047     		bx	lr
 1533              	.L96:
 1534 000a C046     		.align	2
 1535              	.L95:
 1536 000c 00000000 		.word	.LANCHOR1
 1537              		.cfi_endproc
 1538              	.LFE58:
 1539              		.size	CapSense_GetSenseClkDivider, .-CapSense_GetSenseClkDivider
 1540              		.section	.text.CapSense_GetModulatorClkDivider,"ax",%progbits
 1541              		.align	2
 1542              		.global	CapSense_GetModulatorClkDivider
 1543              		.code	16
 1544              		.thumb_func
 1545              		.type	CapSense_GetModulatorClkDivider, %function
 1546              	CapSense_GetModulatorClkDivider:
 1547              	.LFB59:
1828:Generated_Source\PSoC4/CapSense.c **** 
1829:Generated_Source\PSoC4/CapSense.c **** #if (CapSense_TUNING_METHOD != CapSense__TUNING_NONE)
1830:Generated_Source\PSoC4/CapSense.c ****     /*******************************************************************************
1831:Generated_Source\PSoC4/CapSense.c ****     * Function Name: CapSense_SetSenseClkDivider
1832:Generated_Source\PSoC4/CapSense.c ****     ********************************************************************************
1833:Generated_Source\PSoC4/CapSense.c ****     *
1834:Generated_Source\PSoC4/CapSense.c ****     * Summary:
1835:Generated_Source\PSoC4/CapSense.c ****     *  This API sets a value of the sense clock divider for the  sensor.
1836:Generated_Source\PSoC4/CapSense.c ****     *
1837:Generated_Source\PSoC4/CapSense.c ****     * Parameters:
1838:Generated_Source\PSoC4/CapSense.c ****     *  sensor:  Sensor index.
1839:Generated_Source\PSoC4/CapSense.c ****     *  senseClk: represents the sense clock value.
1840:Generated_Source\PSoC4/CapSense.c ****     *
1841:Generated_Source\PSoC4/CapSense.c ****     * Return:
1842:Generated_Source\PSoC4/CapSense.c ****     *  None.
1843:Generated_Source\PSoC4/CapSense.c ****     *
1844:Generated_Source\PSoC4/CapSense.c ****     * Global Variables:
1845:Generated_Source\PSoC4/CapSense.c ****     *  CapSense_senseClkDividerVal[] - stores the sense clock divider values.
1846:Generated_Source\PSoC4/CapSense.c ****     *
1847:Generated_Source\PSoC4/CapSense.c ****     * Side Effects:
1848:Generated_Source\PSoC4/CapSense.c ****     *  None
1849:Generated_Source\PSoC4/CapSense.c ****     *
1850:Generated_Source\PSoC4/CapSense.c ****     *******************************************************************************/
1851:Generated_Source\PSoC4/CapSense.c ****     void CapSense_SetSenseClkDivider(uint32 sensor, uint32 senseClk)
1852:Generated_Source\PSoC4/CapSense.c ****     {
1853:Generated_Source\PSoC4/CapSense.c ****         #if(0u != CapSense_MULTIPLE_FREQUENCY_SET)
1854:Generated_Source\PSoC4/CapSense.c ****             CapSense_senseClkDividerVal[sensor] = (uint8)senseClk;
1855:Generated_Source\PSoC4/CapSense.c ****         #else
1856:Generated_Source\PSoC4/CapSense.c ****             CapSense_senseClkDividerVal = (uint8)senseClk;
1857:Generated_Source\PSoC4/CapSense.c ****         #endif /* (0u != CapSense_MULTIPLE_FREQUENCY_SET) */
1858:Generated_Source\PSoC4/CapSense.c ****     }
1859:Generated_Source\PSoC4/CapSense.c **** #endif /* (CapSense_TUNING_METHOD != CapSense__TUNING_NONE) */
1860:Generated_Source\PSoC4/CapSense.c **** 
1861:Generated_Source\PSoC4/CapSense.c **** 
1862:Generated_Source\PSoC4/CapSense.c **** /*******************************************************************************
1863:Generated_Source\PSoC4/CapSense.c **** * Function Name: CapSense_GetModulatorClkDivider
1864:Generated_Source\PSoC4/CapSense.c **** ********************************************************************************
1865:Generated_Source\PSoC4/CapSense.c **** *
ARM GAS  C:\Users\SHOZO\AppData\Local\Temp\ccICMltU.s 			page 62


1866:Generated_Source\PSoC4/CapSense.c **** * Summary:
1867:Generated_Source\PSoC4/CapSense.c **** *  This API returns a value of the modulator sample clock divider for the  sensor.
1868:Generated_Source\PSoC4/CapSense.c **** *
1869:Generated_Source\PSoC4/CapSense.c **** * Parameters:
1870:Generated_Source\PSoC4/CapSense.c **** *  sensor: sensor index. The value of index can be
1871:Generated_Source\PSoC4/CapSense.c **** *  from 0 to (CapSense_TOTAL_SENSOR_COUNT-1).
1872:Generated_Source\PSoC4/CapSense.c **** *
1873:Generated_Source\PSoC4/CapSense.c **** * Return:
1874:Generated_Source\PSoC4/CapSense.c **** *  This API returns the modulator sample clock divider for the  sensor.
1875:Generated_Source\PSoC4/CapSense.c **** *
1876:Generated_Source\PSoC4/CapSense.c **** * Global Variables:
1877:Generated_Source\PSoC4/CapSense.c **** *  CapSense_sampleClkDividerVal[] - stores the modulator sample divider values.
1878:Generated_Source\PSoC4/CapSense.c **** *
1879:Generated_Source\PSoC4/CapSense.c **** * Side Effects:
1880:Generated_Source\PSoC4/CapSense.c **** *  None
1881:Generated_Source\PSoC4/CapSense.c **** *
1882:Generated_Source\PSoC4/CapSense.c **** *******************************************************************************/
1883:Generated_Source\PSoC4/CapSense.c **** uint32 CapSense_GetModulatorClkDivider(uint32 sensor)
1884:Generated_Source\PSoC4/CapSense.c **** {
 1548              		.loc 1 1884 0
 1549              		.cfi_startproc
 1550              		@ args = 0, pretend = 0, frame = 0
 1551              		@ frame_needed = 0, uses_anonymous_args = 0
 1552              		@ link register save eliminated.
 1553              	.LVL189:
1885:Generated_Source\PSoC4/CapSense.c ****     #if(0u != CapSense_MULTIPLE_FREQUENCY_SET)
1886:Generated_Source\PSoC4/CapSense.c ****         return((uint32)CapSense_sampleClkDividerVal[sensor]);
 1554              		.loc 1 1886 0
 1555 0000 024B     		ldr	r3, .L98
 1556 0002 1818     		adds	r0, r3, r0
 1557              	.LVL190:
 1558 0004 4C23     		movs	r3, #76
 1559 0006 C05C     		ldrb	r0, [r0, r3]
1887:Generated_Source\PSoC4/CapSense.c ****     #else
1888:Generated_Source\PSoC4/CapSense.c ****         return((uint32)CapSense_sampleClkDividerVal);
1889:Generated_Source\PSoC4/CapSense.c ****     #endif /* (0u != CapSense_MULTIPLE_FREQUENCY_SET) */
1890:Generated_Source\PSoC4/CapSense.c **** }
 1560              		.loc 1 1890 0
 1561              		@ sp needed
 1562 0008 7047     		bx	lr
 1563              	.L99:
 1564 000a C046     		.align	2
 1565              	.L98:
 1566 000c 00000000 		.word	.LANCHOR1
 1567              		.cfi_endproc
 1568              	.LFE59:
 1569              		.size	CapSense_GetModulatorClkDivider, .-CapSense_GetModulatorClkDivider
 1570              		.section	.text.CapSense_GetModulationIDAC,"ax",%progbits
 1571              		.align	2
 1572              		.global	CapSense_GetModulationIDAC
 1573              		.code	16
 1574              		.thumb_func
 1575              		.type	CapSense_GetModulationIDAC, %function
 1576              	CapSense_GetModulationIDAC:
 1577              	.LFB60:
1891:Generated_Source\PSoC4/CapSense.c **** 
1892:Generated_Source\PSoC4/CapSense.c **** #if (CapSense_TUNING_METHOD != CapSense__TUNING_NONE)
ARM GAS  C:\Users\SHOZO\AppData\Local\Temp\ccICMltU.s 			page 63


1893:Generated_Source\PSoC4/CapSense.c ****     /*******************************************************************************
1894:Generated_Source\PSoC4/CapSense.c ****     * Function Name: CapSense_SetModulatorClkDivider
1895:Generated_Source\PSoC4/CapSense.c ****     ********************************************************************************
1896:Generated_Source\PSoC4/CapSense.c ****     *
1897:Generated_Source\PSoC4/CapSense.c ****     * Summary:
1898:Generated_Source\PSoC4/CapSense.c ****     *  This API sets a value of the modulator sample clock divider for the  sensor.
1899:Generated_Source\PSoC4/CapSense.c ****     *
1900:Generated_Source\PSoC4/CapSense.c ****     * Parameters:
1901:Generated_Source\PSoC4/CapSense.c ****     *  sensor:  Sensor index.
1902:Generated_Source\PSoC4/CapSense.c ****     *  modulatorClk: represents the modulator sample clock value.
1903:Generated_Source\PSoC4/CapSense.c ****     *
1904:Generated_Source\PSoC4/CapSense.c ****     * Return:
1905:Generated_Source\PSoC4/CapSense.c ****     *  None.
1906:Generated_Source\PSoC4/CapSense.c ****     *
1907:Generated_Source\PSoC4/CapSense.c ****     * Global Variables:
1908:Generated_Source\PSoC4/CapSense.c ****     *  CapSense_sampleClkDividerVal[] - stores the modulator sample divider values.
1909:Generated_Source\PSoC4/CapSense.c ****     *
1910:Generated_Source\PSoC4/CapSense.c ****     * Side Effects:
1911:Generated_Source\PSoC4/CapSense.c ****     *  None
1912:Generated_Source\PSoC4/CapSense.c ****     *
1913:Generated_Source\PSoC4/CapSense.c ****     *******************************************************************************/
1914:Generated_Source\PSoC4/CapSense.c ****     void CapSense_SetModulatorClkDivider(uint32 sensor, uint32 modulatorClk)
1915:Generated_Source\PSoC4/CapSense.c ****     {
1916:Generated_Source\PSoC4/CapSense.c ****         #if(0u != CapSense_MULTIPLE_FREQUENCY_SET)
1917:Generated_Source\PSoC4/CapSense.c ****             CapSense_sampleClkDividerVal[sensor] = (uint8)modulatorClk;
1918:Generated_Source\PSoC4/CapSense.c ****         #else
1919:Generated_Source\PSoC4/CapSense.c ****             CapSense_sampleClkDividerVal = (uint8)modulatorClk;
1920:Generated_Source\PSoC4/CapSense.c ****         #endif /* (0u != CapSense_MULTIPLE_FREQUENCY_SET) */
1921:Generated_Source\PSoC4/CapSense.c ****     }
1922:Generated_Source\PSoC4/CapSense.c **** #endif /* (CapSense_TUNING_METHOD != CapSense__TUNING_NONE) */
1923:Generated_Source\PSoC4/CapSense.c **** 
1924:Generated_Source\PSoC4/CapSense.c **** /*******************************************************************************
1925:Generated_Source\PSoC4/CapSense.c **** * Function Name: CapSense_GetModulationIDAC
1926:Generated_Source\PSoC4/CapSense.c **** ********************************************************************************
1927:Generated_Source\PSoC4/CapSense.c **** *
1928:Generated_Source\PSoC4/CapSense.c **** * Summary:
1929:Generated_Source\PSoC4/CapSense.c **** *  This API returns a value of the modulation IDAC for the  sensor.
1930:Generated_Source\PSoC4/CapSense.c **** *
1931:Generated_Source\PSoC4/CapSense.c **** * Parameters:
1932:Generated_Source\PSoC4/CapSense.c **** *  sensor: sensor index. The index value can be
1933:Generated_Source\PSoC4/CapSense.c **** *  from 0 to (CapSense_TOTAL_SENSOR_COUNT-1).
1934:Generated_Source\PSoC4/CapSense.c **** *
1935:Generated_Source\PSoC4/CapSense.c **** * Return:
1936:Generated_Source\PSoC4/CapSense.c **** *  This API returns the modulation IDAC of the sensor.
1937:Generated_Source\PSoC4/CapSense.c **** *
1938:Generated_Source\PSoC4/CapSense.c **** * Global Variables:
1939:Generated_Source\PSoC4/CapSense.c **** *  CapSense_modulationIDAC[] - stores modulation IDAC values.
1940:Generated_Source\PSoC4/CapSense.c **** *
1941:Generated_Source\PSoC4/CapSense.c **** * Side Effects:
1942:Generated_Source\PSoC4/CapSense.c **** *  None
1943:Generated_Source\PSoC4/CapSense.c **** *
1944:Generated_Source\PSoC4/CapSense.c **** *******************************************************************************/
1945:Generated_Source\PSoC4/CapSense.c **** uint32 CapSense_GetModulationIDAC(uint32 sensor)
1946:Generated_Source\PSoC4/CapSense.c **** {
 1578              		.loc 1 1946 0
 1579              		.cfi_startproc
 1580              		@ args = 0, pretend = 0, frame = 0
ARM GAS  C:\Users\SHOZO\AppData\Local\Temp\ccICMltU.s 			page 64


 1581              		@ frame_needed = 0, uses_anonymous_args = 0
 1582              		@ link register save eliminated.
 1583              	.LVL191:
1947:Generated_Source\PSoC4/CapSense.c ****         return((uint32)CapSense_modulationIDAC[sensor]);
 1584              		.loc 1 1947 0
 1585 0000 014B     		ldr	r3, .L101
 1586 0002 185C     		ldrb	r0, [r3, r0]
 1587              	.LVL192:
1948:Generated_Source\PSoC4/CapSense.c **** }
 1588              		.loc 1 1948 0
 1589              		@ sp needed
 1590 0004 7047     		bx	lr
 1591              	.L102:
 1592 0006 C046     		.align	2
 1593              	.L101:
 1594 0008 00000000 		.word	.LANCHOR2
 1595              		.cfi_endproc
 1596              	.LFE60:
 1597              		.size	CapSense_GetModulationIDAC, .-CapSense_GetModulationIDAC
 1598              		.section	.text.CapSense_GetCompensationIDAC,"ax",%progbits
 1599              		.align	2
 1600              		.global	CapSense_GetCompensationIDAC
 1601              		.code	16
 1602              		.thumb_func
 1603              		.type	CapSense_GetCompensationIDAC, %function
 1604              	CapSense_GetCompensationIDAC:
 1605              	.LFB61:
1949:Generated_Source\PSoC4/CapSense.c **** 
1950:Generated_Source\PSoC4/CapSense.c **** #if (CapSense_TUNING_METHOD != CapSense__TUNING_NONE)
1951:Generated_Source\PSoC4/CapSense.c ****     /*******************************************************************************
1952:Generated_Source\PSoC4/CapSense.c ****     * Function Name: CapSense_SetModulationIDAC
1953:Generated_Source\PSoC4/CapSense.c ****     ********************************************************************************
1954:Generated_Source\PSoC4/CapSense.c ****     *
1955:Generated_Source\PSoC4/CapSense.c ****     * Summary:
1956:Generated_Source\PSoC4/CapSense.c ****     *  This API sets a value of the modulation IDAC for the  sensor.
1957:Generated_Source\PSoC4/CapSense.c ****     *
1958:Generated_Source\PSoC4/CapSense.c ****     * Parameters:
1959:Generated_Source\PSoC4/CapSense.c ****     *  sensor:  Sensor index.
1960:Generated_Source\PSoC4/CapSense.c ****     *  compIdacValue: represents the modulation IDAC data register value.
1961:Generated_Source\PSoC4/CapSense.c ****     *
1962:Generated_Source\PSoC4/CapSense.c ****     * Return:
1963:Generated_Source\PSoC4/CapSense.c ****     *  None.
1964:Generated_Source\PSoC4/CapSense.c ****     *
1965:Generated_Source\PSoC4/CapSense.c ****     * Global Variables:
1966:Generated_Source\PSoC4/CapSense.c ****     *  CapSense_modulationIDAC[] - array with modulation IDAC values
1967:Generated_Source\PSoC4/CapSense.c ****     *
1968:Generated_Source\PSoC4/CapSense.c ****     * Side Effects:
1969:Generated_Source\PSoC4/CapSense.c ****     *  None
1970:Generated_Source\PSoC4/CapSense.c ****     *
1971:Generated_Source\PSoC4/CapSense.c ****     *******************************************************************************/
1972:Generated_Source\PSoC4/CapSense.c ****     void CapSense_SetModulationIDAC(uint32 sensor, uint32 modIdacValue)
1973:Generated_Source\PSoC4/CapSense.c ****     {
1974:Generated_Source\PSoC4/CapSense.c ****         CapSense_modulationIDAC[sensor] = (uint8)modIdacValue;
1975:Generated_Source\PSoC4/CapSense.c ****     }
1976:Generated_Source\PSoC4/CapSense.c **** #endif /* (CapSense_TUNING_METHOD != CapSense__TUNING_NONE) */
1977:Generated_Source\PSoC4/CapSense.c **** 
1978:Generated_Source\PSoC4/CapSense.c **** 
ARM GAS  C:\Users\SHOZO\AppData\Local\Temp\ccICMltU.s 			page 65


1979:Generated_Source\PSoC4/CapSense.c **** #if(CapSense_IDAC_CNT > 1u)
1980:Generated_Source\PSoC4/CapSense.c ****     /*******************************************************************************
1981:Generated_Source\PSoC4/CapSense.c ****     * Function Name: CapSense_GetCompensationIDAC
1982:Generated_Source\PSoC4/CapSense.c ****     ********************************************************************************
1983:Generated_Source\PSoC4/CapSense.c ****     *
1984:Generated_Source\PSoC4/CapSense.c ****     * Summary:
1985:Generated_Source\PSoC4/CapSense.c ****     *  This API returns a value of the compensation IDAC for the  sensor.
1986:Generated_Source\PSoC4/CapSense.c ****     *
1987:Generated_Source\PSoC4/CapSense.c ****     * Parameters:
1988:Generated_Source\PSoC4/CapSense.c ****     *  sensor: sensor index. The index value can be
1989:Generated_Source\PSoC4/CapSense.c ****     *  from 0 to (CapSense_TOTAL_SENSOR_COUNT-1).
1990:Generated_Source\PSoC4/CapSense.c ****     *
1991:Generated_Source\PSoC4/CapSense.c ****     * Return:
1992:Generated_Source\PSoC4/CapSense.c ****     *  This API returns the compensation IDAC of the sensor.
1993:Generated_Source\PSoC4/CapSense.c ****     *
1994:Generated_Source\PSoC4/CapSense.c ****     * Global Variables:
1995:Generated_Source\PSoC4/CapSense.c ****     *  CapSense_compensationIDAC[] - stores the compensation IDAC values.
1996:Generated_Source\PSoC4/CapSense.c ****     *
1997:Generated_Source\PSoC4/CapSense.c ****     * Side Effects:
1998:Generated_Source\PSoC4/CapSense.c ****     *  None
1999:Generated_Source\PSoC4/CapSense.c ****     *
2000:Generated_Source\PSoC4/CapSense.c ****     *******************************************************************************/
2001:Generated_Source\PSoC4/CapSense.c ****     uint32 CapSense_GetCompensationIDAC(uint32 sensor)
2002:Generated_Source\PSoC4/CapSense.c ****     {
 1606              		.loc 1 2002 0
 1607              		.cfi_startproc
 1608              		@ args = 0, pretend = 0, frame = 0
 1609              		@ frame_needed = 0, uses_anonymous_args = 0
 1610              		@ link register save eliminated.
 1611              	.LVL193:
2003:Generated_Source\PSoC4/CapSense.c ****         return((uint32)CapSense_compensationIDAC[sensor]);
 1612              		.loc 1 2003 0
 1613 0000 014B     		ldr	r3, .L104
 1614 0002 1818     		adds	r0, r3, r0
 1615              	.LVL194:
 1616 0004 007A     		ldrb	r0, [r0, #8]
2004:Generated_Source\PSoC4/CapSense.c ****     }
 1617              		.loc 1 2004 0
 1618              		@ sp needed
 1619 0006 7047     		bx	lr
 1620              	.L105:
 1621              		.align	2
 1622              	.L104:
 1623 0008 00000000 		.word	.LANCHOR2
 1624              		.cfi_endproc
 1625              	.LFE61:
 1626              		.size	CapSense_GetCompensationIDAC, .-CapSense_GetCompensationIDAC
 1627              		.section	.text.CapSense_GetIDACRange,"ax",%progbits
 1628              		.align	2
 1629              		.global	CapSense_GetIDACRange
 1630              		.code	16
 1631              		.thumb_func
 1632              		.type	CapSense_GetIDACRange, %function
 1633              	CapSense_GetIDACRange:
 1634              	.LFB62:
2005:Generated_Source\PSoC4/CapSense.c **** #endif /* (CapSense_IDAC_CNT > 1u) */
2006:Generated_Source\PSoC4/CapSense.c **** 
ARM GAS  C:\Users\SHOZO\AppData\Local\Temp\ccICMltU.s 			page 66


2007:Generated_Source\PSoC4/CapSense.c **** 
2008:Generated_Source\PSoC4/CapSense.c **** #if((CapSense_TUNING_METHOD != CapSense__TUNING_NONE) && (CapSense_IDAC_CNT > 1u))
2009:Generated_Source\PSoC4/CapSense.c ****     /*******************************************************************************
2010:Generated_Source\PSoC4/CapSense.c ****     * Function Name: CapSense_SetCompensationIDAC
2011:Generated_Source\PSoC4/CapSense.c ****     ********************************************************************************
2012:Generated_Source\PSoC4/CapSense.c ****     *
2013:Generated_Source\PSoC4/CapSense.c ****     * Summary:
2014:Generated_Source\PSoC4/CapSense.c ****     *  This API sets a value of compensation IDAC for the  sensor.
2015:Generated_Source\PSoC4/CapSense.c ****     *
2016:Generated_Source\PSoC4/CapSense.c ****     * Parameters:
2017:Generated_Source\PSoC4/CapSense.c ****     *  sensor:  Sensor index.
2018:Generated_Source\PSoC4/CapSense.c ****     *  compIdacValue: represents the compensation IDAC data register value.
2019:Generated_Source\PSoC4/CapSense.c ****     *
2020:Generated_Source\PSoC4/CapSense.c ****     * Return:
2021:Generated_Source\PSoC4/CapSense.c ****     *  None.
2022:Generated_Source\PSoC4/CapSense.c ****     *
2023:Generated_Source\PSoC4/CapSense.c ****     * Global Variables:
2024:Generated_Source\PSoC4/CapSense.c ****     *  CapSense_compensationIDAC[] - an array with compensation IDAC values
2025:Generated_Source\PSoC4/CapSense.c ****     *
2026:Generated_Source\PSoC4/CapSense.c ****     * Side Effects:
2027:Generated_Source\PSoC4/CapSense.c ****     *  None
2028:Generated_Source\PSoC4/CapSense.c ****     *
2029:Generated_Source\PSoC4/CapSense.c ****     *******************************************************************************/
2030:Generated_Source\PSoC4/CapSense.c ****     void CapSense_SetCompensationIDAC(uint32 sensor, uint32 compIdacValue)
2031:Generated_Source\PSoC4/CapSense.c ****     {
2032:Generated_Source\PSoC4/CapSense.c ****         CapSense_compensationIDAC[sensor] = (uint8)compIdacValue;
2033:Generated_Source\PSoC4/CapSense.c ****     }
2034:Generated_Source\PSoC4/CapSense.c **** #endif /* ((CapSense_TUNING_METHOD != CapSense__TUNING_NONE) && (CapSense_IDAC_CNT > 1u)) */
2035:Generated_Source\PSoC4/CapSense.c **** 
2036:Generated_Source\PSoC4/CapSense.c **** /*******************************************************************************
2037:Generated_Source\PSoC4/CapSense.c **** * Function Name: CapSense_GetIDACRange
2038:Generated_Source\PSoC4/CapSense.c **** ********************************************************************************
2039:Generated_Source\PSoC4/CapSense.c **** *
2040:Generated_Source\PSoC4/CapSense.c **** * Summary:
2041:Generated_Source\PSoC4/CapSense.c **** *  This API returns a value that indicates the IDAC range used by the
2042:Generated_Source\PSoC4/CapSense.c **** *  component to scan sensors. The IDAC range is common for all the sensors.
2043:Generated_Source\PSoC4/CapSense.c **** *
2044:Generated_Source\PSoC4/CapSense.c **** * Parameters:
2045:Generated_Source\PSoC4/CapSense.c **** *  None
2046:Generated_Source\PSoC4/CapSense.c **** *
2047:Generated_Source\PSoC4/CapSense.c **** * Return:
2048:Generated_Source\PSoC4/CapSense.c **** *  This API Returns a value that indicates the IDAC range:
2049:Generated_Source\PSoC4/CapSense.c **** *      0 - IDAC range set to 4x
2050:Generated_Source\PSoC4/CapSense.c **** *      1 - IDAC range set to 8x
2051:Generated_Source\PSoC4/CapSense.c **** *
2052:Generated_Source\PSoC4/CapSense.c **** * Global Variables:
2053:Generated_Source\PSoC4/CapSense.c **** *  None
2054:Generated_Source\PSoC4/CapSense.c **** *
2055:Generated_Source\PSoC4/CapSense.c **** * Side Effects:
2056:Generated_Source\PSoC4/CapSense.c **** *  None
2057:Generated_Source\PSoC4/CapSense.c **** *
2058:Generated_Source\PSoC4/CapSense.c **** *******************************************************************************/
2059:Generated_Source\PSoC4/CapSense.c **** uint32 CapSense_GetIDACRange(void)
2060:Generated_Source\PSoC4/CapSense.c **** {
 1635              		.loc 1 2060 0
 1636              		.cfi_startproc
 1637              		@ args = 0, pretend = 0, frame = 0
ARM GAS  C:\Users\SHOZO\AppData\Local\Temp\ccICMltU.s 			page 67


 1638              		@ frame_needed = 0, uses_anonymous_args = 0
 1639              		@ link register save eliminated.
2061:Generated_Source\PSoC4/CapSense.c ****     return((0u != (CapSense_CSD_IDAC_REG & CapSense_CSD_IDAC1_RANGE_8X)) ? 1uL : 0uL);
 1640              		.loc 1 2061 0
 1641 0000 034B     		ldr	r3, .L108
 1642 0002 1868     		ldr	r0, [r3]
 1643 0004 8023     		movs	r3, #128
 1644 0006 DB00     		lsls	r3, r3, #3
 1645 0008 1840     		ands	r0, r3
 1646 000a 00D0     		beq	.L107
 1647 000c 0120     		movs	r0, #1
 1648              	.L107:
2062:Generated_Source\PSoC4/CapSense.c **** }
 1649              		.loc 1 2062 0 discriminator 4
 1650              		@ sp needed
 1651 000e 7047     		bx	lr
 1652              	.L109:
 1653              		.align	2
 1654              	.L108:
 1655 0010 08000840 		.word	1074266120
 1656              		.cfi_endproc
 1657              	.LFE62:
 1658              		.size	CapSense_GetIDACRange, .-CapSense_GetIDACRange
 1659              		.section	.text.CapSense_GetSensorRaw,"ax",%progbits
 1660              		.align	2
 1661              		.global	CapSense_GetSensorRaw
 1662              		.code	16
 1663              		.thumb_func
 1664              		.type	CapSense_GetSensorRaw, %function
 1665              	CapSense_GetSensorRaw:
 1666              	.LFB63:
2063:Generated_Source\PSoC4/CapSense.c **** 
2064:Generated_Source\PSoC4/CapSense.c **** #if (CapSense_TUNING_METHOD != CapSense__TUNING_NONE)
2065:Generated_Source\PSoC4/CapSense.c ****     /*******************************************************************************
2066:Generated_Source\PSoC4/CapSense.c ****     * Function Name: CapSense_SetIDACRange
2067:Generated_Source\PSoC4/CapSense.c ****     ********************************************************************************
2068:Generated_Source\PSoC4/CapSense.c ****     *
2069:Generated_Source\PSoC4/CapSense.c ****     * Summary:
2070:Generated_Source\PSoC4/CapSense.c ****     *  This API sets the IDAC range to the 4x (1.2uA/bit) or 8x (2.4uA/bit) mode.
2071:Generated_Source\PSoC4/CapSense.c ****     *  The IDAC range is common for all the sensors and common for the modulation and
2072:Generated_Source\PSoC4/CapSense.c ****     *  compensation IDACs.
2073:Generated_Source\PSoC4/CapSense.c ****     *
2074:Generated_Source\PSoC4/CapSense.c ****     * Parameters:
2075:Generated_Source\PSoC4/CapSense.c ****     *  iDacRange:  represents value for IDAC range
2076:Generated_Source\PSoC4/CapSense.c ****     *  0 -  IDAC range set to 4x (1.2uA/bit)
2077:Generated_Source\PSoC4/CapSense.c ****     *  1 or >1 - IDAC range set to 8x (2.4uA/bit)
2078:Generated_Source\PSoC4/CapSense.c ****     *
2079:Generated_Source\PSoC4/CapSense.c ****     * Return:
2080:Generated_Source\PSoC4/CapSense.c ****     *  None.
2081:Generated_Source\PSoC4/CapSense.c ****     *
2082:Generated_Source\PSoC4/CapSense.c ****     * Global Variables:
2083:Generated_Source\PSoC4/CapSense.c ****     *  None
2084:Generated_Source\PSoC4/CapSense.c ****     *
2085:Generated_Source\PSoC4/CapSense.c ****     * Side Effects:
2086:Generated_Source\PSoC4/CapSense.c ****     *  None
2087:Generated_Source\PSoC4/CapSense.c ****     *
2088:Generated_Source\PSoC4/CapSense.c ****     *******************************************************************************/
ARM GAS  C:\Users\SHOZO\AppData\Local\Temp\ccICMltU.s 			page 68


2089:Generated_Source\PSoC4/CapSense.c ****     void CapSense_SetIDACRange(uint32 iDacRange)
2090:Generated_Source\PSoC4/CapSense.c ****     {
2091:Generated_Source\PSoC4/CapSense.c ****         if(iDacRange != 0u)
2092:Generated_Source\PSoC4/CapSense.c ****         {
2093:Generated_Source\PSoC4/CapSense.c ****             /*  IDAC range = 8x (2.4uA/bit) */
2094:Generated_Source\PSoC4/CapSense.c ****             CapSense_CSD_IDAC_REG |= (CapSense_CSD_IDAC1_RANGE_8X |\
2095:Generated_Source\PSoC4/CapSense.c ****                                               CapSense_CSD_IDAC2_RANGE_8X);
2096:Generated_Source\PSoC4/CapSense.c ****         }
2097:Generated_Source\PSoC4/CapSense.c ****         else
2098:Generated_Source\PSoC4/CapSense.c ****         {
2099:Generated_Source\PSoC4/CapSense.c ****             /*  IDAC range = 4x (1.2uA/bit) */
2100:Generated_Source\PSoC4/CapSense.c ****             /*  IDAC range = 8x (2.4uA/bit) */
2101:Generated_Source\PSoC4/CapSense.c ****             CapSense_CSD_IDAC_REG &= ~(CapSense_CSD_IDAC1_RANGE_8X |\
2102:Generated_Source\PSoC4/CapSense.c ****                                                CapSense_CSD_IDAC2_RANGE_8X);
2103:Generated_Source\PSoC4/CapSense.c ****         }
2104:Generated_Source\PSoC4/CapSense.c ****     }
2105:Generated_Source\PSoC4/CapSense.c **** #endif /* (CapSense_TUNING_METHOD != CapSense__TUNING_NONE) */
2106:Generated_Source\PSoC4/CapSense.c **** 
2107:Generated_Source\PSoC4/CapSense.c **** 
2108:Generated_Source\PSoC4/CapSense.c **** #if((0u != CapSense_AUTOCALIBRATION_ENABLE) || (CapSense_TUNING_METHOD == CapSense__TUNING_AUTO))
2109:Generated_Source\PSoC4/CapSense.c ****     /*******************************************************************************
2110:Generated_Source\PSoC4/CapSense.c ****     * Function Name: CapSense_GetSensorRaw
2111:Generated_Source\PSoC4/CapSense.c ****     ********************************************************************************
2112:Generated_Source\PSoC4/CapSense.c ****     *
2113:Generated_Source\PSoC4/CapSense.c ****     * Summary:
2114:Generated_Source\PSoC4/CapSense.c ****     *  The API updates and gets uprated raw data from the sensor.
2115:Generated_Source\PSoC4/CapSense.c ****     *
2116:Generated_Source\PSoC4/CapSense.c ****     * Parameters:
2117:Generated_Source\PSoC4/CapSense.c ****     *  sensor - Sensor number.
2118:Generated_Source\PSoC4/CapSense.c ****     *
2119:Generated_Source\PSoC4/CapSense.c ****     * Return:
2120:Generated_Source\PSoC4/CapSense.c ****     *  Returns the current raw data value for a defined sensor number.
2121:Generated_Source\PSoC4/CapSense.c ****     *
2122:Generated_Source\PSoC4/CapSense.c ****     * Global Variables:
2123:Generated_Source\PSoC4/CapSense.c ****     *  None
2124:Generated_Source\PSoC4/CapSense.c ****     *
2125:Generated_Source\PSoC4/CapSense.c ****     * Side Effects:
2126:Generated_Source\PSoC4/CapSense.c ****     *  None
2127:Generated_Source\PSoC4/CapSense.c ****     *
2128:Generated_Source\PSoC4/CapSense.c ****     *******************************************************************************/
2129:Generated_Source\PSoC4/CapSense.c ****     uint16  CapSense_GetSensorRaw(uint32 sensor)
2130:Generated_Source\PSoC4/CapSense.c ****     {
 1667              		.loc 1 2130 0
 1668              		.cfi_startproc
 1669              		@ args = 0, pretend = 0, frame = 0
 1670              		@ frame_needed = 0, uses_anonymous_args = 0
 1671              	.LVL195:
 1672 0000 70B5     		push	{r4, r5, r6, lr}
 1673              		.cfi_def_cfa_offset 16
 1674              		.cfi_offset 4, -16
 1675              		.cfi_offset 5, -12
 1676              		.cfi_offset 6, -8
 1677              		.cfi_offset 14, -4
 1678 0002 0600     		movs	r6, r0
 1679              	.LVL196:
2131:Generated_Source\PSoC4/CapSense.c ****         uint32 curSample;
2132:Generated_Source\PSoC4/CapSense.c ****         uint32 avgVal = 0u;
ARM GAS  C:\Users\SHOZO\AppData\Local\Temp\ccICMltU.s 			page 69


 1680              		.loc 1 2132 0
 1681 0004 0024     		movs	r4, #0
2133:Generated_Source\PSoC4/CapSense.c **** 
2134:Generated_Source\PSoC4/CapSense.c ****         for(curSample = 0u; curSample < CapSense_AVG_SAMPLES_NUM; curSample++)
 1682              		.loc 1 2134 0
 1683 0006 0025     		movs	r5, #0
 1684 0008 0BE0     		b	.L111
 1685              	.LVL197:
 1686              	.L113:
2135:Generated_Source\PSoC4/CapSense.c ****         {
2136:Generated_Source\PSoC4/CapSense.c **** 
2137:Generated_Source\PSoC4/CapSense.c ****             CapSense_ScanSensor((uint32)sensor);
 1687              		.loc 1 2137 0
 1688 000a 3000     		movs	r0, r6
 1689 000c FFF7FEFF 		bl	CapSense_ScanSensor
 1690              	.LVL198:
 1691              	.L112:
2138:Generated_Source\PSoC4/CapSense.c ****             while(CapSense_IsBusy() == 1u)
 1692              		.loc 1 2138 0 discriminator 1
 1693 0010 FFF7FEFF 		bl	CapSense_IsBusy
 1694              	.LVL199:
 1695 0014 0128     		cmp	r0, #1
 1696 0016 FBD0     		beq	.L112
2139:Generated_Source\PSoC4/CapSense.c ****             {
2140:Generated_Source\PSoC4/CapSense.c ****                 /* Wait while sensor is busy */
2141:Generated_Source\PSoC4/CapSense.c ****             }
2142:Generated_Source\PSoC4/CapSense.c ****             avgVal += CapSense_ReadSensorRaw((uint32)sensor);
 1697              		.loc 1 2142 0 discriminator 2
 1698 0018 3000     		movs	r0, r6
 1699 001a FFF7FEFF 		bl	CapSense_ReadSensorRaw
 1700              	.LVL200:
 1701 001e 2418     		adds	r4, r4, r0
 1702              	.LVL201:
2134:Generated_Source\PSoC4/CapSense.c ****         {
 1703              		.loc 1 2134 0 discriminator 2
 1704 0020 0135     		adds	r5, r5, #1
 1705              	.LVL202:
 1706              	.L111:
2134:Generated_Source\PSoC4/CapSense.c ****         {
 1707              		.loc 1 2134 0 is_stmt 0 discriminator 1
 1708 0022 002D     		cmp	r5, #0
 1709 0024 F1D0     		beq	.L113
2143:Generated_Source\PSoC4/CapSense.c ****         }
2144:Generated_Source\PSoC4/CapSense.c **** 
2145:Generated_Source\PSoC4/CapSense.c ****         return((uint16)(avgVal / CapSense_AVG_SAMPLES_NUM));
 1710              		.loc 1 2145 0 is_stmt 1
 1711 0026 A0B2     		uxth	r0, r4
2146:Generated_Source\PSoC4/CapSense.c ****     }
 1712              		.loc 1 2146 0
 1713              		@ sp needed
 1714              	.LVL203:
 1715              	.LVL204:
 1716              	.LVL205:
 1717 0028 70BD     		pop	{r4, r5, r6, pc}
 1718              		.cfi_endproc
 1719              	.LFE63:
 1720              		.size	CapSense_GetSensorRaw, .-CapSense_GetSensorRaw
ARM GAS  C:\Users\SHOZO\AppData\Local\Temp\ccICMltU.s 			page 70


 1721 002a C046     		.section	.text.CapSense_CalibrateSensor,"ax",%progbits
 1722              		.align	2
 1723              		.global	CapSense_CalibrateSensor
 1724              		.code	16
 1725              		.thumb_func
 1726              		.type	CapSense_CalibrateSensor, %function
 1727              	CapSense_CalibrateSensor:
 1728              	.LFB64:
2147:Generated_Source\PSoC4/CapSense.c **** #endif /* ((0u != CapSense_AUTOCALIBRATION_ENABLE) && (CapSense_TUNING_METHOD == CapSense__TUNING_A
2148:Generated_Source\PSoC4/CapSense.c **** 
2149:Generated_Source\PSoC4/CapSense.c **** 
2150:Generated_Source\PSoC4/CapSense.c **** #if((0u != CapSense_AUTOCALIBRATION_ENABLE) && (CapSense_TUNING_METHOD != CapSense__TUNING_AUTO))
2151:Generated_Source\PSoC4/CapSense.c ****     /*******************************************************************************
2152:Generated_Source\PSoC4/CapSense.c ****     * Function Name: CapSense_CalibrateSensor
2153:Generated_Source\PSoC4/CapSense.c ****     ********************************************************************************
2154:Generated_Source\PSoC4/CapSense.c ****     *
2155:Generated_Source\PSoC4/CapSense.c ****     * Summary:
2156:Generated_Source\PSoC4/CapSense.c ****     *  Computes the one sensor IDAC value, which provides the raw signal on
2157:Generated_Source\PSoC4/CapSense.c ****     *  a specified level, with a specified prescaler, speed, and resolution.
2158:Generated_Source\PSoC4/CapSense.c ****     *
2159:Generated_Source\PSoC4/CapSense.c ****     * Parameters:
2160:Generated_Source\PSoC4/CapSense.c ****     *  sensor - Sensor Number.
2161:Generated_Source\PSoC4/CapSense.c ****     *
2162:Generated_Source\PSoC4/CapSense.c ****     *  rawLevel -  Raw data level which should be reached during the calibration
2163:Generated_Source\PSoC4/CapSense.c ****     *              procedure.
2164:Generated_Source\PSoC4/CapSense.c ****     *
2165:Generated_Source\PSoC4/CapSense.c ****     *  idacLevelsTbl - Pointer to the modulatorIdac data register configuration table.
2166:Generated_Source\PSoC4/CapSense.c ****     *
2167:Generated_Source\PSoC4/CapSense.c ****     * Return:
2168:Generated_Source\PSoC4/CapSense.c ****     *  None
2169:Generated_Source\PSoC4/CapSense.c ****     *
2170:Generated_Source\PSoC4/CapSense.c ****     *******************************************************************************/
2171:Generated_Source\PSoC4/CapSense.c ****     void CapSense_CalibrateSensor(uint32 sensor, uint32 rawLevel, uint8 idacLevelsTbl[])
2172:Generated_Source\PSoC4/CapSense.c ****     {
 1729              		.loc 1 2172 0
 1730              		.cfi_startproc
 1731              		@ args = 0, pretend = 0, frame = 0
 1732              		@ frame_needed = 0, uses_anonymous_args = 0
 1733              	.LVL206:
 1734 0000 F8B5     		push	{r3, r4, r5, r6, r7, lr}
 1735              		.cfi_def_cfa_offset 24
 1736              		.cfi_offset 3, -24
 1737              		.cfi_offset 4, -20
 1738              		.cfi_offset 5, -16
 1739              		.cfi_offset 6, -12
 1740              		.cfi_offset 7, -8
 1741              		.cfi_offset 14, -4
 1742 0002 0500     		movs	r5, r0
 1743 0004 0F00     		movs	r7, r1
 1744              	.LVL207:
2173:Generated_Source\PSoC4/CapSense.c ****         uint8 mask;
2174:Generated_Source\PSoC4/CapSense.c ****         uint16 rawData;
2175:Generated_Source\PSoC4/CapSense.c **** 
2176:Generated_Source\PSoC4/CapSense.c ****         rawData = 0u;
2177:Generated_Source\PSoC4/CapSense.c **** 
2178:Generated_Source\PSoC4/CapSense.c ****         mask = 0x80u;
2179:Generated_Source\PSoC4/CapSense.c ****         /* Init IDAC for null Channel */
ARM GAS  C:\Users\SHOZO\AppData\Local\Temp\ccICMltU.s 			page 71


2180:Generated_Source\PSoC4/CapSense.c ****         idacLevelsTbl[sensor] = 0x00u;
 1745              		.loc 1 2180 0
 1746 0006 1618     		adds	r6, r2, r0
 1747 0008 0023     		movs	r3, #0
 1748 000a 3370     		strb	r3, [r6]
2178:Generated_Source\PSoC4/CapSense.c ****         /* Init IDAC for null Channel */
 1749              		.loc 1 2178 0
 1750 000c 8024     		movs	r4, #128
 1751              	.LVL208:
 1752              	.L116:
2181:Generated_Source\PSoC4/CapSense.c **** 
2182:Generated_Source\PSoC4/CapSense.c ****         do
2183:Generated_Source\PSoC4/CapSense.c ****         {
2184:Generated_Source\PSoC4/CapSense.c ****             /* Set bit for null Channel */
2185:Generated_Source\PSoC4/CapSense.c ****             idacLevelsTbl[sensor] |= mask;
 1753              		.loc 1 2185 0
 1754 000e 3378     		ldrb	r3, [r6]
 1755 0010 2343     		orrs	r3, r4
 1756 0012 3370     		strb	r3, [r6]
2186:Generated_Source\PSoC4/CapSense.c **** 
2187:Generated_Source\PSoC4/CapSense.c ****             /* Scan null Channel and get Rawdata */
2188:Generated_Source\PSoC4/CapSense.c ****             rawData = CapSense_GetSensorRaw(sensor);
 1757              		.loc 1 2188 0
 1758 0014 2800     		movs	r0, r5
 1759 0016 FFF7FEFF 		bl	CapSense_GetSensorRaw
 1760              	.LVL209:
2189:Generated_Source\PSoC4/CapSense.c **** 
2190:Generated_Source\PSoC4/CapSense.c ****             /* Decrease IDAC until Rawdata reaches rawLevel */
2191:Generated_Source\PSoC4/CapSense.c ****             if(rawData < rawLevel)
 1761              		.loc 1 2191 0
 1762 001a B842     		cmp	r0, r7
 1763 001c 02D2     		bcs	.L115
2192:Generated_Source\PSoC4/CapSense.c ****             {
2193:Generated_Source\PSoC4/CapSense.c ****                 /* Reset bit for null Channel  */
2194:Generated_Source\PSoC4/CapSense.c ****                 idacLevelsTbl[sensor] &= (uint8)~mask;
 1764              		.loc 1 2194 0
 1765 001e 3378     		ldrb	r3, [r6]
 1766 0020 A343     		bics	r3, r4
 1767 0022 3370     		strb	r3, [r6]
 1768              	.L115:
2195:Generated_Source\PSoC4/CapSense.c ****             }
2196:Generated_Source\PSoC4/CapSense.c **** 
2197:Generated_Source\PSoC4/CapSense.c ****             mask >>= 1u;
 1769              		.loc 1 2197 0
 1770 0024 6408     		lsrs	r4, r4, #1
 1771              	.LVL210:
2198:Generated_Source\PSoC4/CapSense.c ****         }
2199:Generated_Source\PSoC4/CapSense.c ****         while(mask > 0u);
 1772              		.loc 1 2199 0
 1773 0026 F2D1     		bne	.L116
2200:Generated_Source\PSoC4/CapSense.c **** 
2201:Generated_Source\PSoC4/CapSense.c ****     }
 1774              		.loc 1 2201 0
 1775              		@ sp needed
 1776              	.LVL211:
 1777              	.LVL212:
 1778              	.LVL213:
