ARM GAS  C:\Users\SHOZO\AppData\Local\Temp\cccl5lFi.s 			page 1


   1              		.syntax unified
   2              		.cpu cortex-m0
   3              		.fpu softvfp
   4              		.eabi_attribute 20, 1
   5              		.eabi_attribute 21, 1
   6              		.eabi_attribute 23, 3
   7              		.eabi_attribute 24, 1
   8              		.eabi_attribute 25, 1
   9              		.eabi_attribute 26, 1
  10              		.eabi_attribute 30, 1
  11              		.eabi_attribute 34, 0
  12              		.eabi_attribute 18, 4
  13              		.thumb
  14              		.syntax unified
  15              		.file	"CapSense_1_INT.c"
  16              		.text
  17              	.Ltext0:
  18              		.cfi_sections	.debug_frame
  19              		.section	.text.CapSense_1_SsCSDPostScan,"ax",%progbits
  20              		.align	2
  21              		.code	16
  22              		.thumb_func
  23              		.type	CapSense_1_SsCSDPostScan, %function
  24              	CapSense_1_SsCSDPostScan:
  25              	.LFB2:
  26              		.file 1 "Generated_Source\\PSoC4\\CapSense_1_INT.c"
   1:Generated_Source\PSoC4/CapSense_1_INT.c **** /***************************************************************************//**
   2:Generated_Source\PSoC4/CapSense_1_INT.c **** * \file CapSense_1_INT.c
   3:Generated_Source\PSoC4/CapSense_1_INT.c **** * \version 7.0
   4:Generated_Source\PSoC4/CapSense_1_INT.c **** *
   5:Generated_Source\PSoC4/CapSense_1_INT.c **** * \brief
   6:Generated_Source\PSoC4/CapSense_1_INT.c **** *   This file contains the source code for implementation of the Component's
   7:Generated_Source\PSoC4/CapSense_1_INT.c **** *   Interrupt Service Routine (ISR).
   8:Generated_Source\PSoC4/CapSense_1_INT.c **** *
   9:Generated_Source\PSoC4/CapSense_1_INT.c **** * \see CapSense_1 v7.0 Datasheet
  10:Generated_Source\PSoC4/CapSense_1_INT.c **** *
  11:Generated_Source\PSoC4/CapSense_1_INT.c **** *//*****************************************************************************
  12:Generated_Source\PSoC4/CapSense_1_INT.c **** * Copyright (2016-2019), Cypress Semiconductor Corporation.
  13:Generated_Source\PSoC4/CapSense_1_INT.c **** ********************************************************************************
  14:Generated_Source\PSoC4/CapSense_1_INT.c **** * This software is owned by Cypress Semiconductor Corporation (Cypress) and is
  15:Generated_Source\PSoC4/CapSense_1_INT.c **** * protected by and subject to worldwide patent protection (United States and
  16:Generated_Source\PSoC4/CapSense_1_INT.c **** * foreign), United States copyright laws and international treaty provisions.
  17:Generated_Source\PSoC4/CapSense_1_INT.c **** * Cypress hereby grants to licensee a personal, non-exclusive, non-transferable
  18:Generated_Source\PSoC4/CapSense_1_INT.c **** * license to copy, use, modify, create derivative works of, and compile the
  19:Generated_Source\PSoC4/CapSense_1_INT.c **** * Cypress Source Code and derivative works for the sole purpose of creating
  20:Generated_Source\PSoC4/CapSense_1_INT.c **** * custom software in support of licensee product to be used only in conjunction
  21:Generated_Source\PSoC4/CapSense_1_INT.c **** * with a Cypress integrated circuit as specified in the applicable agreement.
  22:Generated_Source\PSoC4/CapSense_1_INT.c **** * Any reproduction, modification, translation, compilation, or representation of
  23:Generated_Source\PSoC4/CapSense_1_INT.c **** * this software except as specified above is prohibited without the express
  24:Generated_Source\PSoC4/CapSense_1_INT.c **** * written permission of Cypress.
  25:Generated_Source\PSoC4/CapSense_1_INT.c **** *
  26:Generated_Source\PSoC4/CapSense_1_INT.c **** * Disclaimer: CYPRESS MAKES NO WARRANTY OF ANY KIND, EXPRESS OR IMPLIED, WITH
  27:Generated_Source\PSoC4/CapSense_1_INT.c **** * REGARD TO THIS MATERIAL, INCLUDING, BUT NOT LIMITED TO, THE IMPLIED
  28:Generated_Source\PSoC4/CapSense_1_INT.c **** * WARRANTIES OF MERCHANTABILITY AND FITNESS FOR A PARTICULAR PURPOSE.
  29:Generated_Source\PSoC4/CapSense_1_INT.c **** * Cypress reserves the right to make changes without further notice to the
  30:Generated_Source\PSoC4/CapSense_1_INT.c **** * materials described herein. Cypress does not assume any liability arising out
  31:Generated_Source\PSoC4/CapSense_1_INT.c **** * of the application or use of any product or circuit described herein. Cypress
ARM GAS  C:\Users\SHOZO\AppData\Local\Temp\cccl5lFi.s 			page 2


  32:Generated_Source\PSoC4/CapSense_1_INT.c **** * does not authorize its products for use as critical components in life-support
  33:Generated_Source\PSoC4/CapSense_1_INT.c **** * systems where a malfunction or failure may reasonably be expected to result in
  34:Generated_Source\PSoC4/CapSense_1_INT.c **** * significant injury to the user. The inclusion of Cypress' product in a life-
  35:Generated_Source\PSoC4/CapSense_1_INT.c **** * support systems application implies that the manufacturer assumes all risk of
  36:Generated_Source\PSoC4/CapSense_1_INT.c **** * such use and in doing so indemnifies Cypress against all charges. Use may be
  37:Generated_Source\PSoC4/CapSense_1_INT.c **** * limited by and subject to the applicable Cypress software license agreement.
  38:Generated_Source\PSoC4/CapSense_1_INT.c **** *******************************************************************************/
  39:Generated_Source\PSoC4/CapSense_1_INT.c **** #include "cytypes.h"
  40:Generated_Source\PSoC4/CapSense_1_INT.c **** #include "cyfitter.h"
  41:Generated_Source\PSoC4/CapSense_1_INT.c **** #include "CapSense_1_Configuration.h"
  42:Generated_Source\PSoC4/CapSense_1_INT.c **** #include "CapSense_1_Structure.h"
  43:Generated_Source\PSoC4/CapSense_1_INT.c **** #include "CapSense_1_Sensing.h"
  44:Generated_Source\PSoC4/CapSense_1_INT.c **** #if (CapSense_1_ENABLE == CapSense_1_CSD_EN)
  45:Generated_Source\PSoC4/CapSense_1_INT.c ****     #include "CapSense_1_SensingCSD_LL.h"
  46:Generated_Source\PSoC4/CapSense_1_INT.c **** #endif /* (CapSense_1_ENABLE == CapSense_1_CSD_EN) */
  47:Generated_Source\PSoC4/CapSense_1_INT.c **** #include "cyapicallbacks.h"
  48:Generated_Source\PSoC4/CapSense_1_INT.c **** 
  49:Generated_Source\PSoC4/CapSense_1_INT.c **** /*******************************************************************************
  50:Generated_Source\PSoC4/CapSense_1_INT.c **** * Static Function Prototypes
  51:Generated_Source\PSoC4/CapSense_1_INT.c **** *******************************************************************************/
  52:Generated_Source\PSoC4/CapSense_1_INT.c **** /**
  53:Generated_Source\PSoC4/CapSense_1_INT.c **** * \cond SECTION_C_INTERNAL
  54:Generated_Source\PSoC4/CapSense_1_INT.c **** * \addtogroup group_c_internal
  55:Generated_Source\PSoC4/CapSense_1_INT.c **** * \{
  56:Generated_Source\PSoC4/CapSense_1_INT.c **** */
  57:Generated_Source\PSoC4/CapSense_1_INT.c **** 
  58:Generated_Source\PSoC4/CapSense_1_INT.c **** #if (((CapSense_1_ENABLE == CapSense_1_CSD_EN) || (CapSense_1_ENABLE == CapSense_1_CSD_CSX_EN)) && 
  59:Generated_Source\PSoC4/CapSense_1_INT.c ****      (CapSense_1_ENABLE == CapSense_1_MULTI_FREQ_SCAN_EN))
  60:Generated_Source\PSoC4/CapSense_1_INT.c ****     static void CapSense_1_SsNextFrequencyScan(void);
  61:Generated_Source\PSoC4/CapSense_1_INT.c **** #endif /* (((CapSense_1_ENABLE == CapSense_1_CSD_EN) || (CapSense_1_ENABLE == CapSense_1_CSD_CSX_EN
  62:Generated_Source\PSoC4/CapSense_1_INT.c ****             (CapSense_1_ENABLE == CapSense_1_MULTI_FREQ_SCAN_EN)) */
  63:Generated_Source\PSoC4/CapSense_1_INT.c **** 
  64:Generated_Source\PSoC4/CapSense_1_INT.c **** #if ((CapSense_1_ENABLE == CapSense_1_CSD_EN) || (CapSense_1_ENABLE == CapSense_1_CSD_CSX_EN))
  65:Generated_Source\PSoC4/CapSense_1_INT.c ****     static void CapSense_1_SsCSDPostScan(void);
  66:Generated_Source\PSoC4/CapSense_1_INT.c ****     static void CapSense_1_SsCSDInitNextScan(void);
  67:Generated_Source\PSoC4/CapSense_1_INT.c **** #endif /* ((CapSense_1_ENABLE == CapSense_1_CSD_EN) || (CapSense_1_ENABLE == CapSense_1_CSD_CSX_EN)
  68:Generated_Source\PSoC4/CapSense_1_INT.c **** /** \}
  69:Generated_Source\PSoC4/CapSense_1_INT.c **** * \endcond */
  70:Generated_Source\PSoC4/CapSense_1_INT.c **** 
  71:Generated_Source\PSoC4/CapSense_1_INT.c **** 
  72:Generated_Source\PSoC4/CapSense_1_INT.c **** /**
  73:Generated_Source\PSoC4/CapSense_1_INT.c **** * \cond SECTION_C_INTERRUPT
  74:Generated_Source\PSoC4/CapSense_1_INT.c **** * \addtogroup group_c_interrupt
  75:Generated_Source\PSoC4/CapSense_1_INT.c **** * \{
  76:Generated_Source\PSoC4/CapSense_1_INT.c **** */
  77:Generated_Source\PSoC4/CapSense_1_INT.c **** 
  78:Generated_Source\PSoC4/CapSense_1_INT.c **** 
  79:Generated_Source\PSoC4/CapSense_1_INT.c **** #if ((CapSense_1_ENABLE == CapSense_1_CSD_EN) || (CapSense_1_ENABLE == CapSense_1_CSD_CSX_EN))
  80:Generated_Source\PSoC4/CapSense_1_INT.c **** 
  81:Generated_Source\PSoC4/CapSense_1_INT.c **** #if (CapSense_1_ENABLE == CapSense_1_CSDV2)
  82:Generated_Source\PSoC4/CapSense_1_INT.c ****     /* Fourth-generation HW block part */
  83:Generated_Source\PSoC4/CapSense_1_INT.c **** 
  84:Generated_Source\PSoC4/CapSense_1_INT.c ****     /*******************************************************************************
  85:Generated_Source\PSoC4/CapSense_1_INT.c ****     * Function Name: CapSense_1_CSDPostSingleScan
  86:Generated_Source\PSoC4/CapSense_1_INT.c ****     ****************************************************************************//**
  87:Generated_Source\PSoC4/CapSense_1_INT.c ****     *
  88:Generated_Source\PSoC4/CapSense_1_INT.c ****     * \brief
ARM GAS  C:\Users\SHOZO\AppData\Local\Temp\cccl5lFi.s 			page 3


  89:Generated_Source\PSoC4/CapSense_1_INT.c ****     *  This is an internal ISR function for the single-sensor scanning implementation.
  90:Generated_Source\PSoC4/CapSense_1_INT.c ****     *
  91:Generated_Source\PSoC4/CapSense_1_INT.c ****     * \details
  92:Generated_Source\PSoC4/CapSense_1_INT.c ****     *  This ISR handler is triggered when the user calls the
  93:Generated_Source\PSoC4/CapSense_1_INT.c ****     *  CapSense_1_CSDScanExt() function.
  94:Generated_Source\PSoC4/CapSense_1_INT.c ****     *
  95:Generated_Source\PSoC4/CapSense_1_INT.c ****     *  The following tasks are performed for Third-generation HW block:
  96:Generated_Source\PSoC4/CapSense_1_INT.c ****     *    1. Disable the CSD interrupt.
  97:Generated_Source\PSoC4/CapSense_1_INT.c ****     *    2. Read the Counter register and update the data structure with raw data.
  98:Generated_Source\PSoC4/CapSense_1_INT.c ****     *    3. Connect the Vref buffer to the AMUX bus.
  99:Generated_Source\PSoC4/CapSense_1_INT.c ****     *    4. Update the Scan Counter.
 100:Generated_Source\PSoC4/CapSense_1_INT.c ****     *    5. Reset the BUSY flag.
 101:Generated_Source\PSoC4/CapSense_1_INT.c ****     *    6. Enable the CSD interrupt.
 102:Generated_Source\PSoC4/CapSense_1_INT.c ****     *
 103:Generated_Source\PSoC4/CapSense_1_INT.c ****     *  The following tasks are performed for Fourth-generation HW block:
 104:Generated_Source\PSoC4/CapSense_1_INT.c ****     *    1. Check if the raw data is not noisy.
 105:Generated_Source\PSoC4/CapSense_1_INT.c ****     *    2. Read the Counter register and update the data structure with raw data.
 106:Generated_Source\PSoC4/CapSense_1_INT.c ****     *    3. Configure and start the scan for the next frequency if the
 107:Generated_Source\PSoC4/CapSense_1_INT.c ****     *      multi-frequency is enabled.
 108:Generated_Source\PSoC4/CapSense_1_INT.c ****     *    4. Update the Scan Counter.
 109:Generated_Source\PSoC4/CapSense_1_INT.c ****     *    5. Reset the BUSY flag.
 110:Generated_Source\PSoC4/CapSense_1_INT.c ****     *    6. Enable the CSD interrupt.
 111:Generated_Source\PSoC4/CapSense_1_INT.c ****     *
 112:Generated_Source\PSoC4/CapSense_1_INT.c ****     *  The ISR handler changes the IMO and initializes scanning for the next frequency
 113:Generated_Source\PSoC4/CapSense_1_INT.c ****     *  channels when multi-frequency scanning is enabled.
 114:Generated_Source\PSoC4/CapSense_1_INT.c ****     *
 115:Generated_Source\PSoC4/CapSense_1_INT.c ****     *  This function has two Macro Callbacks that allow calling the user code
 116:Generated_Source\PSoC4/CapSense_1_INT.c ****     *  from macros specified in Component's generated code. Refer to the
 117:Generated_Source\PSoC4/CapSense_1_INT.c ****     *  \ref group_c_macrocallbacks section of the PSoC Creator User Guide
 118:Generated_Source\PSoC4/CapSense_1_INT.c ****     *  for details.
 119:Generated_Source\PSoC4/CapSense_1_INT.c ****     *
 120:Generated_Source\PSoC4/CapSense_1_INT.c ****     *******************************************************************************/
 121:Generated_Source\PSoC4/CapSense_1_INT.c ****     CY_ISR(CapSense_1_CSDPostSingleScan)
 122:Generated_Source\PSoC4/CapSense_1_INT.c ****     {
 123:Generated_Source\PSoC4/CapSense_1_INT.c ****         #ifdef CapSense_1_ENTRY_CALLBACK
 124:Generated_Source\PSoC4/CapSense_1_INT.c ****             CapSense_1_EntryCallback();
 125:Generated_Source\PSoC4/CapSense_1_INT.c ****         #endif /* CapSense_1_ENTRY_CALLBACK */
 126:Generated_Source\PSoC4/CapSense_1_INT.c **** 
 127:Generated_Source\PSoC4/CapSense_1_INT.c ****         /* Clear pending interrupt */
 128:Generated_Source\PSoC4/CapSense_1_INT.c ****         CY_SET_REG32(CapSense_1_INTR_PTR, CapSense_1_INTR_SET_MASK);
 129:Generated_Source\PSoC4/CapSense_1_INT.c **** 
 130:Generated_Source\PSoC4/CapSense_1_INT.c ****         #if (CapSense_1_ENABLE == CapSense_1_CSD_NOISE_METRIC_EN)
 131:Generated_Source\PSoC4/CapSense_1_INT.c ****             if ((CapSense_1_CSD_NOISE_METRIC_TH < ((CY_GET_REG32(CapSense_1_RESULT_VAL1_PTR) &
 132:Generated_Source\PSoC4/CapSense_1_INT.c ****                                                         CapSense_1_RESULT_VAL1_BAD_CONVS_MASK) >>
 133:Generated_Source\PSoC4/CapSense_1_INT.c ****                                                         CapSense_1_RESULT_VAL1_BAD_CONVS_SHIFT)) &&
 134:Generated_Source\PSoC4/CapSense_1_INT.c ****                                                         (0u < CapSense_1_badConversionsNum))
 135:Generated_Source\PSoC4/CapSense_1_INT.c ****             {
 136:Generated_Source\PSoC4/CapSense_1_INT.c ****                 /* Decrement bad conversions number */
 137:Generated_Source\PSoC4/CapSense_1_INT.c ****                 CapSense_1_badConversionsNum--;
 138:Generated_Source\PSoC4/CapSense_1_INT.c **** 
 139:Generated_Source\PSoC4/CapSense_1_INT.c ****                 /* Start the re-scan */
 140:Generated_Source\PSoC4/CapSense_1_INT.c ****                 CY_SET_REG32(CapSense_1_SEQ_START_PTR, CapSense_1_SEQ_START_AZ0_SKIP_MASK |
 141:Generated_Source\PSoC4/CapSense_1_INT.c ****                                                              CapSense_1_SEQ_START_AZ1_SKIP_MASK |
 142:Generated_Source\PSoC4/CapSense_1_INT.c ****                                                              CapSense_1_SEQ_START_START_MASK);
 143:Generated_Source\PSoC4/CapSense_1_INT.c ****             }
 144:Generated_Source\PSoC4/CapSense_1_INT.c ****             else
 145:Generated_Source\PSoC4/CapSense_1_INT.c ****             {
ARM GAS  C:\Users\SHOZO\AppData\Local\Temp\cccl5lFi.s 			page 4


 146:Generated_Source\PSoC4/CapSense_1_INT.c ****         #endif /* (CapSense_1_ENABLE == CapSense_1_CSD_NOISE_METRIC_EN) */
 147:Generated_Source\PSoC4/CapSense_1_INT.c **** 
 148:Generated_Source\PSoC4/CapSense_1_INT.c ****             CapSense_1_SsCSDPostScan();
 149:Generated_Source\PSoC4/CapSense_1_INT.c **** 
 150:Generated_Source\PSoC4/CapSense_1_INT.c ****             #if (CapSense_1_ENABLE == CapSense_1_MULTI_FREQ_SCAN_EN)
 151:Generated_Source\PSoC4/CapSense_1_INT.c ****                 if (CapSense_1_FREQ_CHANNEL_2 > CapSense_1_scanFreqIndex)
 152:Generated_Source\PSoC4/CapSense_1_INT.c ****                 {
 153:Generated_Source\PSoC4/CapSense_1_INT.c ****                     /* Scan the next channel */
 154:Generated_Source\PSoC4/CapSense_1_INT.c ****                     CapSense_1_SsNextFrequencyScan();
 155:Generated_Source\PSoC4/CapSense_1_INT.c ****                 }
 156:Generated_Source\PSoC4/CapSense_1_INT.c ****                 else
 157:Generated_Source\PSoC4/CapSense_1_INT.c ****                 {
 158:Generated_Source\PSoC4/CapSense_1_INT.c ****                     /* All channels are scanned. Set IMO to zero channel */
 159:Generated_Source\PSoC4/CapSense_1_INT.c ****                     CapSense_1_scanFreqIndex = CapSense_1_FREQ_CHANNEL_0;
 160:Generated_Source\PSoC4/CapSense_1_INT.c **** 
 161:Generated_Source\PSoC4/CapSense_1_INT.c ****                     #if (CapSense_1_MFS_IMO == CapSense_1_MFS_METHOD)
 162:Generated_Source\PSoC4/CapSense_1_INT.c ****                         CapSense_1_SsChangeImoFreq(CapSense_1_FREQ_CHANNEL_0);
 163:Generated_Source\PSoC4/CapSense_1_INT.c ****                     #else
 164:Generated_Source\PSoC4/CapSense_1_INT.c ****                         CapSense_1_SsChangeClkFreq(CapSense_1_FREQ_CHANNEL_0);
 165:Generated_Source\PSoC4/CapSense_1_INT.c ****                     #endif /* (CapSense_1_MFS_IMO == CapSense_1_MFS_METHOD) */
 166:Generated_Source\PSoC4/CapSense_1_INT.c **** 
 167:Generated_Source\PSoC4/CapSense_1_INT.c ****                     #if (CapSense_1_ENABLE == CapSense_1_BLOCK_OFF_AFTER_SCAN_EN)
 168:Generated_Source\PSoC4/CapSense_1_INT.c ****                         /* Disable Fourth-generation HW block */
 169:Generated_Source\PSoC4/CapSense_1_INT.c ****                         CY_SET_REG32(CapSense_1_CONFIG_PTR, CapSense_1_configCsd);
 170:Generated_Source\PSoC4/CapSense_1_INT.c ****                     #endif /* (CapSense_1_ENABLE == CapSense_1_BLOCK_OFF_AFTER_SCAN_EN) */
 171:Generated_Source\PSoC4/CapSense_1_INT.c **** 
 172:Generated_Source\PSoC4/CapSense_1_INT.c ****                     /* Update Scan Counter */
 173:Generated_Source\PSoC4/CapSense_1_INT.c ****                     CapSense_1_dsRam.scanCounter++;
 174:Generated_Source\PSoC4/CapSense_1_INT.c **** 
 175:Generated_Source\PSoC4/CapSense_1_INT.c ****                     /* Sensor is totally scanned. Reset BUSY flag */
 176:Generated_Source\PSoC4/CapSense_1_INT.c ****                     CapSense_1_dsRam.status &= ~(CapSense_1_SW_STS_BUSY | CapSense_1_WDGT_SW_STS_BU
 177:Generated_Source\PSoC4/CapSense_1_INT.c ****                 }
 178:Generated_Source\PSoC4/CapSense_1_INT.c ****             #else
 179:Generated_Source\PSoC4/CapSense_1_INT.c ****                 {
 180:Generated_Source\PSoC4/CapSense_1_INT.c ****                     #if (CapSense_1_ENABLE == CapSense_1_BLOCK_OFF_AFTER_SCAN_EN)
 181:Generated_Source\PSoC4/CapSense_1_INT.c ****                         /* Disable Fourth-generation HW block */
 182:Generated_Source\PSoC4/CapSense_1_INT.c ****                         CY_SET_REG32(CapSense_1_CONFIG_PTR, CapSense_1_configCsd);
 183:Generated_Source\PSoC4/CapSense_1_INT.c ****                     #endif /* (CapSense_1_ENABLE == CapSense_1_BLOCK_OFF_AFTER_SCAN_EN) */
 184:Generated_Source\PSoC4/CapSense_1_INT.c **** 
 185:Generated_Source\PSoC4/CapSense_1_INT.c ****                     /* Update Scan Counter */
 186:Generated_Source\PSoC4/CapSense_1_INT.c ****                     CapSense_1_dsRam.scanCounter++;
 187:Generated_Source\PSoC4/CapSense_1_INT.c **** 
 188:Generated_Source\PSoC4/CapSense_1_INT.c ****                     /* Sensor is totally scanned. Reset BUSY flag */
 189:Generated_Source\PSoC4/CapSense_1_INT.c ****                     CapSense_1_dsRam.status &= ~(CapSense_1_SW_STS_BUSY | CapSense_1_WDGT_SW_STS_BU
 190:Generated_Source\PSoC4/CapSense_1_INT.c ****                 }
 191:Generated_Source\PSoC4/CapSense_1_INT.c ****             #endif /* (CapSense_1_ENABLE == CapSense_1_MULTI_FREQ_SCAN_EN) */
 192:Generated_Source\PSoC4/CapSense_1_INT.c ****     #if (CapSense_1_ENABLE == CapSense_1_CSD_NOISE_METRIC_EN)
 193:Generated_Source\PSoC4/CapSense_1_INT.c ****         }
 194:Generated_Source\PSoC4/CapSense_1_INT.c ****     #endif /* (CapSense_1_ENABLE == CapSense_1_CSD_NOISE_METRIC_EN) */
 195:Generated_Source\PSoC4/CapSense_1_INT.c **** 
 196:Generated_Source\PSoC4/CapSense_1_INT.c ****         #ifdef CapSense_1_EXIT_CALLBACK
 197:Generated_Source\PSoC4/CapSense_1_INT.c ****             CapSense_1_ExitCallback();
 198:Generated_Source\PSoC4/CapSense_1_INT.c ****         #endif /* CapSense_1_EXIT_CALLBACK */
 199:Generated_Source\PSoC4/CapSense_1_INT.c ****     }
 200:Generated_Source\PSoC4/CapSense_1_INT.c **** 
 201:Generated_Source\PSoC4/CapSense_1_INT.c **** 
 202:Generated_Source\PSoC4/CapSense_1_INT.c ****     /*******************************************************************************
ARM GAS  C:\Users\SHOZO\AppData\Local\Temp\cccl5lFi.s 			page 5


 203:Generated_Source\PSoC4/CapSense_1_INT.c ****     * Function Name: CapSense_1_CSDPostMultiScan
 204:Generated_Source\PSoC4/CapSense_1_INT.c ****     ****************************************************************************//**
 205:Generated_Source\PSoC4/CapSense_1_INT.c ****     *
 206:Generated_Source\PSoC4/CapSense_1_INT.c ****     * \brief
 207:Generated_Source\PSoC4/CapSense_1_INT.c ****     *  This is an internal ISR function for the multiple-sensor scanning
 208:Generated_Source\PSoC4/CapSense_1_INT.c ****     *  implementation.
 209:Generated_Source\PSoC4/CapSense_1_INT.c ****     *
 210:Generated_Source\PSoC4/CapSense_1_INT.c ****     * \details
 211:Generated_Source\PSoC4/CapSense_1_INT.c ****     *  This ISR handler is triggered when the user calls the
 212:Generated_Source\PSoC4/CapSense_1_INT.c ****     *  CapSense_1_Scan() or CapSense_1_ScanAllWidgets() APIs.
 213:Generated_Source\PSoC4/CapSense_1_INT.c ****     *
 214:Generated_Source\PSoC4/CapSense_1_INT.c ****     *  The following tasks are performed:
 215:Generated_Source\PSoC4/CapSense_1_INT.c ****     *    1. Disable the CSD interrupt.
 216:Generated_Source\PSoC4/CapSense_1_INT.c ****     *    2. Read the Counter register and update the data structure with raw data.
 217:Generated_Source\PSoC4/CapSense_1_INT.c ****     *    3. Connect the Vref buffer to the AMUX bus.
 218:Generated_Source\PSoC4/CapSense_1_INT.c ****     *    4. Disable the CSD block (after the widget has been scanned).
 219:Generated_Source\PSoC4/CapSense_1_INT.c ****     *    5. Update the Scan Counter.
 220:Generated_Source\PSoC4/CapSense_1_INT.c ****     *    6. Reset the BUSY flag.
 221:Generated_Source\PSoC4/CapSense_1_INT.c ****     *    7. Enable the CSD interrupt.
 222:Generated_Source\PSoC4/CapSense_1_INT.c ****     *
 223:Generated_Source\PSoC4/CapSense_1_INT.c ****     *  The ISR handler initializes scanning for the previous sensor when the
 224:Generated_Source\PSoC4/CapSense_1_INT.c ****     *  widget has more than one sensor.
 225:Generated_Source\PSoC4/CapSense_1_INT.c ****     *  The ISR handler initializes scanning for the next widget when the
 226:Generated_Source\PSoC4/CapSense_1_INT.c ****     *  CapSense_1_ScanAllWidgets() APIs are called and the project has
 227:Generated_Source\PSoC4/CapSense_1_INT.c ****     *  more than one widget.
 228:Generated_Source\PSoC4/CapSense_1_INT.c ****     *  The ISR handler changes the IMO and initializes scanning for the next
 229:Generated_Source\PSoC4/CapSense_1_INT.c ****     *  frequency channels when multi-frequency scanning is enabled.
 230:Generated_Source\PSoC4/CapSense_1_INT.c ****     *
 231:Generated_Source\PSoC4/CapSense_1_INT.c ****     *  This function has two Macro Callbacks that allow calling the user
 232:Generated_Source\PSoC4/CapSense_1_INT.c ****     *  code from macros specified in Component's generated code. Refer to the
 233:Generated_Source\PSoC4/CapSense_1_INT.c ****     *  \ref group_c_macrocallbacks section of the PSoC Creator User Guide
 234:Generated_Source\PSoC4/CapSense_1_INT.c ****     *  for details.
 235:Generated_Source\PSoC4/CapSense_1_INT.c ****     *
 236:Generated_Source\PSoC4/CapSense_1_INT.c ****     *******************************************************************************/
 237:Generated_Source\PSoC4/CapSense_1_INT.c ****     CY_ISR(CapSense_1_CSDPostMultiScan)
 238:Generated_Source\PSoC4/CapSense_1_INT.c ****     {
 239:Generated_Source\PSoC4/CapSense_1_INT.c ****         /* Declare and initialize ptr to sensor IO structure to appropriate address */
 240:Generated_Source\PSoC4/CapSense_1_INT.c ****         CapSense_1_FLASH_IO_STRUCT const *curSnsIOPtr = (CapSense_1_FLASH_IO_STRUCT const *)
 241:Generated_Source\PSoC4/CapSense_1_INT.c ****                                                           CapSense_1_dsFlash.wdgtArray[CapSense_1_w
 242:Generated_Source\PSoC4/CapSense_1_INT.c ****                                                           + CapSense_1_sensorIndex;
 243:Generated_Source\PSoC4/CapSense_1_INT.c **** 
 244:Generated_Source\PSoC4/CapSense_1_INT.c ****         #ifdef CapSense_1_ENTRY_CALLBACK
 245:Generated_Source\PSoC4/CapSense_1_INT.c ****             CapSense_1_EntryCallback();
 246:Generated_Source\PSoC4/CapSense_1_INT.c ****         #endif /* CapSense_1_ENTRY_CALLBACK */
 247:Generated_Source\PSoC4/CapSense_1_INT.c **** 
 248:Generated_Source\PSoC4/CapSense_1_INT.c ****         /* Clear pending interrupt */
 249:Generated_Source\PSoC4/CapSense_1_INT.c ****         CY_SET_REG32(CapSense_1_INTR_PTR, CapSense_1_INTR_SET_MASK);
 250:Generated_Source\PSoC4/CapSense_1_INT.c **** 
 251:Generated_Source\PSoC4/CapSense_1_INT.c ****         #if (CapSense_1_ENABLE == CapSense_1_CSD_NOISE_METRIC_EN)
 252:Generated_Source\PSoC4/CapSense_1_INT.c ****             if ((CapSense_1_CSD_NOISE_METRIC_TH < ((CY_GET_REG32(CapSense_1_RESULT_VAL1_PTR) &
 253:Generated_Source\PSoC4/CapSense_1_INT.c ****                                                       CapSense_1_RESULT_VAL1_BAD_CONVS_MASK) >>
 254:Generated_Source\PSoC4/CapSense_1_INT.c ****                                                       CapSense_1_RESULT_VAL1_BAD_CONVS_SHIFT)) &&
 255:Generated_Source\PSoC4/CapSense_1_INT.c ****                                                       (0u < CapSense_1_badConversionsNum))
 256:Generated_Source\PSoC4/CapSense_1_INT.c ****             {
 257:Generated_Source\PSoC4/CapSense_1_INT.c ****                 /* Decrement bad conversions number */
 258:Generated_Source\PSoC4/CapSense_1_INT.c ****                 CapSense_1_badConversionsNum--;
 259:Generated_Source\PSoC4/CapSense_1_INT.c **** 
ARM GAS  C:\Users\SHOZO\AppData\Local\Temp\cccl5lFi.s 			page 6


 260:Generated_Source\PSoC4/CapSense_1_INT.c ****                 /* Start the re-scan */
 261:Generated_Source\PSoC4/CapSense_1_INT.c ****                 CY_SET_REG32(CapSense_1_SEQ_START_PTR, CapSense_1_SEQ_START_AZ0_SKIP_MASK |
 262:Generated_Source\PSoC4/CapSense_1_INT.c ****                                                              CapSense_1_SEQ_START_AZ1_SKIP_MASK |
 263:Generated_Source\PSoC4/CapSense_1_INT.c ****                                                              CapSense_1_SEQ_START_START_MASK);
 264:Generated_Source\PSoC4/CapSense_1_INT.c ****             }
 265:Generated_Source\PSoC4/CapSense_1_INT.c ****             else
 266:Generated_Source\PSoC4/CapSense_1_INT.c ****             {
 267:Generated_Source\PSoC4/CapSense_1_INT.c ****         #endif /* (CapSense_1_ENABLE == CapSense_1_CSD_NOISE_METRIC_EN) */
 268:Generated_Source\PSoC4/CapSense_1_INT.c **** 
 269:Generated_Source\PSoC4/CapSense_1_INT.c ****             CapSense_1_SsCSDPostScan();
 270:Generated_Source\PSoC4/CapSense_1_INT.c **** 
 271:Generated_Source\PSoC4/CapSense_1_INT.c ****             /* Disable sensor when all frequency channels are scanned */
 272:Generated_Source\PSoC4/CapSense_1_INT.c ****             #if (CapSense_1_ENABLE == CapSense_1_MULTI_FREQ_SCAN_EN)
 273:Generated_Source\PSoC4/CapSense_1_INT.c ****                 if (CapSense_1_FREQ_CHANNEL_2 == CapSense_1_scanFreqIndex)
 274:Generated_Source\PSoC4/CapSense_1_INT.c ****             #endif /* (CapSense_1_ENABLE == CapSense_1_MULTI_FREQ_SCAN_EN) */
 275:Generated_Source\PSoC4/CapSense_1_INT.c ****             {
 276:Generated_Source\PSoC4/CapSense_1_INT.c ****                 /* Disable sensor */
 277:Generated_Source\PSoC4/CapSense_1_INT.c ****                 CapSense_1_CSDDisconnectSns(curSnsIOPtr);
 278:Generated_Source\PSoC4/CapSense_1_INT.c ****             }
 279:Generated_Source\PSoC4/CapSense_1_INT.c **** 
 280:Generated_Source\PSoC4/CapSense_1_INT.c ****             #if (CapSense_1_ENABLE == CapSense_1_MULTI_FREQ_SCAN_EN)
 281:Generated_Source\PSoC4/CapSense_1_INT.c ****                 if (CapSense_1_FREQ_CHANNEL_2 > CapSense_1_scanFreqIndex)
 282:Generated_Source\PSoC4/CapSense_1_INT.c ****                 {
 283:Generated_Source\PSoC4/CapSense_1_INT.c ****                      /* Scan the next channel */
 284:Generated_Source\PSoC4/CapSense_1_INT.c ****                     CapSense_1_SsNextFrequencyScan();
 285:Generated_Source\PSoC4/CapSense_1_INT.c ****                 }
 286:Generated_Source\PSoC4/CapSense_1_INT.c ****                 else
 287:Generated_Source\PSoC4/CapSense_1_INT.c ****                 {
 288:Generated_Source\PSoC4/CapSense_1_INT.c ****                      /* All channels are scanned. Set IMO to zero channel */
 289:Generated_Source\PSoC4/CapSense_1_INT.c ****                     CapSense_1_scanFreqIndex = CapSense_1_FREQ_CHANNEL_0;
 290:Generated_Source\PSoC4/CapSense_1_INT.c **** 
 291:Generated_Source\PSoC4/CapSense_1_INT.c ****                     #if (CapSense_1_MFS_IMO == CapSense_1_MFS_METHOD)
 292:Generated_Source\PSoC4/CapSense_1_INT.c ****                         CapSense_1_SsChangeImoFreq(CapSense_1_FREQ_CHANNEL_0);
 293:Generated_Source\PSoC4/CapSense_1_INT.c ****                     #else
 294:Generated_Source\PSoC4/CapSense_1_INT.c ****                         CapSense_1_SsChangeClkFreq(CapSense_1_FREQ_CHANNEL_0);
 295:Generated_Source\PSoC4/CapSense_1_INT.c ****                     #endif /* (CapSense_1_MFS_IMO == CapSense_1_MFS_METHOD) */
 296:Generated_Source\PSoC4/CapSense_1_INT.c **** 
 297:Generated_Source\PSoC4/CapSense_1_INT.c ****                      /* Scan the next sensor */
 298:Generated_Source\PSoC4/CapSense_1_INT.c ****                     CapSense_1_SsCSDInitNextScan();
 299:Generated_Source\PSoC4/CapSense_1_INT.c ****                 }
 300:Generated_Source\PSoC4/CapSense_1_INT.c ****             #else
 301:Generated_Source\PSoC4/CapSense_1_INT.c ****                 /* Scan the next sensor */
 302:Generated_Source\PSoC4/CapSense_1_INT.c ****                 CapSense_1_SsCSDInitNextScan();
 303:Generated_Source\PSoC4/CapSense_1_INT.c ****             #endif /* (CapSense_1_ENABLE == CapSense_1_MULTI_FREQ_SCAN_EN) */
 304:Generated_Source\PSoC4/CapSense_1_INT.c ****         #if (CapSense_1_ENABLE == CapSense_1_CSD_NOISE_METRIC_EN)
 305:Generated_Source\PSoC4/CapSense_1_INT.c ****             }
 306:Generated_Source\PSoC4/CapSense_1_INT.c ****         #endif /* (CapSense_1_ENABLE == CapSense_1_CSD_NOISE_METRIC_EN) */
 307:Generated_Source\PSoC4/CapSense_1_INT.c **** 
 308:Generated_Source\PSoC4/CapSense_1_INT.c ****         #ifdef CapSense_1_EXIT_CALLBACK
 309:Generated_Source\PSoC4/CapSense_1_INT.c ****             CapSense_1_ExitCallback();
 310:Generated_Source\PSoC4/CapSense_1_INT.c ****         #endif /* CapSense_1_EXIT_CALLBACK */
 311:Generated_Source\PSoC4/CapSense_1_INT.c ****     }
 312:Generated_Source\PSoC4/CapSense_1_INT.c **** 
 313:Generated_Source\PSoC4/CapSense_1_INT.c **** 
 314:Generated_Source\PSoC4/CapSense_1_INT.c ****     #if (CapSense_1_ENABLE == CapSense_1_CSD_GANGED_SNS_EN)
 315:Generated_Source\PSoC4/CapSense_1_INT.c ****     /*******************************************************************************
 316:Generated_Source\PSoC4/CapSense_1_INT.c ****     * Function Name: CapSense_1_CSDPostMultiScanGanged
ARM GAS  C:\Users\SHOZO\AppData\Local\Temp\cccl5lFi.s 			page 7


 317:Generated_Source\PSoC4/CapSense_1_INT.c ****     ****************************************************************************//**
 318:Generated_Source\PSoC4/CapSense_1_INT.c ****     *
 319:Generated_Source\PSoC4/CapSense_1_INT.c ****     * \brief
 320:Generated_Source\PSoC4/CapSense_1_INT.c ****     *  This is an internal ISR function for the multiple-sensor scanning
 321:Generated_Source\PSoC4/CapSense_1_INT.c ****     *  implementation for ganged sensors.
 322:Generated_Source\PSoC4/CapSense_1_INT.c ****     *
 323:Generated_Source\PSoC4/CapSense_1_INT.c ****     * \details
 324:Generated_Source\PSoC4/CapSense_1_INT.c ****     *  This ISR handler is triggered when the user calls the
 325:Generated_Source\PSoC4/CapSense_1_INT.c ****     *  CapSense_1_Scan() API for a ganged sensor or the
 326:Generated_Source\PSoC4/CapSense_1_INT.c ****     *  CapSense_1_ScanAllWidgets() API in the project with ganged sensors.
 327:Generated_Source\PSoC4/CapSense_1_INT.c ****     *
 328:Generated_Source\PSoC4/CapSense_1_INT.c ****     *  The following tasks are performed:
 329:Generated_Source\PSoC4/CapSense_1_INT.c ****     *    1. Disable the CSD interrupt.
 330:Generated_Source\PSoC4/CapSense_1_INT.c ****     *    2. Read the Counter register and update the data structure with raw data.
 331:Generated_Source\PSoC4/CapSense_1_INT.c ****     *    3. Connect the Vref buffer to the AMUX bus.
 332:Generated_Source\PSoC4/CapSense_1_INT.c ****     *    4. Disable the CSD block (after the widget has been scanned).
 333:Generated_Source\PSoC4/CapSense_1_INT.c ****     *    5. Update the Scan Counter.
 334:Generated_Source\PSoC4/CapSense_1_INT.c ****     *    6. Reset the BUSY flag.
 335:Generated_Source\PSoC4/CapSense_1_INT.c ****     *    7. Enable the CSD interrupt.
 336:Generated_Source\PSoC4/CapSense_1_INT.c ****     *
 337:Generated_Source\PSoC4/CapSense_1_INT.c ****     *  The ISR handler initializes scanning for the previous sensor when the
 338:Generated_Source\PSoC4/CapSense_1_INT.c ****     *  widget has more than one sensor.
 339:Generated_Source\PSoC4/CapSense_1_INT.c ****     *  The ISR handler initializes scanning for the next widget when the
 340:Generated_Source\PSoC4/CapSense_1_INT.c ****     *  CapSense_1_ScanAllWidgets() APIs are called and the project has
 341:Generated_Source\PSoC4/CapSense_1_INT.c ****     *  more than one widget.
 342:Generated_Source\PSoC4/CapSense_1_INT.c ****     *  The ISR handler changes the IMO and initializes scanning for the next
 343:Generated_Source\PSoC4/CapSense_1_INT.c ****     *  frequency channels when multi-frequency scanning is enabled.
 344:Generated_Source\PSoC4/CapSense_1_INT.c ****     *
 345:Generated_Source\PSoC4/CapSense_1_INT.c ****     *  This function has two Macro Callbacks that allow calling the user
 346:Generated_Source\PSoC4/CapSense_1_INT.c ****     *  code from macros specified in Component's generated code. Refer to the
 347:Generated_Source\PSoC4/CapSense_1_INT.c ****     *  \ref group_c_macrocallbacks section of the PSoC Creator User Guide
 348:Generated_Source\PSoC4/CapSense_1_INT.c ****     *  for details.
 349:Generated_Source\PSoC4/CapSense_1_INT.c ****     *
 350:Generated_Source\PSoC4/CapSense_1_INT.c ****     *******************************************************************************/
 351:Generated_Source\PSoC4/CapSense_1_INT.c ****     CY_ISR(CapSense_1_CSDPostMultiScanGanged)
 352:Generated_Source\PSoC4/CapSense_1_INT.c ****     {
 353:Generated_Source\PSoC4/CapSense_1_INT.c ****         #ifdef CapSense_1_ENTRY_CALLBACK
 354:Generated_Source\PSoC4/CapSense_1_INT.c ****             CapSense_1_EntryCallback();
 355:Generated_Source\PSoC4/CapSense_1_INT.c ****         #endif /* CapSense_1_ENTRY_CALLBACK */
 356:Generated_Source\PSoC4/CapSense_1_INT.c **** 
 357:Generated_Source\PSoC4/CapSense_1_INT.c ****         /* Clear pending interrupt */
 358:Generated_Source\PSoC4/CapSense_1_INT.c ****         CY_SET_REG32(CapSense_1_INTR_PTR, CapSense_1_INTR_SET_MASK);
 359:Generated_Source\PSoC4/CapSense_1_INT.c **** 
 360:Generated_Source\PSoC4/CapSense_1_INT.c ****         #if (CapSense_1_ENABLE == CapSense_1_CSD_NOISE_METRIC_EN)
 361:Generated_Source\PSoC4/CapSense_1_INT.c ****             if ((CapSense_1_CSD_NOISE_METRIC_TH < ((CY_GET_REG32(CapSense_1_RESULT_VAL1_PTR) &
 362:Generated_Source\PSoC4/CapSense_1_INT.c ****                                                       CapSense_1_RESULT_VAL1_BAD_CONVS_MASK) >>
 363:Generated_Source\PSoC4/CapSense_1_INT.c ****                                                       CapSense_1_RESULT_VAL1_BAD_CONVS_SHIFT)) &&
 364:Generated_Source\PSoC4/CapSense_1_INT.c ****                                                       (0u < CapSense_1_badConversionsNum))
 365:Generated_Source\PSoC4/CapSense_1_INT.c ****             {
 366:Generated_Source\PSoC4/CapSense_1_INT.c ****                 /* Decrement bad conversions number */
 367:Generated_Source\PSoC4/CapSense_1_INT.c ****                 CapSense_1_badConversionsNum--;
 368:Generated_Source\PSoC4/CapSense_1_INT.c **** 
 369:Generated_Source\PSoC4/CapSense_1_INT.c ****                 /* Start the re-scan */
 370:Generated_Source\PSoC4/CapSense_1_INT.c ****                 CY_SET_REG32(CapSense_1_SEQ_START_PTR, CapSense_1_SEQ_START_AZ0_SKIP_MASK |
 371:Generated_Source\PSoC4/CapSense_1_INT.c ****                                                              CapSense_1_SEQ_START_AZ1_SKIP_MASK |
 372:Generated_Source\PSoC4/CapSense_1_INT.c ****                                                              CapSense_1_SEQ_START_START_MASK);
 373:Generated_Source\PSoC4/CapSense_1_INT.c ****             }
ARM GAS  C:\Users\SHOZO\AppData\Local\Temp\cccl5lFi.s 			page 8


 374:Generated_Source\PSoC4/CapSense_1_INT.c ****             else
 375:Generated_Source\PSoC4/CapSense_1_INT.c ****             {
 376:Generated_Source\PSoC4/CapSense_1_INT.c ****         #endif /* (CapSense_1_ENABLE == CapSense_1_CSD_NOISE_METRIC_EN) */
 377:Generated_Source\PSoC4/CapSense_1_INT.c **** 
 378:Generated_Source\PSoC4/CapSense_1_INT.c ****             CapSense_1_SsCSDPostScan();
 379:Generated_Source\PSoC4/CapSense_1_INT.c **** 
 380:Generated_Source\PSoC4/CapSense_1_INT.c ****             #if (CapSense_1_ENABLE == CapSense_1_MULTI_FREQ_SCAN_EN)
 381:Generated_Source\PSoC4/CapSense_1_INT.c ****                 if (CapSense_1_FREQ_CHANNEL_2 == CapSense_1_scanFreqIndex)
 382:Generated_Source\PSoC4/CapSense_1_INT.c ****             #endif /* (CapSense_1_ENABLE == CapSense_1_MULTI_FREQ_SCAN_EN) */
 383:Generated_Source\PSoC4/CapSense_1_INT.c ****             {
 384:Generated_Source\PSoC4/CapSense_1_INT.c ****                 CapSense_1_SsCSDDisconnectSnsExt((uint32)CapSense_1_widgetIndex, (uint32)CapSense_1
 385:Generated_Source\PSoC4/CapSense_1_INT.c ****             }
 386:Generated_Source\PSoC4/CapSense_1_INT.c **** 
 387:Generated_Source\PSoC4/CapSense_1_INT.c ****             #if (CapSense_1_ENABLE == CapSense_1_MULTI_FREQ_SCAN_EN)
 388:Generated_Source\PSoC4/CapSense_1_INT.c ****                 if (CapSense_1_FREQ_CHANNEL_2 > CapSense_1_scanFreqIndex)
 389:Generated_Source\PSoC4/CapSense_1_INT.c ****                 {
 390:Generated_Source\PSoC4/CapSense_1_INT.c ****                      /* Scan the next channel */
 391:Generated_Source\PSoC4/CapSense_1_INT.c ****                     CapSense_1_SsNextFrequencyScan();
 392:Generated_Source\PSoC4/CapSense_1_INT.c ****                 }
 393:Generated_Source\PSoC4/CapSense_1_INT.c ****                 else
 394:Generated_Source\PSoC4/CapSense_1_INT.c ****                 {
 395:Generated_Source\PSoC4/CapSense_1_INT.c ****                     /* All channels are scanned. Set IMO to zero channel */
 396:Generated_Source\PSoC4/CapSense_1_INT.c ****                     CapSense_1_scanFreqIndex = CapSense_1_FREQ_CHANNEL_0;
 397:Generated_Source\PSoC4/CapSense_1_INT.c **** 
 398:Generated_Source\PSoC4/CapSense_1_INT.c ****                     #if (CapSense_1_MFS_IMO == CapSense_1_MFS_METHOD)
 399:Generated_Source\PSoC4/CapSense_1_INT.c ****                         CapSense_1_SsChangeImoFreq(CapSense_1_FREQ_CHANNEL_0);
 400:Generated_Source\PSoC4/CapSense_1_INT.c ****                     #else
 401:Generated_Source\PSoC4/CapSense_1_INT.c ****                         CapSense_1_SsChangeClkFreq(CapSense_1_FREQ_CHANNEL_0);
 402:Generated_Source\PSoC4/CapSense_1_INT.c ****                     #endif /* (CapSense_1_MFS_IMO == CapSense_1_MFS_METHOD) */
 403:Generated_Source\PSoC4/CapSense_1_INT.c **** 
 404:Generated_Source\PSoC4/CapSense_1_INT.c ****                      /* Scan the next sensor */
 405:Generated_Source\PSoC4/CapSense_1_INT.c ****                     CapSense_1_SsCSDInitNextScan();
 406:Generated_Source\PSoC4/CapSense_1_INT.c ****                 }
 407:Generated_Source\PSoC4/CapSense_1_INT.c ****             #else
 408:Generated_Source\PSoC4/CapSense_1_INT.c ****                  /* Scan the next sensor */
 409:Generated_Source\PSoC4/CapSense_1_INT.c ****                 CapSense_1_SsCSDInitNextScan();
 410:Generated_Source\PSoC4/CapSense_1_INT.c ****             #endif /* (CapSense_1_ENABLE == CapSense_1_MULTI_FREQ_SCAN_EN) */
 411:Generated_Source\PSoC4/CapSense_1_INT.c ****         #if (CapSense_1_ENABLE == CapSense_1_CSD_NOISE_METRIC_EN)
 412:Generated_Source\PSoC4/CapSense_1_INT.c ****             }
 413:Generated_Source\PSoC4/CapSense_1_INT.c ****         #endif /* (CapSense_1_ENABLE == CapSense_1_CSD_NOISE_METRIC_EN) */
 414:Generated_Source\PSoC4/CapSense_1_INT.c **** 
 415:Generated_Source\PSoC4/CapSense_1_INT.c ****         #ifdef CapSense_1_EXIT_CALLBACK
 416:Generated_Source\PSoC4/CapSense_1_INT.c ****             CapSense_1_ExitCallback();
 417:Generated_Source\PSoC4/CapSense_1_INT.c ****         #endif /* CapSense_1_EXIT_CALLBACK */
 418:Generated_Source\PSoC4/CapSense_1_INT.c ****     }
 419:Generated_Source\PSoC4/CapSense_1_INT.c ****     #endif /* (CapSense_1_ENABLE == CapSense_1_CSD_GANGED_SNS_EN) */
 420:Generated_Source\PSoC4/CapSense_1_INT.c **** 
 421:Generated_Source\PSoC4/CapSense_1_INT.c **** #else
 422:Generated_Source\PSoC4/CapSense_1_INT.c **** 
 423:Generated_Source\PSoC4/CapSense_1_INT.c ****     /* Third-generation HW block part */
 424:Generated_Source\PSoC4/CapSense_1_INT.c **** 
 425:Generated_Source\PSoC4/CapSense_1_INT.c ****     /*******************************************************************************
 426:Generated_Source\PSoC4/CapSense_1_INT.c ****     * Function Name: CapSense_1_CSDPostSingleScan
 427:Generated_Source\PSoC4/CapSense_1_INT.c ****     ****************************************************************************//**
 428:Generated_Source\PSoC4/CapSense_1_INT.c ****     *
 429:Generated_Source\PSoC4/CapSense_1_INT.c ****     * \brief
 430:Generated_Source\PSoC4/CapSense_1_INT.c ****     *  This is an internal ISR function for the single-sensor scanning implementation.
ARM GAS  C:\Users\SHOZO\AppData\Local\Temp\cccl5lFi.s 			page 9


 431:Generated_Source\PSoC4/CapSense_1_INT.c ****     *
 432:Generated_Source\PSoC4/CapSense_1_INT.c ****     * \details
 433:Generated_Source\PSoC4/CapSense_1_INT.c ****     *  This ISR handler is triggered when the user calls the
 434:Generated_Source\PSoC4/CapSense_1_INT.c ****     *  CapSense_1_CSDScanExt() function.
 435:Generated_Source\PSoC4/CapSense_1_INT.c ****     *
 436:Generated_Source\PSoC4/CapSense_1_INT.c ****     *  The following tasks are performed for Third-generation HW block:
 437:Generated_Source\PSoC4/CapSense_1_INT.c ****     *    1. Disable the CSD interrupt.
 438:Generated_Source\PSoC4/CapSense_1_INT.c ****     *    2. Read the Counter register and update the data structure with raw data.
 439:Generated_Source\PSoC4/CapSense_1_INT.c ****     *    3. Connect the Vref buffer to the AMUX bus.
 440:Generated_Source\PSoC4/CapSense_1_INT.c ****     *    4. Update the Scan Counter.
 441:Generated_Source\PSoC4/CapSense_1_INT.c ****     *    5. Reset the BUSY flag.
 442:Generated_Source\PSoC4/CapSense_1_INT.c ****     *    6. Enable the CSD interrupt.
 443:Generated_Source\PSoC4/CapSense_1_INT.c ****     *
 444:Generated_Source\PSoC4/CapSense_1_INT.c ****     *  The following tasks are performed for Fourth-generation HW block:
 445:Generated_Source\PSoC4/CapSense_1_INT.c ****     *    1. Check if the raw data is not noisy.
 446:Generated_Source\PSoC4/CapSense_1_INT.c ****     *    2. Read the Counter register and update the data structure with raw data.
 447:Generated_Source\PSoC4/CapSense_1_INT.c ****     *    3. Configure and start the scan for the next frequency if the
 448:Generated_Source\PSoC4/CapSense_1_INT.c ****     *      multi-frequency is enabled.
 449:Generated_Source\PSoC4/CapSense_1_INT.c ****     *    4. Update the Scan Counter.
 450:Generated_Source\PSoC4/CapSense_1_INT.c ****     *    5. Reset the BUSY flag.
 451:Generated_Source\PSoC4/CapSense_1_INT.c ****     *    6. Enable the CSD interrupt.
 452:Generated_Source\PSoC4/CapSense_1_INT.c ****     *
 453:Generated_Source\PSoC4/CapSense_1_INT.c ****     *  The ISR handler changes the IMO and initializes scanning for the next frequency
 454:Generated_Source\PSoC4/CapSense_1_INT.c ****     *  channels when multi-frequency scanning is enabled.
 455:Generated_Source\PSoC4/CapSense_1_INT.c ****     *
 456:Generated_Source\PSoC4/CapSense_1_INT.c ****     *  This function has two Macro Callbacks that allow calling the user code
 457:Generated_Source\PSoC4/CapSense_1_INT.c ****     *  from macros specified in Component's generated code. Refer to the
 458:Generated_Source\PSoC4/CapSense_1_INT.c ****     *  \ref group_c_macrocallbacks section of the PSoC Creator User Guide
 459:Generated_Source\PSoC4/CapSense_1_INT.c ****     *  for details.
 460:Generated_Source\PSoC4/CapSense_1_INT.c ****     *
 461:Generated_Source\PSoC4/CapSense_1_INT.c ****     *******************************************************************************/
 462:Generated_Source\PSoC4/CapSense_1_INT.c ****     CY_ISR(CapSense_1_CSDPostSingleScan)
 463:Generated_Source\PSoC4/CapSense_1_INT.c ****     {
 464:Generated_Source\PSoC4/CapSense_1_INT.c ****         #ifdef CapSense_1_ENTRY_CALLBACK
 465:Generated_Source\PSoC4/CapSense_1_INT.c ****             CapSense_1_EntryCallback();
 466:Generated_Source\PSoC4/CapSense_1_INT.c ****         #endif /* CapSense_1_ENTRY_CALLBACK */
 467:Generated_Source\PSoC4/CapSense_1_INT.c **** 
 468:Generated_Source\PSoC4/CapSense_1_INT.c ****         /* Clear pending interrupt */
 469:Generated_Source\PSoC4/CapSense_1_INT.c ****         CY_SET_REG32(CapSense_1_INTR_PTR, CapSense_1_INTR_SET_MASK);
 470:Generated_Source\PSoC4/CapSense_1_INT.c **** 
 471:Generated_Source\PSoC4/CapSense_1_INT.c ****         /* Read Rawdata */
 472:Generated_Source\PSoC4/CapSense_1_INT.c ****         CapSense_1_SsCSDPostScan();
 473:Generated_Source\PSoC4/CapSense_1_INT.c **** 
 474:Generated_Source\PSoC4/CapSense_1_INT.c ****         #if (CapSense_1_ENABLE == CapSense_1_MULTI_FREQ_SCAN_EN)
 475:Generated_Source\PSoC4/CapSense_1_INT.c ****             if (CapSense_1_FREQ_CHANNEL_2 > CapSense_1_scanFreqIndex)
 476:Generated_Source\PSoC4/CapSense_1_INT.c ****             {
 477:Generated_Source\PSoC4/CapSense_1_INT.c ****                 /* Connect Vref Buffer to AMUX bus. Third-generation HW block is enabled */
 478:Generated_Source\PSoC4/CapSense_1_INT.c ****                 CY_SET_REG32(CapSense_1_CONFIG_PTR, CapSense_1_configCsd | CapSense_1_CTANK_PRECHAR
 479:Generated_Source\PSoC4/CapSense_1_INT.c **** 
 480:Generated_Source\PSoC4/CapSense_1_INT.c ****                 CapSense_1_SsNextFrequencyScan();
 481:Generated_Source\PSoC4/CapSense_1_INT.c ****             }
 482:Generated_Source\PSoC4/CapSense_1_INT.c ****             else
 483:Generated_Source\PSoC4/CapSense_1_INT.c ****             {
 484:Generated_Source\PSoC4/CapSense_1_INT.c ****                 CapSense_1_scanFreqIndex = CapSense_1_FREQ_CHANNEL_0;
 485:Generated_Source\PSoC4/CapSense_1_INT.c **** 
 486:Generated_Source\PSoC4/CapSense_1_INT.c ****                 #if (CapSense_1_MFS_IMO == CapSense_1_MFS_METHOD)
 487:Generated_Source\PSoC4/CapSense_1_INT.c ****                     CapSense_1_SsChangeImoFreq(CapSense_1_FREQ_CHANNEL_0);
ARM GAS  C:\Users\SHOZO\AppData\Local\Temp\cccl5lFi.s 			page 10


 488:Generated_Source\PSoC4/CapSense_1_INT.c ****                 #else
 489:Generated_Source\PSoC4/CapSense_1_INT.c ****                     CapSense_1_SsChangeClkFreq(CapSense_1_FREQ_CHANNEL_0);
 490:Generated_Source\PSoC4/CapSense_1_INT.c ****                 #endif /* (CapSense_1_MFS_IMO == CapSense_1_MFS_METHOD) */
 491:Generated_Source\PSoC4/CapSense_1_INT.c **** 
 492:Generated_Source\PSoC4/CapSense_1_INT.c ****                 #if (CapSense_1_ENABLE == CapSense_1_BLOCK_OFF_AFTER_SCAN_EN)
 493:Generated_Source\PSoC4/CapSense_1_INT.c ****                     /* Disable Third-generation HW block. Connect Vref Buffer to AMUX bus */
 494:Generated_Source\PSoC4/CapSense_1_INT.c ****                     #if ((CapSense_1_CSH_PRECHARGE_IO_BUF == CapSense_1_CSD_CSH_PRECHARGE_SRC) &&\
 495:Generated_Source\PSoC4/CapSense_1_INT.c ****                          (CapSense_1_ENABLE == CapSense_1_CSD_SHIELD_TANK_EN))
 496:Generated_Source\PSoC4/CapSense_1_INT.c ****                         CY_SET_REG32(CapSense_1_CONFIG_PTR, CapSense_1_configCsd | CapSense_1_CMOD_
 497:Generated_Source\PSoC4/CapSense_1_INT.c ****                     #else
 498:Generated_Source\PSoC4/CapSense_1_INT.c ****                         CY_SET_REG32(CapSense_1_CONFIG_PTR, CapSense_1_configCsd | CapSense_1_CTANK
 499:Generated_Source\PSoC4/CapSense_1_INT.c ****                     #endif
 500:Generated_Source\PSoC4/CapSense_1_INT.c ****                 #else
 501:Generated_Source\PSoC4/CapSense_1_INT.c ****                     /* Connect Vref Buffer to AMUX bus. Third-generation HW block is enabled */
 502:Generated_Source\PSoC4/CapSense_1_INT.c ****                     CY_SET_REG32(CapSense_1_CONFIG_PTR, CapSense_1_configCsd | CapSense_1_CTANK_PRE
 503:Generated_Source\PSoC4/CapSense_1_INT.c ****                 #endif
 504:Generated_Source\PSoC4/CapSense_1_INT.c **** 
 505:Generated_Source\PSoC4/CapSense_1_INT.c ****                 /* Update Scan Counter */
 506:Generated_Source\PSoC4/CapSense_1_INT.c ****                 CapSense_1_dsRam.scanCounter++;
 507:Generated_Source\PSoC4/CapSense_1_INT.c **** 
 508:Generated_Source\PSoC4/CapSense_1_INT.c ****                 /* Sensor is totally scanned. Reset BUSY flag */
 509:Generated_Source\PSoC4/CapSense_1_INT.c ****                 CapSense_1_dsRam.status &= ~(CapSense_1_SW_STS_BUSY | CapSense_1_WDGT_SW_STS_BUSY);
 510:Generated_Source\PSoC4/CapSense_1_INT.c ****             }
 511:Generated_Source\PSoC4/CapSense_1_INT.c ****         #else
 512:Generated_Source\PSoC4/CapSense_1_INT.c ****             {
 513:Generated_Source\PSoC4/CapSense_1_INT.c ****                 #if (CapSense_1_ENABLE == CapSense_1_BLOCK_OFF_AFTER_SCAN_EN)
 514:Generated_Source\PSoC4/CapSense_1_INT.c ****                     /* Disable Third-generation HW block. Connect Vref Buffer to AMUX bus */
 515:Generated_Source\PSoC4/CapSense_1_INT.c ****                     #if ((CapSense_1_CSH_PRECHARGE_IO_BUF == CapSense_1_CSD_CSH_PRECHARGE_SRC) &&\
 516:Generated_Source\PSoC4/CapSense_1_INT.c ****                          (CapSense_1_ENABLE == CapSense_1_CSD_SHIELD_TANK_EN))
 517:Generated_Source\PSoC4/CapSense_1_INT.c ****                         CY_SET_REG32(CapSense_1_CONFIG_PTR, CapSense_1_configCsd | CapSense_1_CMOD_
 518:Generated_Source\PSoC4/CapSense_1_INT.c ****                     #else
 519:Generated_Source\PSoC4/CapSense_1_INT.c ****                         CY_SET_REG32(CapSense_1_CONFIG_PTR, CapSense_1_configCsd | CapSense_1_CTANK
 520:Generated_Source\PSoC4/CapSense_1_INT.c ****                     #endif
 521:Generated_Source\PSoC4/CapSense_1_INT.c ****                 #else
 522:Generated_Source\PSoC4/CapSense_1_INT.c ****                     /* Connect Vref Buffer to AMUX bus. Third-generation HW block is enabled */
 523:Generated_Source\PSoC4/CapSense_1_INT.c ****                     CY_SET_REG32(CapSense_1_CONFIG_PTR, CapSense_1_configCsd | CapSense_1_CTANK_PRE
 524:Generated_Source\PSoC4/CapSense_1_INT.c ****                 #endif
 525:Generated_Source\PSoC4/CapSense_1_INT.c **** 
 526:Generated_Source\PSoC4/CapSense_1_INT.c ****                 /* Update Scan Counter */
 527:Generated_Source\PSoC4/CapSense_1_INT.c ****                 CapSense_1_dsRam.scanCounter++;
 528:Generated_Source\PSoC4/CapSense_1_INT.c **** 
 529:Generated_Source\PSoC4/CapSense_1_INT.c ****                 /* Sensor is totally scanned. Reset BUSY flag */
 530:Generated_Source\PSoC4/CapSense_1_INT.c ****                 CapSense_1_dsRam.status &= ~(CapSense_1_SW_STS_BUSY | CapSense_1_WDGT_SW_STS_BUSY);
 531:Generated_Source\PSoC4/CapSense_1_INT.c ****             }
 532:Generated_Source\PSoC4/CapSense_1_INT.c ****         #endif /* (CapSense_1_ENABLE == CapSense_1_MULTI_FREQ_SCAN_EN) */
 533:Generated_Source\PSoC4/CapSense_1_INT.c **** 
 534:Generated_Source\PSoC4/CapSense_1_INT.c ****         #ifdef CapSense_1_EXIT_CALLBACK
 535:Generated_Source\PSoC4/CapSense_1_INT.c ****             CapSense_1_ExitCallback();
 536:Generated_Source\PSoC4/CapSense_1_INT.c ****         #endif /* CapSense_1_EXIT_CALLBACK */
 537:Generated_Source\PSoC4/CapSense_1_INT.c ****     }
 538:Generated_Source\PSoC4/CapSense_1_INT.c **** 
 539:Generated_Source\PSoC4/CapSense_1_INT.c **** 
 540:Generated_Source\PSoC4/CapSense_1_INT.c ****     /*******************************************************************************
 541:Generated_Source\PSoC4/CapSense_1_INT.c ****     * Function Name: CapSense_1_CSDPostMultiScan
 542:Generated_Source\PSoC4/CapSense_1_INT.c ****     ****************************************************************************//**
 543:Generated_Source\PSoC4/CapSense_1_INT.c ****     *
 544:Generated_Source\PSoC4/CapSense_1_INT.c ****     * \brief
ARM GAS  C:\Users\SHOZO\AppData\Local\Temp\cccl5lFi.s 			page 11


 545:Generated_Source\PSoC4/CapSense_1_INT.c ****     *  This is an internal ISR function for the multiple-sensor scanning
 546:Generated_Source\PSoC4/CapSense_1_INT.c ****     *  implementation.
 547:Generated_Source\PSoC4/CapSense_1_INT.c ****     *
 548:Generated_Source\PSoC4/CapSense_1_INT.c ****     * \details
 549:Generated_Source\PSoC4/CapSense_1_INT.c ****     *  This ISR handler is triggered when the user calls the
 550:Generated_Source\PSoC4/CapSense_1_INT.c ****     *  CapSense_1_Scan() or CapSense_1_ScanAllWidgets() APIs.
 551:Generated_Source\PSoC4/CapSense_1_INT.c ****     *
 552:Generated_Source\PSoC4/CapSense_1_INT.c ****     *  The following tasks are performed:
 553:Generated_Source\PSoC4/CapSense_1_INT.c ****     *    1. Disable the CSD interrupt.
 554:Generated_Source\PSoC4/CapSense_1_INT.c ****     *    2. Read the Counter register and update the data structure with raw data.
 555:Generated_Source\PSoC4/CapSense_1_INT.c ****     *    3. Connect the Vref buffer to the AMUX bus.
 556:Generated_Source\PSoC4/CapSense_1_INT.c ****     *    4. Disable the CSD block (after the widget has been scanned).
 557:Generated_Source\PSoC4/CapSense_1_INT.c ****     *    5. Update the Scan Counter.
 558:Generated_Source\PSoC4/CapSense_1_INT.c ****     *    6. Reset the BUSY flag.
 559:Generated_Source\PSoC4/CapSense_1_INT.c ****     *    7. Enable the CSD interrupt.
 560:Generated_Source\PSoC4/CapSense_1_INT.c ****     *
 561:Generated_Source\PSoC4/CapSense_1_INT.c ****     *  The ISR handler initializes scanning for the previous sensor when the
 562:Generated_Source\PSoC4/CapSense_1_INT.c ****     *  widget has more than one sensor.
 563:Generated_Source\PSoC4/CapSense_1_INT.c ****     *  The ISR handler initializes scanning for the next widget when the
 564:Generated_Source\PSoC4/CapSense_1_INT.c ****     *  CapSense_1_ScanAllWidgets() APIs are called and the project has
 565:Generated_Source\PSoC4/CapSense_1_INT.c ****     *  more than one widget.
 566:Generated_Source\PSoC4/CapSense_1_INT.c ****     *  The ISR handler changes the IMO and initializes scanning for the next
 567:Generated_Source\PSoC4/CapSense_1_INT.c ****     *  frequency channels when multi-frequency scanning is enabled.
 568:Generated_Source\PSoC4/CapSense_1_INT.c ****     *
 569:Generated_Source\PSoC4/CapSense_1_INT.c ****     *  This function has two Macro Callbacks that allow calling the user
 570:Generated_Source\PSoC4/CapSense_1_INT.c ****     *  code from macros specified in Component's generated code. Refer to the
 571:Generated_Source\PSoC4/CapSense_1_INT.c ****     *  \ref group_c_macrocallbacks section of the PSoC Creator User Guide
 572:Generated_Source\PSoC4/CapSense_1_INT.c ****     *  for details.
 573:Generated_Source\PSoC4/CapSense_1_INT.c ****     *
 574:Generated_Source\PSoC4/CapSense_1_INT.c ****     *******************************************************************************/
 575:Generated_Source\PSoC4/CapSense_1_INT.c ****     CY_ISR(CapSense_1_CSDPostMultiScan)
 576:Generated_Source\PSoC4/CapSense_1_INT.c ****     {
 577:Generated_Source\PSoC4/CapSense_1_INT.c ****         /* Declare and initialize ptr to sensor IO structure to appropriate address        */
 578:Generated_Source\PSoC4/CapSense_1_INT.c ****         CapSense_1_FLASH_IO_STRUCT const *curSnsIOPtr = (CapSense_1_FLASH_IO_STRUCT const *)
 579:Generated_Source\PSoC4/CapSense_1_INT.c ****                                                           CapSense_1_dsFlash.wdgtArray[CapSense_1_w
 580:Generated_Source\PSoC4/CapSense_1_INT.c ****                                                           + CapSense_1_sensorIndex;
 581:Generated_Source\PSoC4/CapSense_1_INT.c **** 
 582:Generated_Source\PSoC4/CapSense_1_INT.c ****         #ifdef CapSense_1_ENTRY_CALLBACK
 583:Generated_Source\PSoC4/CapSense_1_INT.c ****             CapSense_1_EntryCallback();
 584:Generated_Source\PSoC4/CapSense_1_INT.c ****         #endif /* CapSense_1_ENTRY_CALLBACK */
 585:Generated_Source\PSoC4/CapSense_1_INT.c **** 
 586:Generated_Source\PSoC4/CapSense_1_INT.c ****         /* Clear pending interrupt */
 587:Generated_Source\PSoC4/CapSense_1_INT.c ****         CY_SET_REG32(CapSense_1_INTR_PTR, CapSense_1_INTR_SET_MASK);
 588:Generated_Source\PSoC4/CapSense_1_INT.c **** 
 589:Generated_Source\PSoC4/CapSense_1_INT.c ****          /* Read Rawdata */
 590:Generated_Source\PSoC4/CapSense_1_INT.c ****         CapSense_1_SsCSDPostScan();
 591:Generated_Source\PSoC4/CapSense_1_INT.c **** 
 592:Generated_Source\PSoC4/CapSense_1_INT.c ****         /* Connect Vref Buffer to AMUX bus */
 593:Generated_Source\PSoC4/CapSense_1_INT.c ****         CY_SET_REG32(CapSense_1_CONFIG_PTR, CapSense_1_configCsd | CapSense_1_CTANK_PRECHARGE_CONFI
 594:Generated_Source\PSoC4/CapSense_1_INT.c **** 
 595:Generated_Source\PSoC4/CapSense_1_INT.c ****         #if (CapSense_1_ENABLE == CapSense_1_MULTI_FREQ_SCAN_EN)
 596:Generated_Source\PSoC4/CapSense_1_INT.c ****             /* Disable sensor when all frequency channels are scanned */
 597:Generated_Source\PSoC4/CapSense_1_INT.c ****             if (CapSense_1_FREQ_CHANNEL_2 == CapSense_1_scanFreqIndex)
 598:Generated_Source\PSoC4/CapSense_1_INT.c ****             {
 599:Generated_Source\PSoC4/CapSense_1_INT.c ****                 /* Disable sensor */
 600:Generated_Source\PSoC4/CapSense_1_INT.c ****                 CapSense_1_CSDDisconnectSns(curSnsIOPtr);
 601:Generated_Source\PSoC4/CapSense_1_INT.c ****             }
ARM GAS  C:\Users\SHOZO\AppData\Local\Temp\cccl5lFi.s 			page 12


 602:Generated_Source\PSoC4/CapSense_1_INT.c ****         #else
 603:Generated_Source\PSoC4/CapSense_1_INT.c ****             /* Disable sensor */
 604:Generated_Source\PSoC4/CapSense_1_INT.c ****             CapSense_1_CSDDisconnectSns(curSnsIOPtr);
 605:Generated_Source\PSoC4/CapSense_1_INT.c ****         #endif /* (CapSense_1_ENABLE == CapSense_1_MULTI_FREQ_SCAN_EN) */
 606:Generated_Source\PSoC4/CapSense_1_INT.c **** 
 607:Generated_Source\PSoC4/CapSense_1_INT.c ****         #if (CapSense_1_ENABLE == CapSense_1_MULTI_FREQ_SCAN_EN)
 608:Generated_Source\PSoC4/CapSense_1_INT.c ****             if (CapSense_1_FREQ_CHANNEL_2 > CapSense_1_scanFreqIndex)
 609:Generated_Source\PSoC4/CapSense_1_INT.c ****             {
 610:Generated_Source\PSoC4/CapSense_1_INT.c ****                  /* Scan the next channel */
 611:Generated_Source\PSoC4/CapSense_1_INT.c ****                 CapSense_1_SsNextFrequencyScan();
 612:Generated_Source\PSoC4/CapSense_1_INT.c ****             }
 613:Generated_Source\PSoC4/CapSense_1_INT.c ****             else
 614:Generated_Source\PSoC4/CapSense_1_INT.c ****             {
 615:Generated_Source\PSoC4/CapSense_1_INT.c ****                  /* All channels are scanned. Set IMO to zero channel */
 616:Generated_Source\PSoC4/CapSense_1_INT.c ****                 CapSense_1_scanFreqIndex = CapSense_1_FREQ_CHANNEL_0;
 617:Generated_Source\PSoC4/CapSense_1_INT.c **** 
 618:Generated_Source\PSoC4/CapSense_1_INT.c ****                 #if (CapSense_1_MFS_IMO == CapSense_1_MFS_METHOD)
 619:Generated_Source\PSoC4/CapSense_1_INT.c ****                     CapSense_1_SsChangeImoFreq(CapSense_1_FREQ_CHANNEL_0);
 620:Generated_Source\PSoC4/CapSense_1_INT.c ****                 #else
 621:Generated_Source\PSoC4/CapSense_1_INT.c ****                     CapSense_1_SsChangeClkFreq(CapSense_1_FREQ_CHANNEL_0);
 622:Generated_Source\PSoC4/CapSense_1_INT.c ****                 #endif /* (CapSense_1_MFS_IMO == CapSense_1_MFS_METHOD) */
 623:Generated_Source\PSoC4/CapSense_1_INT.c **** 
 624:Generated_Source\PSoC4/CapSense_1_INT.c ****                  /* Scan the next sensor */
 625:Generated_Source\PSoC4/CapSense_1_INT.c ****                 CapSense_1_SsCSDInitNextScan();
 626:Generated_Source\PSoC4/CapSense_1_INT.c ****             }
 627:Generated_Source\PSoC4/CapSense_1_INT.c ****         #else
 628:Generated_Source\PSoC4/CapSense_1_INT.c ****             /* Scan the next sensor */
 629:Generated_Source\PSoC4/CapSense_1_INT.c ****             CapSense_1_SsCSDInitNextScan();
 630:Generated_Source\PSoC4/CapSense_1_INT.c ****         #endif /* (CapSense_1_ENABLE == CapSense_1_MULTI_FREQ_SCAN_EN) */
 631:Generated_Source\PSoC4/CapSense_1_INT.c **** 
 632:Generated_Source\PSoC4/CapSense_1_INT.c ****         #ifdef CapSense_1_EXIT_CALLBACK
 633:Generated_Source\PSoC4/CapSense_1_INT.c ****             CapSense_1_ExitCallback();
 634:Generated_Source\PSoC4/CapSense_1_INT.c ****         #endif /* CapSense_1_EXIT_CALLBACK */
 635:Generated_Source\PSoC4/CapSense_1_INT.c ****     }
 636:Generated_Source\PSoC4/CapSense_1_INT.c **** 
 637:Generated_Source\PSoC4/CapSense_1_INT.c **** 
 638:Generated_Source\PSoC4/CapSense_1_INT.c ****     #if (CapSense_1_ENABLE == CapSense_1_CSD_GANGED_SNS_EN)
 639:Generated_Source\PSoC4/CapSense_1_INT.c ****     /*******************************************************************************
 640:Generated_Source\PSoC4/CapSense_1_INT.c ****     * Function Name: CapSense_1_CSDPostMultiScanGanged
 641:Generated_Source\PSoC4/CapSense_1_INT.c ****     ****************************************************************************//**
 642:Generated_Source\PSoC4/CapSense_1_INT.c ****     *
 643:Generated_Source\PSoC4/CapSense_1_INT.c ****     * \brief
 644:Generated_Source\PSoC4/CapSense_1_INT.c ****     *  This is an internal ISR function for the multiple-sensor scanning
 645:Generated_Source\PSoC4/CapSense_1_INT.c ****     *  implementation for ganged sensors.
 646:Generated_Source\PSoC4/CapSense_1_INT.c ****     *
 647:Generated_Source\PSoC4/CapSense_1_INT.c ****     * \details
 648:Generated_Source\PSoC4/CapSense_1_INT.c ****     *  This ISR handler is triggered when the user calls the
 649:Generated_Source\PSoC4/CapSense_1_INT.c ****     *  CapSense_1_Scan() API for a ganged sensor or the
 650:Generated_Source\PSoC4/CapSense_1_INT.c ****     *  CapSense_1_ScanAllWidgets() API in the project with ganged sensors.
 651:Generated_Source\PSoC4/CapSense_1_INT.c ****     *
 652:Generated_Source\PSoC4/CapSense_1_INT.c ****     *  The following tasks are performed:
 653:Generated_Source\PSoC4/CapSense_1_INT.c ****     *    1. Disable the CSD interrupt.
 654:Generated_Source\PSoC4/CapSense_1_INT.c ****     *    2. Read the Counter register and update the data structure with raw data.
 655:Generated_Source\PSoC4/CapSense_1_INT.c ****     *    3. Connect the Vref buffer to the AMUX bus.
 656:Generated_Source\PSoC4/CapSense_1_INT.c ****     *    4. Disable the CSD block (after the widget has been scanned).
 657:Generated_Source\PSoC4/CapSense_1_INT.c ****     *    5. Update the Scan Counter.
 658:Generated_Source\PSoC4/CapSense_1_INT.c ****     *    6. Reset the BUSY flag.
ARM GAS  C:\Users\SHOZO\AppData\Local\Temp\cccl5lFi.s 			page 13


 659:Generated_Source\PSoC4/CapSense_1_INT.c ****     *    7. Enable the CSD interrupt.
 660:Generated_Source\PSoC4/CapSense_1_INT.c ****     *
 661:Generated_Source\PSoC4/CapSense_1_INT.c ****     *  The ISR handler initializes scanning for the previous sensor when the
 662:Generated_Source\PSoC4/CapSense_1_INT.c ****     *  widget has more than one sensor.
 663:Generated_Source\PSoC4/CapSense_1_INT.c ****     *  The ISR handler initializes scanning for the next widget when the
 664:Generated_Source\PSoC4/CapSense_1_INT.c ****     *  CapSense_1_ScanAllWidgets() APIs are called and the project has
 665:Generated_Source\PSoC4/CapSense_1_INT.c ****     *  more than one widget.
 666:Generated_Source\PSoC4/CapSense_1_INT.c ****     *  The ISR handler changes the IMO and initializes scanning for the next
 667:Generated_Source\PSoC4/CapSense_1_INT.c ****     *  frequency channels when multi-frequency scanning is enabled.
 668:Generated_Source\PSoC4/CapSense_1_INT.c ****     *
 669:Generated_Source\PSoC4/CapSense_1_INT.c ****     *  This function has two Macro Callbacks that allow calling the user
 670:Generated_Source\PSoC4/CapSense_1_INT.c ****     *  code from macros specified in Component's generated code. Refer to the
 671:Generated_Source\PSoC4/CapSense_1_INT.c ****     *  \ref group_c_macrocallbacks section of the PSoC Creator User Guide
 672:Generated_Source\PSoC4/CapSense_1_INT.c ****     *  for details.
 673:Generated_Source\PSoC4/CapSense_1_INT.c ****     *
 674:Generated_Source\PSoC4/CapSense_1_INT.c ****     *******************************************************************************/
 675:Generated_Source\PSoC4/CapSense_1_INT.c ****     CY_ISR(CapSense_1_CSDPostMultiScanGanged)
 676:Generated_Source\PSoC4/CapSense_1_INT.c ****     {
 677:Generated_Source\PSoC4/CapSense_1_INT.c ****         #ifdef CapSense_1_ENTRY_CALLBACK
 678:Generated_Source\PSoC4/CapSense_1_INT.c ****             CapSense_1_EntryCallback();
 679:Generated_Source\PSoC4/CapSense_1_INT.c ****         #endif /* CapSense_1_ENTRY_CALLBACK */
 680:Generated_Source\PSoC4/CapSense_1_INT.c **** 
 681:Generated_Source\PSoC4/CapSense_1_INT.c ****         /* Clear pending interrupt */
 682:Generated_Source\PSoC4/CapSense_1_INT.c ****         CY_SET_REG32(CapSense_1_INTR_PTR, CapSense_1_INTR_SET_MASK);
 683:Generated_Source\PSoC4/CapSense_1_INT.c **** 
 684:Generated_Source\PSoC4/CapSense_1_INT.c ****          /* Read Rawdata */
 685:Generated_Source\PSoC4/CapSense_1_INT.c ****         CapSense_1_SsCSDPostScan();
 686:Generated_Source\PSoC4/CapSense_1_INT.c **** 
 687:Generated_Source\PSoC4/CapSense_1_INT.c ****         /* Connect Vref Buffer to AMUX bus */
 688:Generated_Source\PSoC4/CapSense_1_INT.c ****         CY_SET_REG32(CapSense_1_CONFIG_PTR, CapSense_1_configCsd | CapSense_1_CTANK_PRECHARGE_CONFI
 689:Generated_Source\PSoC4/CapSense_1_INT.c **** 
 690:Generated_Source\PSoC4/CapSense_1_INT.c ****         #if (CapSense_1_ENABLE == CapSense_1_MULTI_FREQ_SCAN_EN)
 691:Generated_Source\PSoC4/CapSense_1_INT.c ****             if (CapSense_1_FREQ_CHANNEL_2 == CapSense_1_scanFreqIndex)
 692:Generated_Source\PSoC4/CapSense_1_INT.c ****             {
 693:Generated_Source\PSoC4/CapSense_1_INT.c ****                 CapSense_1_SsCSDDisconnectSnsExt((uint32)CapSense_1_widgetIndex, (uint32)CapSense_1
 694:Generated_Source\PSoC4/CapSense_1_INT.c ****             }
 695:Generated_Source\PSoC4/CapSense_1_INT.c ****         #else
 696:Generated_Source\PSoC4/CapSense_1_INT.c ****             CapSense_1_SsCSDDisconnectSnsExt((uint32)CapSense_1_widgetIndex, (uint32)CapSense_1_sen
 697:Generated_Source\PSoC4/CapSense_1_INT.c ****         #endif /* (CapSense_1_ENABLE == CapSense_1_MULTI_FREQ_SCAN_EN) */
 698:Generated_Source\PSoC4/CapSense_1_INT.c **** 
 699:Generated_Source\PSoC4/CapSense_1_INT.c ****         #if (CapSense_1_ENABLE == CapSense_1_MULTI_FREQ_SCAN_EN)
 700:Generated_Source\PSoC4/CapSense_1_INT.c ****             if (CapSense_1_FREQ_CHANNEL_2 > CapSense_1_scanFreqIndex)
 701:Generated_Source\PSoC4/CapSense_1_INT.c ****             {
 702:Generated_Source\PSoC4/CapSense_1_INT.c ****                  /* Scan the next channel */
 703:Generated_Source\PSoC4/CapSense_1_INT.c ****                 CapSense_1_SsNextFrequencyScan();
 704:Generated_Source\PSoC4/CapSense_1_INT.c ****             }
 705:Generated_Source\PSoC4/CapSense_1_INT.c ****             else
 706:Generated_Source\PSoC4/CapSense_1_INT.c ****             {
 707:Generated_Source\PSoC4/CapSense_1_INT.c ****                 /* All channels are scanned. Set IMO to zero channel */
 708:Generated_Source\PSoC4/CapSense_1_INT.c ****                 CapSense_1_scanFreqIndex = CapSense_1_FREQ_CHANNEL_0;
 709:Generated_Source\PSoC4/CapSense_1_INT.c **** 
 710:Generated_Source\PSoC4/CapSense_1_INT.c ****                 #if (CapSense_1_MFS_IMO == CapSense_1_MFS_METHOD)
 711:Generated_Source\PSoC4/CapSense_1_INT.c ****                     CapSense_1_SsChangeImoFreq(CapSense_1_FREQ_CHANNEL_0);
 712:Generated_Source\PSoC4/CapSense_1_INT.c ****                 #else
 713:Generated_Source\PSoC4/CapSense_1_INT.c ****                     CapSense_1_SsChangeClkFreq(CapSense_1_FREQ_CHANNEL_0);
 714:Generated_Source\PSoC4/CapSense_1_INT.c ****                 #endif /* (CapSense_1_MFS_IMO == CapSense_1_MFS_METHOD) */
 715:Generated_Source\PSoC4/CapSense_1_INT.c **** 
ARM GAS  C:\Users\SHOZO\AppData\Local\Temp\cccl5lFi.s 			page 14


 716:Generated_Source\PSoC4/CapSense_1_INT.c ****                  /* Scan the next sensor */
 717:Generated_Source\PSoC4/CapSense_1_INT.c ****                 CapSense_1_SsCSDInitNextScan();
 718:Generated_Source\PSoC4/CapSense_1_INT.c ****             }
 719:Generated_Source\PSoC4/CapSense_1_INT.c ****         #else
 720:Generated_Source\PSoC4/CapSense_1_INT.c ****              /* Scan the next sensor */
 721:Generated_Source\PSoC4/CapSense_1_INT.c ****             CapSense_1_SsCSDInitNextScan();
 722:Generated_Source\PSoC4/CapSense_1_INT.c ****         #endif /* (CapSense_1_ENABLE == CapSense_1_MULTI_FREQ_SCAN_EN) */
 723:Generated_Source\PSoC4/CapSense_1_INT.c **** 
 724:Generated_Source\PSoC4/CapSense_1_INT.c ****         #ifdef CapSense_1_EXIT_CALLBACK
 725:Generated_Source\PSoC4/CapSense_1_INT.c ****             CapSense_1_ExitCallback();
 726:Generated_Source\PSoC4/CapSense_1_INT.c ****         #endif /* CapSense_1_EXIT_CALLBACK */
 727:Generated_Source\PSoC4/CapSense_1_INT.c ****     }
 728:Generated_Source\PSoC4/CapSense_1_INT.c ****     #endif /* (CapSense_1_ENABLE == CapSense_1_CSD_GANGED_SNS_EN) */
 729:Generated_Source\PSoC4/CapSense_1_INT.c **** 
 730:Generated_Source\PSoC4/CapSense_1_INT.c **** #endif /* (CapSense_1_ENABLE == CapSense_1_CSDV2) */
 731:Generated_Source\PSoC4/CapSense_1_INT.c **** 
 732:Generated_Source\PSoC4/CapSense_1_INT.c **** #endif /* ((CapSense_1_ENABLE == CapSense_1_CSD_EN) || (CapSense_1_ENABLE == CapSense_1_CSD_CSX_EN)
 733:Generated_Source\PSoC4/CapSense_1_INT.c **** 
 734:Generated_Source\PSoC4/CapSense_1_INT.c **** /** \}
 735:Generated_Source\PSoC4/CapSense_1_INT.c ****  * \endcond */
 736:Generated_Source\PSoC4/CapSense_1_INT.c **** 
 737:Generated_Source\PSoC4/CapSense_1_INT.c **** 
 738:Generated_Source\PSoC4/CapSense_1_INT.c **** #if ((CapSense_1_ENABLE == CapSense_1_CSD_EN) || (CapSense_1_ENABLE == CapSense_1_CSD_CSX_EN))
 739:Generated_Source\PSoC4/CapSense_1_INT.c **** 
 740:Generated_Source\PSoC4/CapSense_1_INT.c **** /*******************************************************************************
 741:Generated_Source\PSoC4/CapSense_1_INT.c **** * Function Name: CapSense_1_SsCSDPostScan
 742:Generated_Source\PSoC4/CapSense_1_INT.c **** ****************************************************************************//**
 743:Generated_Source\PSoC4/CapSense_1_INT.c **** *
 744:Generated_Source\PSoC4/CapSense_1_INT.c **** * \brief
 745:Generated_Source\PSoC4/CapSense_1_INT.c **** *   This function reads rawdata and releases required HW resources after scan.
 746:Generated_Source\PSoC4/CapSense_1_INT.c **** *
 747:Generated_Source\PSoC4/CapSense_1_INT.c **** * \details
 748:Generated_Source\PSoC4/CapSense_1_INT.c **** *   This function performs following tasks after scan:
 749:Generated_Source\PSoC4/CapSense_1_INT.c **** *   - Reads SlotResult from Raw Counter;
 750:Generated_Source\PSoC4/CapSense_1_INT.c **** *   - Inits bad Conversions number;
 751:Generated_Source\PSoC4/CapSense_1_INT.c **** *   - Disconnects Vrefhi from AMUBUF positive input;
 752:Generated_Source\PSoC4/CapSense_1_INT.c **** *   - Disconnects AMUBUF output from CSDBUSB with sych PHI2+HSCMP;
 753:Generated_Source\PSoC4/CapSense_1_INT.c **** *   - Opens HCBV and HCBG switches.
 754:Generated_Source\PSoC4/CapSense_1_INT.c **** *
 755:Generated_Source\PSoC4/CapSense_1_INT.c **** *******************************************************************************/
 756:Generated_Source\PSoC4/CapSense_1_INT.c **** static void CapSense_1_SsCSDPostScan(void)
 757:Generated_Source\PSoC4/CapSense_1_INT.c **** {
  27              		.loc 1 757 0
  28              		.cfi_startproc
  29              		@ args = 0, pretend = 0, frame = 0
  30              		@ frame_needed = 0, uses_anonymous_args = 0
  31              		@ link register save eliminated.
 758:Generated_Source\PSoC4/CapSense_1_INT.c ****     #if (CapSense_1_ENABLE == CapSense_1_CSDV2)
 759:Generated_Source\PSoC4/CapSense_1_INT.c **** 
 760:Generated_Source\PSoC4/CapSense_1_INT.c ****         uint32 tmpRawData;
 761:Generated_Source\PSoC4/CapSense_1_INT.c ****         uint32 tmpMaxCount;
 762:Generated_Source\PSoC4/CapSense_1_INT.c ****         CapSense_1_RAM_WD_BASE_STRUCT const *ptrWdgt = (CapSense_1_RAM_WD_BASE_STRUCT *)
 763:Generated_Source\PSoC4/CapSense_1_INT.c ****                                             CapSense_1_dsFlash.wdgtArray[CapSense_1_widgetIndex].pt
 764:Generated_Source\PSoC4/CapSense_1_INT.c **** 
 765:Generated_Source\PSoC4/CapSense_1_INT.c ****         /* Read SlotResult from Raw Counter */
 766:Generated_Source\PSoC4/CapSense_1_INT.c ****         tmpRawData = CapSense_1_RESULT_VAL1_VALUE_MASK & CY_GET_REG32(CapSense_1_COUNTER_PTR);
 767:Generated_Source\PSoC4/CapSense_1_INT.c **** 
ARM GAS  C:\Users\SHOZO\AppData\Local\Temp\cccl5lFi.s 			page 15


 768:Generated_Source\PSoC4/CapSense_1_INT.c ****         tmpMaxCount = ((1uL << ptrWdgt->resolution) - 1uL);
 769:Generated_Source\PSoC4/CapSense_1_INT.c ****         if(tmpRawData < tmpMaxCount)
 770:Generated_Source\PSoC4/CapSense_1_INT.c ****         {
 771:Generated_Source\PSoC4/CapSense_1_INT.c ****             CapSense_1_curRamSnsPtr->raw[CapSense_1_scanFreqIndex] = LO16(tmpRawData);
 772:Generated_Source\PSoC4/CapSense_1_INT.c ****         }
 773:Generated_Source\PSoC4/CapSense_1_INT.c ****         else
 774:Generated_Source\PSoC4/CapSense_1_INT.c ****         {
 775:Generated_Source\PSoC4/CapSense_1_INT.c ****             CapSense_1_curRamSnsPtr->raw[CapSense_1_scanFreqIndex] = LO16(tmpMaxCount);
 776:Generated_Source\PSoC4/CapSense_1_INT.c ****         }
 777:Generated_Source\PSoC4/CapSense_1_INT.c **** 
 778:Generated_Source\PSoC4/CapSense_1_INT.c ****         #if (CapSense_1_ENABLE == CapSense_1_CSD_NOISE_METRIC_EN)
 779:Generated_Source\PSoC4/CapSense_1_INT.c ****             /* Init bad Conversions number */
 780:Generated_Source\PSoC4/CapSense_1_INT.c ****             CapSense_1_badConversionsNum = CapSense_1_BAD_CONVERSIONS_NUM;
 781:Generated_Source\PSoC4/CapSense_1_INT.c ****         #endif /* (CapSense_1_ENABLE == CapSense_1_CSD_NOISE_METRIC_EN) */
 782:Generated_Source\PSoC4/CapSense_1_INT.c **** 
 783:Generated_Source\PSoC4/CapSense_1_INT.c ****         #if (CapSense_1_ENABLE == CapSense_1_CSD_SHIELD_EN)
 784:Generated_Source\PSoC4/CapSense_1_INT.c ****             /* Open HCBV and HCBG switches */
 785:Generated_Source\PSoC4/CapSense_1_INT.c ****             CY_SET_REG32(CapSense_1_SW_SHIELD_SEL_PTR, CapSense_1_SW_SHIELD_SEL_SW_HCBV_STATIC_OPEN
 786:Generated_Source\PSoC4/CapSense_1_INT.c ****                                                              CapSense_1_SW_SHIELD_SEL_SW_HCBG_STATI
 787:Generated_Source\PSoC4/CapSense_1_INT.c ****         #endif /* (CapSense_1_ENABLE == CapSense_1_CSD_SHIELD_EN) */
 788:Generated_Source\PSoC4/CapSense_1_INT.c **** 
 789:Generated_Source\PSoC4/CapSense_1_INT.c ****     #else
 790:Generated_Source\PSoC4/CapSense_1_INT.c **** 
 791:Generated_Source\PSoC4/CapSense_1_INT.c ****         /* Read SlotResult from Raw Counter */
 792:Generated_Source\PSoC4/CapSense_1_INT.c ****        CapSense_1_curRamSnsPtr->raw[CapSense_1_scanFreqIndex] = (uint16)CY_GET_REG32(CapSense_1_COU
  32              		.loc 1 792 0
  33 0000 044B     		ldr	r3, .L2
  34 0002 1A68     		ldr	r2, [r3]
  35 0004 044B     		ldr	r3, .L2+4
  36 0006 1B78     		ldrb	r3, [r3]
  37 0008 0449     		ldr	r1, .L2+8
  38 000a 0968     		ldr	r1, [r1]
  39 000c 5B00     		lsls	r3, r3, #1
  40 000e D152     		strh	r1, [r2, r3]
 793:Generated_Source\PSoC4/CapSense_1_INT.c **** 
 794:Generated_Source\PSoC4/CapSense_1_INT.c ****     #endif /* (CapSense_1_ENABLE == CapSense_1_CSDV2) */
 795:Generated_Source\PSoC4/CapSense_1_INT.c **** }
  41              		.loc 1 795 0
  42              		@ sp needed
  43 0010 7047     		bx	lr
  44              	.L3:
  45 0012 C046     		.align	2
  46              	.L2:
  47 0014 00000000 		.word	CapSense_1_curRamSnsPtr
  48 0018 00000000 		.word	CapSense_1_scanFreqIndex
  49 001c 0C000840 		.word	1074266124
  50              		.cfi_endproc
  51              	.LFE2:
  52              		.size	CapSense_1_SsCSDPostScan, .-CapSense_1_SsCSDPostScan
  53              		.section	.text.CapSense_1_SsCSDInitNextScan,"ax",%progbits
  54              		.align	2
  55              		.code	16
  56              		.thumb_func
  57              		.type	CapSense_1_SsCSDInitNextScan, %function
  58              	CapSense_1_SsCSDInitNextScan:
  59              	.LFB3:
 796:Generated_Source\PSoC4/CapSense_1_INT.c **** 
ARM GAS  C:\Users\SHOZO\AppData\Local\Temp\cccl5lFi.s 			page 16


 797:Generated_Source\PSoC4/CapSense_1_INT.c **** 
 798:Generated_Source\PSoC4/CapSense_1_INT.c **** /*******************************************************************************
 799:Generated_Source\PSoC4/CapSense_1_INT.c **** * Function Name: CapSense_1_SsCSDInitNextScan
 800:Generated_Source\PSoC4/CapSense_1_INT.c **** ****************************************************************************//**
 801:Generated_Source\PSoC4/CapSense_1_INT.c **** *
 802:Generated_Source\PSoC4/CapSense_1_INT.c **** * \brief
 803:Generated_Source\PSoC4/CapSense_1_INT.c **** *   This function initializes the next sensor scan.
 804:Generated_Source\PSoC4/CapSense_1_INT.c **** *
 805:Generated_Source\PSoC4/CapSense_1_INT.c **** * \details
 806:Generated_Source\PSoC4/CapSense_1_INT.c **** *   The function increments the sensor index, updates sense clock for matrix
 807:Generated_Source\PSoC4/CapSense_1_INT.c **** *   or touchpad widgets only, sets up Compensation IDAC, enables the sensor and
 808:Generated_Source\PSoC4/CapSense_1_INT.c **** *   scans it. When all the sensors are scanned it continues to set up the next widget
 809:Generated_Source\PSoC4/CapSense_1_INT.c **** *   until all the widgets are scanned. The CSD block is disabled when all the widgets are
 810:Generated_Source\PSoC4/CapSense_1_INT.c **** *   scanned.
 811:Generated_Source\PSoC4/CapSense_1_INT.c **** *
 812:Generated_Source\PSoC4/CapSense_1_INT.c **** *******************************************************************************/
 813:Generated_Source\PSoC4/CapSense_1_INT.c **** static void CapSense_1_SsCSDInitNextScan(void)
 814:Generated_Source\PSoC4/CapSense_1_INT.c **** {
  60              		.loc 1 814 0
  61              		.cfi_startproc
  62              		@ args = 0, pretend = 0, frame = 0
  63              		@ frame_needed = 0, uses_anonymous_args = 0
  64 0000 70B5     		push	{r4, r5, r6, lr}
  65              		.cfi_def_cfa_offset 16
  66              		.cfi_offset 4, -16
  67              		.cfi_offset 5, -12
  68              		.cfi_offset 6, -8
  69              		.cfi_offset 14, -4
 815:Generated_Source\PSoC4/CapSense_1_INT.c ****     /* Declare and initialize ptr to widget and sensor structures to appropriate address */
 816:Generated_Source\PSoC4/CapSense_1_INT.c ****     #if (((CapSense_1_ENABLE == CapSense_1_CSD_IDAC_COMP_EN) || \
 817:Generated_Source\PSoC4/CapSense_1_INT.c ****           (CapSense_1_CSD_MATRIX_WIDGET_EN || CapSense_1_CSD_TOUCHPAD_WIDGET_EN)) || \
 818:Generated_Source\PSoC4/CapSense_1_INT.c ****           (((CapSense_1_DISABLE == CapSense_1_CSD_COMMON_SNS_CLK_EN) && \
 819:Generated_Source\PSoC4/CapSense_1_INT.c ****           (CapSense_1_ENABLE == CapSense_1_CSDV2) && \
 820:Generated_Source\PSoC4/CapSense_1_INT.c ****           (CapSense_1_CSD_MATRIX_WIDGET_EN || CapSense_1_CSD_TOUCHPAD_WIDGET_EN))))
 821:Generated_Source\PSoC4/CapSense_1_INT.c ****         CapSense_1_RAM_WD_BASE_STRUCT *ptrWdgt = (CapSense_1_RAM_WD_BASE_STRUCT *)
 822:Generated_Source\PSoC4/CapSense_1_INT.c ****                                                         CapSense_1_dsFlash.wdgtArray[CapSense_1_wid
  70              		.loc 1 822 0
  71 0002 234C     		ldr	r4, .L8
  72 0004 2278     		ldrb	r2, [r4]
 821:Generated_Source\PSoC4/CapSense_1_INT.c ****                                                         CapSense_1_dsFlash.wdgtArray[CapSense_1_wid
  73              		.loc 1 821 0
  74 0006 2349     		ldr	r1, .L8+4
  75 0008 2C23     		movs	r3, #44
  76 000a 5A43     		muls	r2, r3
  77 000c 8A18     		adds	r2, r1, r2
  78 000e 5068     		ldr	r0, [r2, #4]
  79              	.LVL0:
 823:Generated_Source\PSoC4/CapSense_1_INT.c ****     #endif
 824:Generated_Source\PSoC4/CapSense_1_INT.c **** 
 825:Generated_Source\PSoC4/CapSense_1_INT.c ****     /* Check if all the sensors are scanned in widget */
 826:Generated_Source\PSoC4/CapSense_1_INT.c ****     if (((uint8)CapSense_1_dsFlash.wdgtArray[(CapSense_1_widgetIndex)].totalNumSns - 1u) > CapSense
  80              		.loc 1 826 0
  81 0010 2278     		ldrb	r2, [r4]
  82 0012 5343     		muls	r3, r2
  83 0014 CB18     		adds	r3, r1, r3
  84 0016 1A7E     		ldrb	r2, [r3, #24]
  85 0018 013A     		subs	r2, r2, #1
ARM GAS  C:\Users\SHOZO\AppData\Local\Temp\cccl5lFi.s 			page 17


  86 001a 1F4B     		ldr	r3, .L8+8
  87 001c 1B78     		ldrb	r3, [r3]
  88 001e DBB2     		uxtb	r3, r3
  89 0020 9A42     		cmp	r2, r3
  90 0022 1DD9     		bls	.L5
 827:Generated_Source\PSoC4/CapSense_1_INT.c ****     {
 828:Generated_Source\PSoC4/CapSense_1_INT.c ****         /* Increment sensor index to configure next sensor in widget */
 829:Generated_Source\PSoC4/CapSense_1_INT.c ****         CapSense_1_sensorIndex++;
  91              		.loc 1 829 0
  92 0024 1C4C     		ldr	r4, .L8+8
  93 0026 2378     		ldrb	r3, [r4]
  94 0028 0133     		adds	r3, r3, #1
  95 002a DBB2     		uxtb	r3, r3
  96 002c 2370     		strb	r3, [r4]
 830:Generated_Source\PSoC4/CapSense_1_INT.c **** 
 831:Generated_Source\PSoC4/CapSense_1_INT.c ****         /* Update global pointer to CapSense_1_RAM_SNS_STRUCT to current sensor  */
 832:Generated_Source\PSoC4/CapSense_1_INT.c ****         CapSense_1_curRamSnsPtr = (CapSense_1_RAM_SNS_STRUCT *)
  97              		.loc 1 832 0
  98 002e 184D     		ldr	r5, .L8
  99 0030 2B78     		ldrb	r3, [r5]
 833:Generated_Source\PSoC4/CapSense_1_INT.c ****                                                   CapSense_1_dsFlash.wdgtArray[CapSense_1_widgetInd
 100              		.loc 1 833 0
 101 0032 2C22     		movs	r2, #44
 102 0034 5343     		muls	r3, r2
 103 0036 CB18     		adds	r3, r1, r3
 104 0038 9968     		ldr	r1, [r3, #8]
 834:Generated_Source\PSoC4/CapSense_1_INT.c ****                                                   + CapSense_1_sensorIndex;
 105              		.loc 1 834 0
 106 003a 2378     		ldrb	r3, [r4]
 107 003c DBB2     		uxtb	r3, r3
 108 003e 9A00     		lsls	r2, r3, #2
 109 0040 D318     		adds	r3, r2, r3
 110 0042 5A00     		lsls	r2, r3, #1
 111 0044 8A18     		adds	r2, r1, r2
 832:Generated_Source\PSoC4/CapSense_1_INT.c ****                                                   CapSense_1_dsFlash.wdgtArray[CapSense_1_widgetInd
 112              		.loc 1 832 0
 113 0046 154B     		ldr	r3, .L8+12
 114 0048 1A60     		str	r2, [r3]
 835:Generated_Source\PSoC4/CapSense_1_INT.c **** 
 836:Generated_Source\PSoC4/CapSense_1_INT.c ****         /* Configure clock divider to row or column */
 837:Generated_Source\PSoC4/CapSense_1_INT.c ****         #if ((CapSense_1_DISABLE == CapSense_1_CSD_COMMON_SNS_CLK_EN) && \
 838:Generated_Source\PSoC4/CapSense_1_INT.c ****              (CapSense_1_CSD_MATRIX_WIDGET_EN || CapSense_1_CSD_TOUCHPAD_WIDGET_EN))
 839:Generated_Source\PSoC4/CapSense_1_INT.c ****             CapSense_1_SsCSDConfigClock();
 840:Generated_Source\PSoC4/CapSense_1_INT.c **** 
 841:Generated_Source\PSoC4/CapSense_1_INT.c ****             #if (CapSense_1_ENABLE == CapSense_1_CSDV2)
 842:Generated_Source\PSoC4/CapSense_1_INT.c ****                  /* Set up scanning resolution */
 843:Generated_Source\PSoC4/CapSense_1_INT.c ****                 CapSense_1_SsCSDCalculateScanDuration(ptrWdgt);
 844:Generated_Source\PSoC4/CapSense_1_INT.c ****             #endif
 845:Generated_Source\PSoC4/CapSense_1_INT.c ****         #endif
 846:Generated_Source\PSoC4/CapSense_1_INT.c **** 
 847:Generated_Source\PSoC4/CapSense_1_INT.c ****         /* Setup Compensation IDAC for next sensor in widget */
 848:Generated_Source\PSoC4/CapSense_1_INT.c ****         #if ((CapSense_1_ENABLE == CapSense_1_CSD_IDAC_COMP_EN) || \
 849:Generated_Source\PSoC4/CapSense_1_INT.c ****              (CapSense_1_CSD_MATRIX_WIDGET_EN || CapSense_1_CSD_TOUCHPAD_WIDGET_EN))
 850:Generated_Source\PSoC4/CapSense_1_INT.c ****             CapSense_1_SsCSDSetUpIdacs(ptrWdgt);
 115              		.loc 1 850 0
 116 004a FFF7FEFF 		bl	CapSense_1_SsCSDSetUpIdacs
 117              	.LVL1:
ARM GAS  C:\Users\SHOZO\AppData\Local\Temp\cccl5lFi.s 			page 18


 851:Generated_Source\PSoC4/CapSense_1_INT.c ****         #endif /* ((CapSense_1_ENABLE == CapSense_1_CSD_IDAC_COMP_EN) || \
 852:Generated_Source\PSoC4/CapSense_1_INT.c ****                    (CapSense_1_CSD_MATRIX_WIDGET_EN || CapSense_1_CSD_TOUCHPAD_WIDGET_EN)) */
 853:Generated_Source\PSoC4/CapSense_1_INT.c **** 
 854:Generated_Source\PSoC4/CapSense_1_INT.c ****         /* Enable sensor */
 855:Generated_Source\PSoC4/CapSense_1_INT.c ****         CapSense_1_SsCSDConnectSensorExt((uint32)CapSense_1_widgetIndex, (uint32)CapSense_1_sensorI
 118              		.loc 1 855 0
 119 004e 2878     		ldrb	r0, [r5]
 120 0050 C0B2     		uxtb	r0, r0
 121 0052 2178     		ldrb	r1, [r4]
 122 0054 C9B2     		uxtb	r1, r1
 123 0056 FFF7FEFF 		bl	CapSense_1_SsCSDConnectSensorExt
 124              	.LVL2:
 856:Generated_Source\PSoC4/CapSense_1_INT.c **** 
 857:Generated_Source\PSoC4/CapSense_1_INT.c ****         /* Proceed scanning */
 858:Generated_Source\PSoC4/CapSense_1_INT.c ****         CapSense_1_SsCSDStartSample();
 125              		.loc 1 858 0
 126 005a FFF7FEFF 		bl	CapSense_1_SsCSDStartSample
 127              	.LVL3:
 128 005e 16E0     		b	.L4
 129              	.LVL4:
 130              	.L5:
 859:Generated_Source\PSoC4/CapSense_1_INT.c ****     }
 860:Generated_Source\PSoC4/CapSense_1_INT.c ****     /* Call scan next widget API if requested, if not, complete the scan  */
 861:Generated_Source\PSoC4/CapSense_1_INT.c ****     else
 862:Generated_Source\PSoC4/CapSense_1_INT.c ****     {
 863:Generated_Source\PSoC4/CapSense_1_INT.c ****         CapSense_1_sensorIndex = 0u;
 131              		.loc 1 863 0
 132 0060 0022     		movs	r2, #0
 133 0062 0D4B     		ldr	r3, .L8+8
 134 0064 1A70     		strb	r2, [r3]
 864:Generated_Source\PSoC4/CapSense_1_INT.c **** 
 865:Generated_Source\PSoC4/CapSense_1_INT.c ****         /* Current widget is totally scanned. Reset WIDGET BUSY flag */
 866:Generated_Source\PSoC4/CapSense_1_INT.c ****         CapSense_1_dsRam.status &= ~CapSense_1_WDGT_SW_STS_BUSY;
 135              		.loc 1 866 0
 136 0066 0E4A     		ldr	r2, .L8+16
 137 0068 D168     		ldr	r1, [r2, #12]
 138 006a 0E4B     		ldr	r3, .L8+20
 139 006c 0B40     		ands	r3, r1
 140 006e D360     		str	r3, [r2, #12]
 867:Generated_Source\PSoC4/CapSense_1_INT.c **** 
 868:Generated_Source\PSoC4/CapSense_1_INT.c ****         /* Check if all the widgets have been scanned */
 869:Generated_Source\PSoC4/CapSense_1_INT.c ****         if (CapSense_1_ENABLE == CapSense_1_requestScanAllWidget)
 141              		.loc 1 869 0
 142 0070 0D4B     		ldr	r3, .L8+24
 143 0072 1B78     		ldrb	r3, [r3]
 144 0074 012B     		cmp	r3, #1
 145 0076 02D1     		bne	.L7
 870:Generated_Source\PSoC4/CapSense_1_INT.c ****         {
 871:Generated_Source\PSoC4/CapSense_1_INT.c ****             /* Configure and begin scanning next widget */
 872:Generated_Source\PSoC4/CapSense_1_INT.c ****             CapSense_1_SsPostAllWidgetsScan();
 146              		.loc 1 872 0
 147 0078 FFF7FEFF 		bl	CapSense_1_SsPostAllWidgetsScan
 148              	.LVL5:
 149 007c 07E0     		b	.L4
 150              	.LVL6:
 151              	.L7:
 873:Generated_Source\PSoC4/CapSense_1_INT.c ****         }
ARM GAS  C:\Users\SHOZO\AppData\Local\Temp\cccl5lFi.s 			page 19


 874:Generated_Source\PSoC4/CapSense_1_INT.c ****         else
 875:Generated_Source\PSoC4/CapSense_1_INT.c ****         {
 876:Generated_Source\PSoC4/CapSense_1_INT.c ****             #if (CapSense_1_ENABLE == CapSense_1_BLOCK_OFF_AFTER_SCAN_EN)
 877:Generated_Source\PSoC4/CapSense_1_INT.c ****                 #if (CapSense_1_ENABLE == CapSense_1_CSDV2)
 878:Generated_Source\PSoC4/CapSense_1_INT.c ****                     /* Disable the CSD block */
 879:Generated_Source\PSoC4/CapSense_1_INT.c ****                     CY_SET_REG32(CapSense_1_CONFIG_PTR, CapSense_1_configCsd);
 880:Generated_Source\PSoC4/CapSense_1_INT.c ****                 #else
 881:Generated_Source\PSoC4/CapSense_1_INT.c ****                     /* Disable the CSD block. Connect Vref Buffer to AMUX bus */
 882:Generated_Source\PSoC4/CapSense_1_INT.c ****                     #if ((CapSense_1_CSH_PRECHARGE_IO_BUF == CapSense_1_CSD_CSH_PRECHARGE_SRC) &&\
 883:Generated_Source\PSoC4/CapSense_1_INT.c ****                          (CapSense_1_ENABLE == CapSense_1_CSD_SHIELD_TANK_EN))
 884:Generated_Source\PSoC4/CapSense_1_INT.c ****                         CY_SET_REG32(CapSense_1_CONFIG_PTR, CapSense_1_configCsd | CapSense_1_CMOD_
 885:Generated_Source\PSoC4/CapSense_1_INT.c ****                     #else
 886:Generated_Source\PSoC4/CapSense_1_INT.c ****                         CY_SET_REG32(CapSense_1_CONFIG_PTR, CapSense_1_configCsd | CapSense_1_CTANK
 887:Generated_Source\PSoC4/CapSense_1_INT.c ****                     #endif
 888:Generated_Source\PSoC4/CapSense_1_INT.c ****                 #endif
 889:Generated_Source\PSoC4/CapSense_1_INT.c ****             #endif
 890:Generated_Source\PSoC4/CapSense_1_INT.c **** 
 891:Generated_Source\PSoC4/CapSense_1_INT.c ****             /* All widgets are totally scanned. Reset BUSY flag */
 892:Generated_Source\PSoC4/CapSense_1_INT.c ****             CapSense_1_dsRam.status &= ~CapSense_1_SW_STS_BUSY;
 152              		.loc 1 892 0
 153 007e 084B     		ldr	r3, .L8+16
 154 0080 DA68     		ldr	r2, [r3, #12]
 155 0082 8021     		movs	r1, #128
 156 0084 8A43     		bics	r2, r1
 157 0086 DA60     		str	r2, [r3, #12]
 893:Generated_Source\PSoC4/CapSense_1_INT.c **** 
 894:Generated_Source\PSoC4/CapSense_1_INT.c ****             /* Update scan Counter */
 895:Generated_Source\PSoC4/CapSense_1_INT.c ****             CapSense_1_dsRam.scanCounter++;
 158              		.loc 1 895 0
 159 0088 1A89     		ldrh	r2, [r3, #8]
 160 008a 0132     		adds	r2, r2, #1
 161 008c 1A81     		strh	r2, [r3, #8]
 162              	.LVL7:
 163              	.L4:
 896:Generated_Source\PSoC4/CapSense_1_INT.c ****         }
 897:Generated_Source\PSoC4/CapSense_1_INT.c ****     }
 898:Generated_Source\PSoC4/CapSense_1_INT.c **** }
 164              		.loc 1 898 0
 165              		@ sp needed
 166 008e 70BD     		pop	{r4, r5, r6, pc}
 167              	.L9:
 168              		.align	2
 169              	.L8:
 170 0090 00000000 		.word	CapSense_1_widgetIndex
 171 0094 00000000 		.word	CapSense_1_dsFlash
 172 0098 00000000 		.word	CapSense_1_sensorIndex
 173 009c 00000000 		.word	CapSense_1_curRamSnsPtr
 174 00a0 00000000 		.word	CapSense_1_dsRam
 175 00a4 FFFFFEFF 		.word	-65537
 176 00a8 00000000 		.word	CapSense_1_requestScanAllWidget
 177              		.cfi_endproc
 178              	.LFE3:
 179              		.size	CapSense_1_SsCSDInitNextScan, .-CapSense_1_SsCSDInitNextScan
 180              		.section	.text.CapSense_1_CSDPostSingleScan,"ax",%progbits
 181              		.align	2
 182              		.global	CapSense_1_CSDPostSingleScan
 183              		.code	16
ARM GAS  C:\Users\SHOZO\AppData\Local\Temp\cccl5lFi.s 			page 20


 184              		.thumb_func
 185              		.type	CapSense_1_CSDPostSingleScan, %function
 186              	CapSense_1_CSDPostSingleScan:
 187              	.LFB0:
 463:Generated_Source\PSoC4/CapSense_1_INT.c ****         #ifdef CapSense_1_ENTRY_CALLBACK
 188              		.loc 1 463 0
 189              		.cfi_startproc
 190              		@ args = 0, pretend = 0, frame = 0
 191              		@ frame_needed = 0, uses_anonymous_args = 0
 192 0000 10B5     		push	{r4, lr}
 193              		.cfi_def_cfa_offset 8
 194              		.cfi_offset 4, -8
 195              		.cfi_offset 14, -4
 469:Generated_Source\PSoC4/CapSense_1_INT.c **** 
 196              		.loc 1 469 0
 197 0002 0122     		movs	r2, #1
 198 0004 094B     		ldr	r3, .L11
 199 0006 1A60     		str	r2, [r3]
 472:Generated_Source\PSoC4/CapSense_1_INT.c **** 
 200              		.loc 1 472 0
 201 0008 FFF7FEFF 		bl	CapSense_1_SsCSDPostScan
 202              	.LVL8:
 523:Generated_Source\PSoC4/CapSense_1_INT.c ****                 #endif
 203              		.loc 1 523 0
 204 000c 084B     		ldr	r3, .L11+4
 205 000e 1B68     		ldr	r3, [r3]
 206 0010 084A     		ldr	r2, .L11+8
 207 0012 1343     		orrs	r3, r2
 208 0014 084A     		ldr	r2, .L11+12
 209 0016 1360     		str	r3, [r2]
 527:Generated_Source\PSoC4/CapSense_1_INT.c **** 
 210              		.loc 1 527 0
 211 0018 084B     		ldr	r3, .L11+16
 212 001a 1A89     		ldrh	r2, [r3, #8]
 213 001c 0132     		adds	r2, r2, #1
 214 001e 1A81     		strh	r2, [r3, #8]
 530:Generated_Source\PSoC4/CapSense_1_INT.c ****             }
 215              		.loc 1 530 0
 216 0020 D968     		ldr	r1, [r3, #12]
 217 0022 074A     		ldr	r2, .L11+20
 218 0024 0A40     		ands	r2, r1
 219 0026 DA60     		str	r2, [r3, #12]
 537:Generated_Source\PSoC4/CapSense_1_INT.c **** 
 220              		.loc 1 537 0
 221              		@ sp needed
 222 0028 10BD     		pop	{r4, pc}
 223              	.L12:
 224 002a C046     		.align	2
 225              	.L11:
 226 002c 14000840 		.word	1074266132
 227 0030 00000000 		.word	CapSense_1_configCsd
 228 0034 2008E881 		.word	-2115500000
 229 0038 04000840 		.word	1074266116
 230 003c 00000000 		.word	CapSense_1_dsRam
 231 0040 7FFFFEFF 		.word	-65665
 232              		.cfi_endproc
 233              	.LFE0:
ARM GAS  C:\Users\SHOZO\AppData\Local\Temp\cccl5lFi.s 			page 21


 234              		.size	CapSense_1_CSDPostSingleScan, .-CapSense_1_CSDPostSingleScan
 235              		.section	.text.CapSense_1_CSDPostMultiScan,"ax",%progbits
 236              		.align	2
 237              		.global	CapSense_1_CSDPostMultiScan
 238              		.code	16
 239              		.thumb_func
 240              		.type	CapSense_1_CSDPostMultiScan, %function
 241              	CapSense_1_CSDPostMultiScan:
 242              	.LFB1:
 576:Generated_Source\PSoC4/CapSense_1_INT.c ****         /* Declare and initialize ptr to sensor IO structure to appropriate address        */
 243              		.loc 1 576 0
 244              		.cfi_startproc
 245              		@ args = 0, pretend = 0, frame = 0
 246              		@ frame_needed = 0, uses_anonymous_args = 0
 247 0000 10B5     		push	{r4, lr}
 248              		.cfi_def_cfa_offset 8
 249              		.cfi_offset 4, -8
 250              		.cfi_offset 14, -4
 578:Generated_Source\PSoC4/CapSense_1_INT.c ****                                                           CapSense_1_dsFlash.wdgtArray[CapSense_1_w
 251              		.loc 1 578 0
 252 0002 0F4B     		ldr	r3, .L14
 253 0004 1B78     		ldrb	r3, [r3]
 579:Generated_Source\PSoC4/CapSense_1_INT.c ****                                                           + CapSense_1_sensorIndex;
 254              		.loc 1 579 0
 255 0006 2C22     		movs	r2, #44
 256 0008 5343     		muls	r3, r2
 257 000a 0E4A     		ldr	r2, .L14+4
 258 000c 9C58     		ldr	r4, [r3, r2]
 580:Generated_Source\PSoC4/CapSense_1_INT.c **** 
 259              		.loc 1 580 0
 260 000e 0E4B     		ldr	r3, .L14+8
 261 0010 1A78     		ldrb	r2, [r3]
 262 0012 D2B2     		uxtb	r2, r2
 263 0014 D100     		lsls	r1, r2, #3
 264 0016 8A1A     		subs	r2, r1, r2
 265 0018 9300     		lsls	r3, r2, #2
 578:Generated_Source\PSoC4/CapSense_1_INT.c ****                                                           CapSense_1_dsFlash.wdgtArray[CapSense_1_w
 266              		.loc 1 578 0
 267 001a E418     		adds	r4, r4, r3
 268              	.LVL9:
 587:Generated_Source\PSoC4/CapSense_1_INT.c **** 
 269              		.loc 1 587 0
 270 001c 0122     		movs	r2, #1
 271 001e 0B4B     		ldr	r3, .L14+12
 272 0020 1A60     		str	r2, [r3]
 590:Generated_Source\PSoC4/CapSense_1_INT.c **** 
 273              		.loc 1 590 0
 274 0022 FFF7FEFF 		bl	CapSense_1_SsCSDPostScan
 275              	.LVL10:
 593:Generated_Source\PSoC4/CapSense_1_INT.c **** 
 276              		.loc 1 593 0
 277 0026 0A4B     		ldr	r3, .L14+16
 278 0028 1B68     		ldr	r3, [r3]
 279 002a 0A4A     		ldr	r2, .L14+20
 280 002c 1343     		orrs	r3, r2
 281 002e 0A4A     		ldr	r2, .L14+24
 282 0030 1360     		str	r3, [r2]
ARM GAS  C:\Users\SHOZO\AppData\Local\Temp\cccl5lFi.s 			page 22


 604:Generated_Source\PSoC4/CapSense_1_INT.c ****         #endif /* (CapSense_1_ENABLE == CapSense_1_MULTI_FREQ_SCAN_EN) */
 283              		.loc 1 604 0
 284 0032 2000     		movs	r0, r4
 285 0034 FFF7FEFF 		bl	CapSense_1_CSDDisconnectSns
 286              	.LVL11:
 629:Generated_Source\PSoC4/CapSense_1_INT.c ****         #endif /* (CapSense_1_ENABLE == CapSense_1_MULTI_FREQ_SCAN_EN) */
 287              		.loc 1 629 0
 288 0038 FFF7FEFF 		bl	CapSense_1_SsCSDInitNextScan
 289              	.LVL12:
 635:Generated_Source\PSoC4/CapSense_1_INT.c **** 
 290              		.loc 1 635 0
 291              		@ sp needed
 292              	.LVL13:
 293 003c 10BD     		pop	{r4, pc}
 294              	.L15:
 295 003e C046     		.align	2
 296              	.L14:
 297 0040 00000000 		.word	CapSense_1_widgetIndex
 298 0044 00000000 		.word	CapSense_1_dsFlash
 299 0048 00000000 		.word	CapSense_1_sensorIndex
 300 004c 14000840 		.word	1074266132
 301 0050 00000000 		.word	CapSense_1_configCsd
 302 0054 2008E881 		.word	-2115500000
 303 0058 04000840 		.word	1074266116
 304              		.cfi_endproc
 305              	.LFE1:
 306              		.size	CapSense_1_CSDPostMultiScan, .-CapSense_1_CSDPostMultiScan
 307              		.text
 308              	.Letext0:
 309              		.file 2 "Generated_Source\\PSoC4\\cytypes.h"
 310              		.file 3 "Generated_Source\\PSoC4\\CapSense_1_Configuration.h"
 311              		.file 4 "Generated_Source\\PSoC4\\CapSense_1_SmartSense_LL.h"
 312              		.file 5 "Generated_Source\\PSoC4\\CapSense_1_Structure.h"
 313              		.file 6 "Generated_Source\\PSoC4\\CapSense_1_Sensing.h"
 314              		.file 7 "Generated_Source\\PSoC4\\CapSense_1_SensingCSD_LL.h"